	.file	"<artificial>"
	.text
	.section .rdata,"dr"
.LC0:
	.ascii "None\0"
	.section	.text.startup,"x"
	.p2align 4
	.globl	_GLOBAL__sub_I__ZN8Polyfish4Eval7useNNUEE.lto_priv.0
	.def	_GLOBAL__sub_I__ZN8Polyfish4Eval7useNNUEE.lto_priv.0;	.scl	2;	.type	32;	.endef
	.seh_proc	_GLOBAL__sub_I__ZN8Polyfish4Eval7useNNUEE.lto_priv.0
_GLOBAL__sub_I__ZN8Polyfish4Eval7useNNUEE.lto_priv.0:
	subq	$40, %rsp
	.seh_stackalloc	40
	.seh_endprologue
	movq	.refptr.__gcov_indirect_call(%rip), %rax
	cmpq	$0, (%rax)
	jne	.L6
.L2:
	addq	$1, __gcov0._GLOBAL__sub_I__ZN8Polyfish4Eval7useNNUEE.lto_priv.0(%rip)
	cmpq	$0, __gcov7._GLOBAL__sub_I__ZN8Polyfish4Eval7useNNUEE.lto_priv.0(%rip)
	je	.L7
.L3:
	addq	$1, __gcov0._Z41__static_initialization_and_destruction_0ii.lto_priv.0(%rip)
	cmpq	$0, __gcov7._Z41__static_initialization_and_destruction_0ii.lto_priv.0(%rip)
	je	.L8
.L4:
	leaq	_ZStL8__ioinit.lto_priv.2(%rip), %rcx
	addq	$1, 8+__gcov0._Z41__static_initialization_and_destruction_0ii.lto_priv.0(%rip)
	addq	$1, 16+__gcov0._Z41__static_initialization_and_destruction_0ii.lto_priv.0(%rip)
	call	_ZNSt8ios_base4InitC1Ev
	leaq	__tcf_1.lto_priv.2(%rip), %rcx
	addq	$1, 24+__gcov0._Z41__static_initialization_and_destruction_0ii.lto_priv.0(%rip)
	call	atexit
	movq	.refptr._ZN8Polyfish4Eval19currentEvalFileNameB5cxx11E(%rip), %rcx
	leaq	.LC0(%rip), %rdx
	addq	$1, 32+__gcov0._Z41__static_initialization_and_destruction_0ii.lto_priv.0(%rip)
	call	_ZNSt7__cxx1112basic_stringIcSt11char_traitsIcESaIcEEC1IS3_EEPKcRKS3_.constprop.0
	leaq	__tcf_2.lto_priv.0(%rip), %rcx
	addq	$1, 40+__gcov0._Z41__static_initialization_and_destruction_0ii.lto_priv.0(%rip)
	call	atexit
	addq	$1, 48+__gcov0._Z41__static_initialization_and_destruction_0ii.lto_priv.0(%rip)
	addq	$1, 8+__gcov0._GLOBAL__sub_I__ZN8Polyfish4Eval7useNNUEE.lto_priv.0(%rip)
	addq	$40, %rsp
	ret
.L6:
	leaq	_GLOBAL__sub_I__ZN8Polyfish4Eval7useNNUEE.lto_priv.0(%rip), %rdx
	movl	$1494342691, %ecx
	call	__gcov_indirect_call_profiler_v4
	jmp	.L2
.L7:
	movq	.refptr.__gcov_time_profiler_counter(%rip), %rdx
	movq	(%rdx), %rax
	addq	$1, %rax
	movq	%rax, __gcov7._GLOBAL__sub_I__ZN8Polyfish4Eval7useNNUEE.lto_priv.0(%rip)
	movq	%rax, (%rdx)
	jmp	.L3
.L8:
	movq	.refptr.__gcov_time_profiler_counter(%rip), %rdx
	movq	(%rdx), %rax
	addq	$1, %rax
	movq	%rax, __gcov7._Z41__static_initialization_and_destruction_0ii.lto_priv.0(%rip)
	movq	%rax, (%rdx)
	jmp	.L4
	.seh_endproc
	.p2align 4
	.globl	_GLOBAL__sub_I_main.lto_priv.0
	.def	_GLOBAL__sub_I_main.lto_priv.0;	.scl	2;	.type	32;	.endef
	.seh_proc	_GLOBAL__sub_I_main.lto_priv.0
_GLOBAL__sub_I_main.lto_priv.0:
	subq	$40, %rsp
	.seh_stackalloc	40
	.seh_endprologue
	movq	.refptr.__gcov_indirect_call(%rip), %rax
	cmpq	$0, (%rax)
	je	.L10
	leaq	_GLOBAL__sub_I_main.lto_priv.0(%rip), %rdx
	movl	$33561883, %ecx
	call	__gcov_indirect_call_profiler_v4
.L10:
	addq	$1, __gcov0._GLOBAL__sub_I_main.lto_priv.0(%rip)
	cmpq	$0, __gcov7._GLOBAL__sub_I_main.lto_priv.0(%rip)
	jne	.L11
	movq	.refptr.__gcov_time_profiler_counter(%rip), %rdx
	movq	(%rdx), %rax
	addq	$1, %rax
	movq	%rax, __gcov7._GLOBAL__sub_I_main.lto_priv.0(%rip)
	movq	%rax, (%rdx)
.L11:
	leaq	_ZStL8__ioinit.lto_priv.3(%rip), %rcx
	call	_ZNSt8ios_base4InitC1Ev
	leaq	__tcf_1.lto_priv.3(%rip), %rcx
	addq	$1, 8+__gcov0._GLOBAL__sub_I_main.lto_priv.0(%rip)
	call	atexit
	addq	$1, 16+__gcov0._GLOBAL__sub_I_main.lto_priv.0(%rip)
	addq	$40, %rsp
	ret
	.seh_endproc
	.p2align 4
	.globl	_GLOBAL__sub_I__ZN8Polyfish8Material5probeERKNS_8PositionE.lto_priv.0
	.def	_GLOBAL__sub_I__ZN8Polyfish8Material5probeERKNS_8PositionE.lto_priv.0;	.scl	2;	.type	32;	.endef
	.seh_proc	_GLOBAL__sub_I__ZN8Polyfish8Material5probeERKNS_8PositionE.lto_priv.0
_GLOBAL__sub_I__ZN8Polyfish8Material5probeERKNS_8PositionE.lto_priv.0:
	pushq	%rsi
	.seh_pushreg	%rsi
	pushq	%rbx
	.seh_pushreg	%rbx
	subq	$40, %rsp
	.seh_stackalloc	40
	.seh_endprologue
	movq	.refptr.__gcov_indirect_call(%rip), %rax
	cmpq	$0, (%rax)
	jne	.L16
.L13:
	addq	$1, __gcov0._GLOBAL__sub_I__ZN8Polyfish8Material5probeERKNS_8PositionE.lto_priv.0(%rip)
	cmpq	$0, __gcov7._GLOBAL__sub_I__ZN8Polyfish8Material5probeERKNS_8PositionE.lto_priv.0(%rip)
	je	.L17
.L14:
	addq	$1, __gcov0._Z41__static_initialization_and_destruction_0ii.lto_priv.1(%rip)
	cmpq	$0, __gcov7._Z41__static_initialization_and_destruction_0ii.lto_priv.1(%rip)
	je	.L18
.L15:
	leaq	_ZStL8__ioinit.lto_priv.4(%rip), %rcx
	addq	$1, 8+__gcov0._Z41__static_initialization_and_destruction_0ii.lto_priv.1(%rip)
	addq	$1, 16+__gcov0._Z41__static_initialization_and_destruction_0ii.lto_priv.1(%rip)
	call	_ZNSt8ios_base4InitC1Ev
	leaq	__tcf_1.lto_priv.4(%rip), %rcx
	addq	$1, 24+__gcov0._Z41__static_initialization_and_destruction_0ii.lto_priv.1(%rip)
	call	atexit
	movq	.LC1(%rip), %rsi
	movq	.LC2(%rip), %rbx
	leaq	16+_ZTVN8Polyfish7EndgameILNS_11EndgameCodeE3ENS_5ValueEEE(%rip), %rax
	leaq	__tcf_2.lto_priv.1(%rip), %rcx
	addq	$1, 32+__gcov0._Z41__static_initialization_and_destruction_0ii.lto_priv.1(%rip)
	movq	%rsi, 8+_ZN8Polyfish12_GLOBAL__N_111EvaluateKXKE.lto_priv.0(%rip)
	movq	%rbx, 24+_ZN8Polyfish12_GLOBAL__N_111EvaluateKXKE.lto_priv.0(%rip)
	movq	%rax, _ZN8Polyfish12_GLOBAL__N_111EvaluateKXKE.lto_priv.0(%rip)
	movq	%rax, 16+_ZN8Polyfish12_GLOBAL__N_111EvaluateKXKE.lto_priv.0(%rip)
	call	atexit
	leaq	16+_ZTVN8Polyfish7EndgameILNS_11EndgameCodeE12ENS_11ScaleFactorEEE(%rip), %rax
	leaq	__tcf_3.lto_priv.2(%rip), %rcx
	addq	$1, 40+__gcov0._Z41__static_initialization_and_destruction_0ii.lto_priv.1(%rip)
	movq	%rsi, 8+_ZN8Polyfish12_GLOBAL__N_110ScaleKBPsKE.lto_priv.0(%rip)
	movq	%rbx, 24+_ZN8Polyfish12_GLOBAL__N_110ScaleKBPsKE.lto_priv.0(%rip)
	movq	%rax, _ZN8Polyfish12_GLOBAL__N_110ScaleKBPsKE.lto_priv.0(%rip)
	movq	%rax, 16+_ZN8Polyfish12_GLOBAL__N_110ScaleKBPsKE.lto_priv.0(%rip)
	call	atexit
	leaq	16+_ZTVN8Polyfish7EndgameILNS_11EndgameCodeE13ENS_11ScaleFactorEEE(%rip), %rax
	leaq	__tcf_4.lto_priv.2(%rip), %rcx
	addq	$1, 48+__gcov0._Z41__static_initialization_and_destruction_0ii.lto_priv.1(%rip)
	movq	%rsi, 8+_ZN8Polyfish12_GLOBAL__N_111ScaleKQKRPsE.lto_priv.0(%rip)
	movq	%rbx, 24+_ZN8Polyfish12_GLOBAL__N_111ScaleKQKRPsE.lto_priv.0(%rip)
	movq	%rax, _ZN8Polyfish12_GLOBAL__N_111ScaleKQKRPsE.lto_priv.0(%rip)
	movq	%rax, 16+_ZN8Polyfish12_GLOBAL__N_111ScaleKQKRPsE.lto_priv.0(%rip)
	call	atexit
	leaq	16+_ZTVN8Polyfish7EndgameILNS_11EndgameCodeE17ENS_11ScaleFactorEEE(%rip), %rax
	leaq	__tcf_5.lto_priv.2(%rip), %rcx
	addq	$1, 56+__gcov0._Z41__static_initialization_and_destruction_0ii.lto_priv.1(%rip)
	movq	%rsi, 8+_ZN8Polyfish12_GLOBAL__N_19ScaleKPsKE.lto_priv.0(%rip)
	movq	%rbx, 24+_ZN8Polyfish12_GLOBAL__N_19ScaleKPsKE.lto_priv.0(%rip)
	movq	%rax, _ZN8Polyfish12_GLOBAL__N_19ScaleKPsKE.lto_priv.0(%rip)
	movq	%rax, 16+_ZN8Polyfish12_GLOBAL__N_19ScaleKPsKE.lto_priv.0(%rip)
	call	atexit
	leaq	16+_ZTVN8Polyfish7EndgameILNS_11EndgameCodeE21ENS_11ScaleFactorEEE(%rip), %rax
	leaq	__tcf_6.lto_priv.2(%rip), %rcx
	addq	$1, 64+__gcov0._Z41__static_initialization_and_destruction_0ii.lto_priv.1(%rip)
	movq	%rsi, 8+_ZN8Polyfish12_GLOBAL__N_19ScaleKPKPE.lto_priv.0(%rip)
	movq	%rbx, 24+_ZN8Polyfish12_GLOBAL__N_19ScaleKPKPE.lto_priv.0(%rip)
	movq	%rax, _ZN8Polyfish12_GLOBAL__N_19ScaleKPKPE.lto_priv.0(%rip)
	movq	%rax, 16+_ZN8Polyfish12_GLOBAL__N_19ScaleKPKPE.lto_priv.0(%rip)
	call	atexit
	addq	$1, 72+__gcov0._Z41__static_initialization_and_destruction_0ii.lto_priv.1(%rip)
	addq	$1, 8+__gcov0._GLOBAL__sub_I__ZN8Polyfish8Material5probeERKNS_8PositionE.lto_priv.0(%rip)
	addq	$40, %rsp
	popq	%rbx
	popq	%rsi
	ret
.L16:
	leaq	_GLOBAL__sub_I__ZN8Polyfish8Material5probeERKNS_8PositionE.lto_priv.0(%rip), %rdx
	movl	$1658014197, %ecx
	call	__gcov_indirect_call_profiler_v4
	jmp	.L13
.L17:
	movq	.refptr.__gcov_time_profiler_counter(%rip), %rdx
	movq	(%rdx), %rax
	addq	$1, %rax
	movq	%rax, __gcov7._GLOBAL__sub_I__ZN8Polyfish8Material5probeERKNS_8PositionE.lto_priv.0(%rip)
	movq	%rax, (%rdx)
	jmp	.L14
.L18:
	movq	.refptr.__gcov_time_profiler_counter(%rip), %rdx
	movq	(%rdx), %rax
	addq	$1, %rax
	movq	%rax, __gcov7._Z41__static_initialization_and_destruction_0ii.lto_priv.1(%rip)
	movq	%rax, (%rdx)
	jmp	.L15
	.seh_endproc
	.text
	.p2align 4
	.globl	_ZN8Polyfish10attacks_bbILNS_9PieceTypeE5EEEyNS_6SquareEy
	.def	_ZN8Polyfish10attacks_bbILNS_9PieceTypeE5EEEyNS_6SquareEy;	.scl	2;	.type	32;	.endef
	.seh_proc	_ZN8Polyfish10attacks_bbILNS_9PieceTypeE5EEEyNS_6SquareEy
_ZN8Polyfish10attacks_bbILNS_9PieceTypeE5EEEyNS_6SquareEy:
	pushq	%rsi
	.seh_pushreg	%rsi
	pushq	%rbx
	.seh_pushreg	%rbx
	subq	$40, %rsp
	.seh_stackalloc	40
	.seh_endprologue
	movq	.refptr.__gcov_indirect_call(%rip), %rax
	cmpq	$0, (%rax)
	movl	%ecx, %ebx
	movq	%rdx, %rsi
	je	.L20
	leaq	_ZN8Polyfish10attacks_bbILNS_9PieceTypeE5EEEyNS_6SquareEy(%rip), %rdx
	movl	$604091569, %ecx
	call	__gcov_indirect_call_profiler_v4
.L20:
	addq	$1, __gcov0._ZN8Polyfish10attacks_bbILNS_9PieceTypeE5EEEyNS_6SquareEy.lto_priv.0(%rip)
	cmpq	$0, __gcov7._ZN8Polyfish10attacks_bbILNS_9PieceTypeE5EEEyNS_6SquareEy.lto_priv.0(%rip)
	jne	.L21
	movq	.refptr.__gcov_time_profiler_counter(%rip), %rdx
	movq	(%rdx), %rax
	addq	$1, %rax
	movq	%rax, __gcov7._ZN8Polyfish10attacks_bbILNS_9PieceTypeE5EEEyNS_6SquareEy.lto_priv.0(%rip)
	movq	%rax, (%rdx)
.L21:
	movq	.refptr._ZN8Polyfish10RookMagicsE(%rip), %r8
	movslq	%ebx, %rax
	salq	$5, %rax
	addq	%rax, %r8
	addq	.refptr._ZN8Polyfish12BishopMagicsE(%rip), %rax
	movq	(%r8), %rdx
	movl	24(%r8), %ecx
	andq	%rsi, %rdx
	imulq	8(%r8), %rdx
	andq	(%rax), %rsi
	imulq	8(%rax), %rsi
	movq	16(%r8), %r8
	shrq	%cl, %rdx
	movl	24(%rax), %ecx
	movl	%edx, %edx
	shrq	%cl, %rsi
	movq	16(%rax), %rcx
	movq	(%r8,%rdx,8), %rax
	movl	%esi, %esi
	orq	(%rcx,%rsi,8), %rax
	addq	$40, %rsp
	popq	%rbx
	popq	%rsi
	ret
	.seh_endproc
	.align 2
	.p2align 4
	.def	_ZN8Polyfish7EndgameILNS_11EndgameCodeE21ENS_11ScaleFactorEED1Ev;	.scl	3;	.type	32;	.endef
	.seh_proc	_ZN8Polyfish7EndgameILNS_11EndgameCodeE21ENS_11ScaleFactorEED1Ev
_ZN8Polyfish7EndgameILNS_11EndgameCodeE21ENS_11ScaleFactorEED1Ev:
	subq	$40, %rsp
	.seh_stackalloc	40
	.seh_endprologue
	movq	.refptr.__gcov_indirect_call(%rip), %rax
	cmpq	$0, (%rax)
	je	.L23
	leaq	_ZN8Polyfish7EndgameILNS_11EndgameCodeE21ENS_11ScaleFactorEED1Ev(%rip), %rdx
	movl	$1874353193, %ecx
	call	__gcov_indirect_call_profiler_v4
.L23:
	addq	$1, __gcov0._ZN8Polyfish7EndgameILNS_11EndgameCodeE21ENS_11ScaleFactorEED1Ev(%rip)
	cmpq	$0, __gcov7._ZN8Polyfish7EndgameILNS_11EndgameCodeE21ENS_11ScaleFactorEED1Ev(%rip)
	jne	.L25
	movq	.refptr.__gcov_time_profiler_counter(%rip), %rdx
	movq	(%rdx), %rax
	addq	$1, %rax
	movq	%rax, __gcov7._ZN8Polyfish7EndgameILNS_11EndgameCodeE21ENS_11ScaleFactorEED1Ev(%rip)
	movq	%rax, (%rdx)
.L25:
	addq	$40, %rsp
	ret
	.seh_endproc
	.align 2
	.p2align 4
	.def	_ZN8Polyfish7EndgameILNS_11EndgameCodeE17ENS_11ScaleFactorEED1Ev;	.scl	3;	.type	32;	.endef
	.seh_proc	_ZN8Polyfish7EndgameILNS_11EndgameCodeE17ENS_11ScaleFactorEED1Ev
_ZN8Polyfish7EndgameILNS_11EndgameCodeE17ENS_11ScaleFactorEED1Ev:
	subq	$40, %rsp
	.seh_stackalloc	40
	.seh_endprologue
	movq	.refptr.__gcov_indirect_call(%rip), %rax
	cmpq	$0, (%rax)
	je	.L27
	leaq	_ZN8Polyfish7EndgameILNS_11EndgameCodeE17ENS_11ScaleFactorEED1Ev(%rip), %rdx
	movl	$1877370000, %ecx
	call	__gcov_indirect_call_profiler_v4
.L27:
	addq	$1, __gcov0._ZN8Polyfish7EndgameILNS_11EndgameCodeE17ENS_11ScaleFactorEED1Ev(%rip)
	cmpq	$0, __gcov7._ZN8Polyfish7EndgameILNS_11EndgameCodeE17ENS_11ScaleFactorEED1Ev(%rip)
	jne	.L29
	movq	.refptr.__gcov_time_profiler_counter(%rip), %rdx
	movq	(%rdx), %rax
	addq	$1, %rax
	movq	%rax, __gcov7._ZN8Polyfish7EndgameILNS_11EndgameCodeE17ENS_11ScaleFactorEED1Ev(%rip)
	movq	%rax, (%rdx)
.L29:
	addq	$40, %rsp
	ret
	.seh_endproc
	.align 2
	.p2align 4
	.def	_ZN8Polyfish7EndgameILNS_11EndgameCodeE13ENS_11ScaleFactorEED1Ev;	.scl	3;	.type	32;	.endef
	.seh_proc	_ZN8Polyfish7EndgameILNS_11EndgameCodeE13ENS_11ScaleFactorEED1Ev
_ZN8Polyfish7EndgameILNS_11EndgameCodeE13ENS_11ScaleFactorEED1Ev:
	subq	$40, %rsp
	.seh_stackalloc	40
	.seh_endprologue
	movq	.refptr.__gcov_indirect_call(%rip), %rax
	cmpq	$0, (%rax)
	je	.L31
	leaq	_ZN8Polyfish7EndgameILNS_11EndgameCodeE13ENS_11ScaleFactorEED1Ev(%rip), %rdx
	movl	$1418989725, %ecx
	call	__gcov_indirect_call_profiler_v4
.L31:
	addq	$1, __gcov0._ZN8Polyfish7EndgameILNS_11EndgameCodeE13ENS_11ScaleFactorEED1Ev(%rip)
	cmpq	$0, __gcov7._ZN8Polyfish7EndgameILNS_11EndgameCodeE13ENS_11ScaleFactorEED1Ev(%rip)
	jne	.L33
	movq	.refptr.__gcov_time_profiler_counter(%rip), %rdx
	movq	(%rdx), %rax
	addq	$1, %rax
	movq	%rax, __gcov7._ZN8Polyfish7EndgameILNS_11EndgameCodeE13ENS_11ScaleFactorEED1Ev(%rip)
	movq	%rax, (%rdx)
.L33:
	addq	$40, %rsp
	ret
	.seh_endproc
	.align 2
	.p2align 4
	.def	_ZN8Polyfish7EndgameILNS_11EndgameCodeE12ENS_11ScaleFactorEED1Ev;	.scl	3;	.type	32;	.endef
	.seh_proc	_ZN8Polyfish7EndgameILNS_11EndgameCodeE12ENS_11ScaleFactorEED1Ev
_ZN8Polyfish7EndgameILNS_11EndgameCodeE12ENS_11ScaleFactorEED1Ev:
	subq	$40, %rsp
	.seh_stackalloc	40
	.seh_endprologue
	movq	.refptr.__gcov_indirect_call(%rip), %rax
	cmpq	$0, (%rax)
	je	.L35
	leaq	_ZN8Polyfish7EndgameILNS_11EndgameCodeE12ENS_11ScaleFactorEED1Ev(%rip), %rdx
	movl	$421020712, %ecx
	call	__gcov_indirect_call_profiler_v4
.L35:
	addq	$1, __gcov0._ZN8Polyfish7EndgameILNS_11EndgameCodeE12ENS_11ScaleFactorEED1Ev(%rip)
	cmpq	$0, __gcov7._ZN8Polyfish7EndgameILNS_11EndgameCodeE12ENS_11ScaleFactorEED1Ev(%rip)
	jne	.L37
	movq	.refptr.__gcov_time_profiler_counter(%rip), %rdx
	movq	(%rdx), %rax
	addq	$1, %rax
	movq	%rax, __gcov7._ZN8Polyfish7EndgameILNS_11EndgameCodeE12ENS_11ScaleFactorEED1Ev(%rip)
	movq	%rax, (%rdx)
.L37:
	addq	$40, %rsp
	ret
	.seh_endproc
	.align 2
	.p2align 4
	.def	_ZN8Polyfish7EndgameILNS_11EndgameCodeE3ENS_5ValueEED1Ev;	.scl	3;	.type	32;	.endef
	.seh_proc	_ZN8Polyfish7EndgameILNS_11EndgameCodeE3ENS_5ValueEED1Ev
_ZN8Polyfish7EndgameILNS_11EndgameCodeE3ENS_5ValueEED1Ev:
	subq	$40, %rsp
	.seh_stackalloc	40
	.seh_endprologue
	movq	.refptr.__gcov_indirect_call(%rip), %rax
	cmpq	$0, (%rax)
	je	.L39
	leaq	_ZN8Polyfish7EndgameILNS_11EndgameCodeE3ENS_5ValueEED1Ev(%rip), %rdx
	movl	$1288766897, %ecx
	call	__gcov_indirect_call_profiler_v4
.L39:
	addq	$1, __gcov0._ZN8Polyfish7EndgameILNS_11EndgameCodeE3ENS_5ValueEED1Ev(%rip)
	cmpq	$0, __gcov7._ZN8Polyfish7EndgameILNS_11EndgameCodeE3ENS_5ValueEED1Ev(%rip)
	jne	.L41
	movq	.refptr.__gcov_time_profiler_counter(%rip), %rdx
	movq	(%rdx), %rax
	addq	$1, %rax
	movq	%rax, __gcov7._ZN8Polyfish7EndgameILNS_11EndgameCodeE3ENS_5ValueEED1Ev(%rip)
	movq	%rax, (%rdx)
.L41:
	addq	$40, %rsp
	ret
	.seh_endproc
	.p2align 4
	.globl	__tcf_2.lto_priv.1
	.def	__tcf_2.lto_priv.1;	.scl	2;	.type	32;	.endef
	.seh_proc	__tcf_2.lto_priv.1
__tcf_2.lto_priv.1:
	pushq	%rbp
	.seh_pushreg	%rbp
	pushq	%rdi
	.seh_pushreg	%rdi
	pushq	%rsi
	.seh_pushreg	%rsi
	pushq	%rbx
	.seh_pushreg	%rbx
	subq	$40, %rsp
	.seh_stackalloc	40
	.seh_endprologue
	movq	.refptr.__gcov_indirect_call(%rip), %rsi
	cmpq	$0, (%rsi)
	je	.L43
	leaq	__tcf_2.lto_priv.1(%rip), %rdx
	movl	$1909948052, %ecx
	call	__gcov_indirect_call_profiler_v4
.L43:
	addq	$1, __gcov0.__tcf_2.lto_priv.1(%rip)
	cmpq	$0, __gcov7.__tcf_2.lto_priv.1(%rip)
	jne	.L44
	movq	.refptr.__gcov_time_profiler_counter(%rip), %rdx
	movq	(%rdx), %rax
	addq	$1, %rax
	movq	%rax, __gcov7.__tcf_2.lto_priv.1(%rip)
	movq	%rax, (%rdx)
.L44:
	leaq	32+_ZN8Polyfish12_GLOBAL__N_111EvaluateKXKE.lto_priv.0(%rip), %rbx
	leaq	__gcov4.__tcf_2(%rip), %rbp
	leaq	-32(%rbx), %rdi
.L45:
	movq	-16(%rbx), %rax
	subq	$16, %rbx
	addq	$1, 16+__gcov0.__tcf_2.lto_priv.1(%rip)
	movq	%rbx, %rcx
	movq	(%rax), %rax
	movq	%rbp, 8(%rsi)
	movq	%rax, (%rsi)
	call	*%rax
	cmpq	%rdi, %rbx
	jne	.L45
	addq	$1, 8+__gcov0.__tcf_2.lto_priv.1(%rip)
	addq	$40, %rsp
	popq	%rbx
	popq	%rsi
	popq	%rdi
	popq	%rbp
	ret
	.seh_endproc
	.p2align 4
	.globl	__tcf_3.lto_priv.2
	.def	__tcf_3.lto_priv.2;	.scl	2;	.type	32;	.endef
	.seh_proc	__tcf_3.lto_priv.2
__tcf_3.lto_priv.2:
	pushq	%rbp
	.seh_pushreg	%rbp
	pushq	%rdi
	.seh_pushreg	%rdi
	pushq	%rsi
	.seh_pushreg	%rsi
	pushq	%rbx
	.seh_pushreg	%rbx
	subq	$40, %rsp
	.seh_stackalloc	40
	.seh_endprologue
	movq	.refptr.__gcov_indirect_call(%rip), %rsi
	cmpq	$0, (%rsi)
	je	.L48
	leaq	__tcf_3.lto_priv.2(%rip), %rdx
	movl	$142342522, %ecx
	call	__gcov_indirect_call_profiler_v4
.L48:
	addq	$1, __gcov0.__tcf_3(%rip)
	cmpq	$0, __gcov7.__tcf_3(%rip)
	jne	.L49
	movq	.refptr.__gcov_time_profiler_counter(%rip), %rdx
	movq	(%rdx), %rax
	addq	$1, %rax
	movq	%rax, __gcov7.__tcf_3(%rip)
	movq	%rax, (%rdx)
.L49:
	leaq	32+_ZN8Polyfish12_GLOBAL__N_110ScaleKBPsKE.lto_priv.0(%rip), %rbx
	leaq	__gcov4.__tcf_3(%rip), %rbp
	leaq	-32(%rbx), %rdi
.L50:
	movq	-16(%rbx), %rax
	subq	$16, %rbx
	addq	$1, 16+__gcov0.__tcf_3(%rip)
	movq	%rbx, %rcx
	movq	(%rax), %rax
	movq	%rbp, 8(%rsi)
	movq	%rax, (%rsi)
	call	*%rax
	cmpq	%rdi, %rbx
	jne	.L50
	addq	$1, 8+__gcov0.__tcf_3(%rip)
	addq	$40, %rsp
	popq	%rbx
	popq	%rsi
	popq	%rdi
	popq	%rbp
	ret
	.seh_endproc
	.p2align 4
	.globl	__tcf_4.lto_priv.2
	.def	__tcf_4.lto_priv.2;	.scl	2;	.type	32;	.endef
	.seh_proc	__tcf_4.lto_priv.2
__tcf_4.lto_priv.2:
	pushq	%rbp
	.seh_pushreg	%rbp
	pushq	%rdi
	.seh_pushreg	%rdi
	pushq	%rsi
	.seh_pushreg	%rsi
	pushq	%rbx
	.seh_pushreg	%rbx
	subq	$40, %rsp
	.seh_stackalloc	40
	.seh_endprologue
	movq	.refptr.__gcov_indirect_call(%rip), %rsi
	cmpq	$0, (%rsi)
	je	.L53
	leaq	__tcf_4.lto_priv.2(%rip), %rdx
	movl	$1841190302, %ecx
	call	__gcov_indirect_call_profiler_v4
.L53:
	addq	$1, __gcov0.__tcf_4(%rip)
	cmpq	$0, __gcov7.__tcf_4(%rip)
	jne	.L54
	movq	.refptr.__gcov_time_profiler_counter(%rip), %rdx
	movq	(%rdx), %rax
	addq	$1, %rax
	movq	%rax, __gcov7.__tcf_4(%rip)
	movq	%rax, (%rdx)
.L54:
	leaq	32+_ZN8Polyfish12_GLOBAL__N_111ScaleKQKRPsE.lto_priv.0(%rip), %rbx
	leaq	__gcov4.__tcf_4(%rip), %rbp
	leaq	-32(%rbx), %rdi
.L55:
	movq	-16(%rbx), %rax
	subq	$16, %rbx
	addq	$1, 16+__gcov0.__tcf_4(%rip)
	movq	%rbx, %rcx
	movq	(%rax), %rax
	movq	%rbp, 8(%rsi)
	movq	%rax, (%rsi)
	call	*%rax
	cmpq	%rdi, %rbx
	jne	.L55
	addq	$1, 8+__gcov0.__tcf_4(%rip)
	addq	$40, %rsp
	popq	%rbx
	popq	%rsi
	popq	%rdi
	popq	%rbp
	ret
	.seh_endproc
	.p2align 4
	.globl	__tcf_5.lto_priv.2
	.def	__tcf_5.lto_priv.2;	.scl	2;	.type	32;	.endef
	.seh_proc	__tcf_5.lto_priv.2
__tcf_5.lto_priv.2:
	pushq	%rbp
	.seh_pushreg	%rbp
	pushq	%rdi
	.seh_pushreg	%rdi
	pushq	%rsi
	.seh_pushreg	%rsi
	pushq	%rbx
	.seh_pushreg	%rbx
	subq	$40, %rsp
	.seh_stackalloc	40
	.seh_endprologue
	movq	.refptr.__gcov_indirect_call(%rip), %rsi
	cmpq	$0, (%rsi)
	je	.L58
	leaq	__tcf_5.lto_priv.2(%rip), %rdx
	movl	$336777840, %ecx
	call	__gcov_indirect_call_profiler_v4
.L58:
	addq	$1, __gcov0.__tcf_5(%rip)
	cmpq	$0, __gcov7.__tcf_5(%rip)
	jne	.L59
	movq	.refptr.__gcov_time_profiler_counter(%rip), %rdx
	movq	(%rdx), %rax
	addq	$1, %rax
	movq	%rax, __gcov7.__tcf_5(%rip)
	movq	%rax, (%rdx)
.L59:
	leaq	32+_ZN8Polyfish12_GLOBAL__N_19ScaleKPsKE.lto_priv.0(%rip), %rbx
	leaq	__gcov4.__tcf_5(%rip), %rbp
	leaq	-32(%rbx), %rdi
.L60:
	movq	-16(%rbx), %rax
	subq	$16, %rbx
	addq	$1, 16+__gcov0.__tcf_5(%rip)
	movq	%rbx, %rcx
	movq	(%rax), %rax
	movq	%rbp, 8(%rsi)
	movq	%rax, (%rsi)
	call	*%rax
	cmpq	%rdi, %rbx
	jne	.L60
	addq	$1, 8+__gcov0.__tcf_5(%rip)
	addq	$40, %rsp
	popq	%rbx
	popq	%rsi
	popq	%rdi
	popq	%rbp
	ret
	.seh_endproc
	.p2align 4
	.globl	__tcf_6.lto_priv.2
	.def	__tcf_6.lto_priv.2;	.scl	2;	.type	32;	.endef
	.seh_proc	__tcf_6.lto_priv.2
__tcf_6.lto_priv.2:
	pushq	%rbp
	.seh_pushreg	%rbp
	pushq	%rdi
	.seh_pushreg	%rdi
	pushq	%rsi
	.seh_pushreg	%rsi
	pushq	%rbx
	.seh_pushreg	%rbx
	subq	$40, %rsp
	.seh_stackalloc	40
	.seh_endprologue
	movq	.refptr.__gcov_indirect_call(%rip), %rsi
	cmpq	$0, (%rsi)
	je	.L63
	leaq	__tcf_6.lto_priv.2(%rip), %rdx
	movl	$438716405, %ecx
	call	__gcov_indirect_call_profiler_v4
.L63:
	addq	$1, __gcov0.__tcf_6(%rip)
	cmpq	$0, __gcov7.__tcf_6(%rip)
	jne	.L64
	movq	.refptr.__gcov_time_profiler_counter(%rip), %rdx
	movq	(%rdx), %rax
	addq	$1, %rax
	movq	%rax, __gcov7.__tcf_6(%rip)
	movq	%rax, (%rdx)
.L64:
	leaq	32+_ZN8Polyfish12_GLOBAL__N_19ScaleKPKPE.lto_priv.0(%rip), %rbx
	leaq	__gcov4.__tcf_6(%rip), %rbp
	leaq	-32(%rbx), %rdi
.L65:
	movq	-16(%rbx), %rax
	subq	$16, %rbx
	addq	$1, 16+__gcov0.__tcf_6(%rip)
	movq	%rbx, %rcx
	movq	(%rax), %rax
	movq	%rbp, 8(%rsi)
	movq	%rax, (%rsi)
	call	*%rax
	cmpq	%rdi, %rbx
	jne	.L65
	addq	$1, 8+__gcov0.__tcf_6(%rip)
	addq	$40, %rsp
	popq	%rbx
	popq	%rsi
	popq	%rdi
	popq	%rbp
	ret
	.seh_endproc
	.p2align 4
	.globl	_ZSt3decRSt8ios_base
	.def	_ZSt3decRSt8ios_base;	.scl	2;	.type	32;	.endef
	.seh_proc	_ZSt3decRSt8ios_base
_ZSt3decRSt8ios_base:
	pushq	%r12
	.seh_pushreg	%r12
	subq	$32, %rsp
	.seh_stackalloc	32
	.seh_endprologue
	movq	.refptr.__gcov_indirect_call(%rip), %rax
	cmpq	$0, (%rax)
	movq	%rcx, %r12
	je	.L68
	leaq	_ZSt3decRSt8ios_base(%rip), %rdx
	movl	$1128414714, %ecx
	call	__gcov_indirect_call_profiler_v4
.L68:
	addq	$1, __gcov0._ZSt3decRSt8ios_base.lto_priv.0(%rip)
	cmpq	$0, __gcov7._ZSt3decRSt8ios_base.lto_priv.0(%rip)
	jne	.L69
	movq	.refptr.__gcov_time_profiler_counter(%rip), %rdx
	movq	(%rdx), %rax
	addq	$1, %rax
	movq	%rax, __gcov7._ZSt3decRSt8ios_base.lto_priv.0(%rip)
	movq	%rax, (%rdx)
.L69:
	movl	24(%r12), %eax
	andl	$-75, %eax
	orl	$2, %eax
	movl	%eax, 24(%r12)
	movq	%r12, %rax
	addq	$32, %rsp
	popq	%r12
	ret
	.seh_endproc
	.p2align 4
	.globl	_ZSt3hexRSt8ios_base
	.def	_ZSt3hexRSt8ios_base;	.scl	2;	.type	32;	.endef
	.seh_proc	_ZSt3hexRSt8ios_base
_ZSt3hexRSt8ios_base:
	pushq	%r12
	.seh_pushreg	%r12
	subq	$32, %rsp
	.seh_stackalloc	32
	.seh_endprologue
	movq	.refptr.__gcov_indirect_call(%rip), %rax
	cmpq	$0, (%rax)
	movq	%rcx, %r12
	je	.L71
	leaq	_ZSt3hexRSt8ios_base(%rip), %rdx
	movl	$381460892, %ecx
	call	__gcov_indirect_call_profiler_v4
.L71:
	addq	$1, __gcov0._ZSt3hexRSt8ios_base.lto_priv.0(%rip)
	cmpq	$0, __gcov7._ZSt3hexRSt8ios_base.lto_priv.0(%rip)
	jne	.L72
	movq	.refptr.__gcov_time_profiler_counter(%rip), %rdx
	movq	(%rdx), %rax
	addq	$1, %rax
	movq	%rax, __gcov7._ZSt3hexRSt8ios_base.lto_priv.0(%rip)
	movq	%rax, (%rdx)
.L72:
	movl	24(%r12), %eax
	andl	$-75, %eax
	orl	$8, %eax
	movl	%eax, 24(%r12)
	movq	%r12, %rax
	addq	$32, %rsp
	popq	%r12
	ret
	.seh_endproc
	.align 2
	.p2align 4
	.def	_ZN8Polyfish12_GLOBAL__N_13Tie4syncEv;	.scl	3;	.type	32;	.endef
	.seh_proc	_ZN8Polyfish12_GLOBAL__N_13Tie4syncEv
_ZN8Polyfish12_GLOBAL__N_13Tie4syncEv:
	pushq	%rsi
	.seh_pushreg	%rsi
	pushq	%rbx
	.seh_pushreg	%rbx
	subq	$40, %rsp
	.seh_stackalloc	40
	.seh_endprologue
	movq	.refptr.__gcov_indirect_call(%rip), %rbx
	cmpq	$0, (%rbx)
	movq	%rcx, %rsi
	je	.L74
	leaq	_ZN8Polyfish12_GLOBAL__N_13Tie4syncEv(%rip), %rdx
	movl	$2093052094, %ecx
	call	__gcov_indirect_call_profiler_v4
.L74:
	addq	$1, __gcov0._ZN8Polyfish12_GLOBAL__N_13Tie4syncEv.lto_priv.0(%rip)
	cmpq	$0, __gcov7._ZN8Polyfish12_GLOBAL__N_13Tie4syncEv.lto_priv.0(%rip)
	jne	.L75
	movq	.refptr.__gcov_time_profiler_counter(%rip), %rdx
	movq	(%rdx), %rax
	addq	$1, %rax
	movq	%rax, __gcov7._ZN8Polyfish12_GLOBAL__N_13Tie4syncEv.lto_priv.0(%rip)
	movq	%rax, (%rdx)
.L75:
	movq	72(%rsi), %rcx
	leaq	__gcov4._ZN8Polyfish12_GLOBAL__N_13Tie4syncEv.lto_priv.0(%rip), %rdx
	movq	(%rcx), %rax
	movq	%rdx, 8(%rbx)
	movq	48(%rax), %rax
	movq	%rax, (%rbx)
	call	*%rax
	movq	64(%rsi), %rcx
	leaq	24+__gcov4._ZN8Polyfish12_GLOBAL__N_13Tie4syncEv.lto_priv.0(%rip), %rsi
	addq	$1, 8+__gcov0._ZN8Polyfish12_GLOBAL__N_13Tie4syncEv.lto_priv.0(%rip)
	movq	(%rcx), %rax
	movq	%rsi, 8(%rbx)
	movq	48(%rax), %rax
	movq	%rax, (%rbx)
	call	*%rax
	addq	$1, 16+__gcov0._ZN8Polyfish12_GLOBAL__N_13Tie4syncEv.lto_priv.0(%rip)
	addq	$40, %rsp
	popq	%rbx
	popq	%rsi
	ret
	.seh_endproc
	.align 2
	.p2align 4
	.globl	_ZNSt8_Rb_treeINSt7__cxx1112basic_stringIcSt11char_traitsIcESaIcEEESt4pairIKS5_N8Polyfish3UCI6OptionEESt10_Select1stISB_ENS9_19CaseInsensitiveLessESaISB_EE11lower_boundERS7_
	.def	_ZNSt8_Rb_treeINSt7__cxx1112basic_stringIcSt11char_traitsIcESaIcEEESt4pairIKS5_N8Polyfish3UCI6OptionEESt10_Select1stISB_ENS9_19CaseInsensitiveLessESaISB_EE11lower_boundERS7_;	.scl	2;	.type	32;	.endef
	.seh_proc	_ZNSt8_Rb_treeINSt7__cxx1112basic_stringIcSt11char_traitsIcESaIcEEESt4pairIKS5_N8Polyfish3UCI6OptionEESt10_Select1stISB_ENS9_19CaseInsensitiveLessESaISB_EE11lower_boundERS7_
_ZNSt8_Rb_treeINSt7__cxx1112basic_stringIcSt11char_traitsIcESaIcEEESt4pairIKS5_N8Polyfish3UCI6OptionEESt10_Select1stISB_ENS9_19CaseInsensitiveLessESaISB_EE11lower_boundERS7_:
	pushq	%r15
	.seh_pushreg	%r15
	pushq	%r14
	.seh_pushreg	%r14
	pushq	%r13
	.seh_pushreg	%r13
	pushq	%r12
	.seh_pushreg	%r12
	pushq	%rbp
	.seh_pushreg	%rbp
	pushq	%rdi
	.seh_pushreg	%rdi
	pushq	%rsi
	.seh_pushreg	%rsi
	pushq	%rbx
	.seh_pushreg	%rbx
	subq	$56, %rsp
	.seh_stackalloc	56
	.seh_endprologue
	movq	.refptr.__gcov_indirect_call(%rip), %r13
	cmpq	$0, 0(%r13)
	movq	%rcx, %rbx
	movq	%rdx, %rdi
	jne	.L102
.L77:
	addq	$1, __gcov0._ZNSt8_Rb_treeINSt7__cxx1112basic_stringIcSt11char_traitsIcESaIcEEESt4pairIKS5_N8Polyfish3UCI6OptionEESt10_Select1stISB_ENS9_19CaseInsensitiveLessESaISB_EE11lower_boundERS7_.lto_priv.0(%rip)
	cmpq	$0, __gcov7._ZNSt8_Rb_treeINSt7__cxx1112basic_stringIcSt11char_traitsIcESaIcEEESt4pairIKS5_N8Polyfish3UCI6OptionEESt10_Select1stISB_ENS9_19CaseInsensitiveLessESaISB_EE11lower_boundERS7_.lto_priv.0(%rip)
	je	.L103
.L78:
	leaq	8(%rbx), %r12
	movq	16(%rbx), %rbx
	testq	%rbx, %rbx
	je	.L79
	leaq	__gcov0._ZNK8Polyfish3UCI19CaseInsensitiveLessclERKNSt7__cxx1112basic_stringIcSt11char_traitsIcESaIcEEES9_.lto_priv.0(%rip), %rsi
	leaq	__gcov7._ZNK8Polyfish3UCI19CaseInsensitiveLessclERKNSt7__cxx1112basic_stringIcSt11char_traitsIcESaIcEEES9_.lto_priv.0(%rip), %rbp
	.p2align 4,,10
	.p2align 3
.L85:
	movq	0(%r13), %r14
	testq	%r14, %r14
	jne	.L104
.L80:
	addq	$1, (%rsi)
	cmpq	$0, 0(%rbp)
	je	.L105
.L81:
	movq	(%rdi), %r15
	movq	32(%rbx), %rcx
	movq	40(%rbx), %rdx
	movq	8(%rdi), %r9
	movq	%r15, %r8
	addq	%rcx, %rdx
	addq	%r15, %r9
	call	_ZSt30__lexicographical_compare_implIN9__gnu_cxx17__normal_iteratorIPKcNSt7__cxx1112basic_stringIcSt11char_traitsIcESaIcEEEEESA_NS0_5__ops15_Iter_comp_iterIZNK8Polyfish3UCI19CaseInsensitiveLessclERKS9_SH_EUlccE_EEEbT_SK_T0_SL_T1_.constprop.0
	movq	16(%rbx), %rcx
	movq	24(%rbx), %rdx
	testb	%al, %al
	jne	.L82
	movq	%rbx, %r12
	movq	%rcx, %rbx
	addq	$1, 8+__gcov0._ZNSt8_Rb_treeINSt7__cxx1112basic_stringIcSt11char_traitsIcESaIcEEESt4pairIKS5_N8Polyfish3UCI6OptionEESt10_Select1stISB_ENS9_19CaseInsensitiveLessESaISB_EE11lower_boundERS7_.lto_priv.0(%rip)
	testq	%rbx, %rbx
	je	.L79
.L107:
	testq	%r14, %r14
	jne	.L85
.L90:
	addq	$1, (%rsi)
	cmpq	$0, 0(%rbp)
	je	.L106
.L86:
	movq	32(%rbx), %rcx
	movq	40(%rbx), %rdx
	movq	%r15, %r8
	movq	8(%rdi), %r9
	addq	%rcx, %rdx
	addq	%r15, %r9
	call	_ZSt30__lexicographical_compare_implIN9__gnu_cxx17__normal_iteratorIPKcNSt7__cxx1112basic_stringIcSt11char_traitsIcESaIcEEEEESA_NS0_5__ops15_Iter_comp_iterIZNK8Polyfish3UCI19CaseInsensitiveLessclERKS9_SH_EUlccE_EEEbT_SK_T0_SL_T1_.constprop.0
	movq	16(%rbx), %rdx
	movq	24(%rbx), %rcx
	testb	%al, %al
	jne	.L87
	addq	$1, 8+__gcov0._ZNSt8_Rb_treeINSt7__cxx1112basic_stringIcSt11char_traitsIcESaIcEEESt4pairIKS5_N8Polyfish3UCI6OptionEESt10_Select1stISB_ENS9_19CaseInsensitiveLessESaISB_EE11lower_boundERS7_.lto_priv.0(%rip)
	movq	%rbx, %r12
	testq	%rdx, %rdx
	je	.L79
	addq	$1, (%rsi)
	cmpq	$0, 0(%rbp)
	movq	%rdx, %rbx
	jne	.L86
.L106:
	movq	.refptr.__gcov_time_profiler_counter(%rip), %rax
	movq	.refptr.__gcov_time_profiler_counter(%rip), %rcx
	movq	(%rax), %rax
	movq	%rax, 40(%rsp)
	addq	$1, %rax
	movq	%rax, 0(%rbp)
	movq	%rax, (%rcx)
	jmp	.L86
	.p2align 4,,10
	.p2align 3
.L87:
	addq	$1, 16+__gcov0._ZNSt8_Rb_treeINSt7__cxx1112basic_stringIcSt11char_traitsIcESaIcEEESt4pairIKS5_N8Polyfish3UCI6OptionEESt10_Select1stISB_ENS9_19CaseInsensitiveLessESaISB_EE11lower_boundERS7_.lto_priv.0(%rip)
	testq	%rcx, %rcx
	je	.L79
	movq	%rcx, %rbx
	jmp	.L90
	.p2align 4,,10
	.p2align 3
.L82:
	movq	%rdx, %rbx
	addq	$1, 16+__gcov0._ZNSt8_Rb_treeINSt7__cxx1112basic_stringIcSt11char_traitsIcESaIcEEESt4pairIKS5_N8Polyfish3UCI6OptionEESt10_Select1stISB_ENS9_19CaseInsensitiveLessESaISB_EE11lower_boundERS7_.lto_priv.0(%rip)
	testq	%rbx, %rbx
	jne	.L107
.L79:
	addq	$1, 24+__gcov0._ZNSt8_Rb_treeINSt7__cxx1112basic_stringIcSt11char_traitsIcESaIcEEESt4pairIKS5_N8Polyfish3UCI6OptionEESt10_Select1stISB_ENS9_19CaseInsensitiveLessESaISB_EE11lower_boundERS7_.lto_priv.0(%rip)
	movq	%r12, %rax
	addq	$56, %rsp
	popq	%rbx
	popq	%rsi
	popq	%rdi
	popq	%rbp
	popq	%r12
	popq	%r13
	popq	%r14
	popq	%r15
	ret
	.p2align 4,,10
	.p2align 3
.L105:
	movq	.refptr.__gcov_time_profiler_counter(%rip), %rax
	movq	.refptr.__gcov_time_profiler_counter(%rip), %rcx
	movq	(%rax), %rax
	movq	%rax, 40(%rsp)
	addq	$1, %rax
	movq	%rax, 0(%rbp)
	movq	%rax, (%rcx)
	jmp	.L81
	.p2align 4,,10
	.p2align 3
.L104:
	movq	.refptr._ZNK8Polyfish3UCI19CaseInsensitiveLessclERKNSt7__cxx1112basic_stringIcSt11char_traitsIcESaIcEEES9_(%rip), %rdx
	movl	$1359473883, %ecx
	call	__gcov_indirect_call_profiler_v4
	jmp	.L80
	.p2align 4,,10
	.p2align 3
.L102:
	leaq	_ZNSt8_Rb_treeINSt7__cxx1112basic_stringIcSt11char_traitsIcESaIcEEESt4pairIKS5_N8Polyfish3UCI6OptionEESt10_Select1stISB_ENS9_19CaseInsensitiveLessESaISB_EE11lower_boundERS7_(%rip), %rdx
	movl	$1450133761, %ecx
	call	__gcov_indirect_call_profiler_v4
	jmp	.L77
	.p2align 4,,10
	.p2align 3
.L103:
	movq	.refptr.__gcov_time_profiler_counter(%rip), %rdx
	movq	(%rdx), %rax
	addq	$1, %rax
	movq	%rax, __gcov7._ZNSt8_Rb_treeINSt7__cxx1112basic_stringIcSt11char_traitsIcESaIcEEESt4pairIKS5_N8Polyfish3UCI6OptionEESt10_Select1stISB_ENS9_19CaseInsensitiveLessESaISB_EE11lower_boundERS7_.lto_priv.0(%rip)
	movq	%rax, (%rdx)
	jmp	.L78
	.seh_endproc
	.p2align 4
	.globl	_ZStplIcSt11char_traitsIcESaIcEENSt7__cxx1112basic_stringIT_T0_T1_EERKS8_SA_
	.def	_ZStplIcSt11char_traitsIcESaIcEENSt7__cxx1112basic_stringIT_T0_T1_EERKS8_SA_;	.scl	2;	.type	32;	.endef
	.seh_proc	_ZStplIcSt11char_traitsIcESaIcEENSt7__cxx1112basic_stringIT_T0_T1_EERKS8_SA_
_ZStplIcSt11char_traitsIcESaIcEENSt7__cxx1112basic_stringIT_T0_T1_EERKS8_SA_:
	pushq	%r12
	.seh_pushreg	%r12
	pushq	%rsi
	.seh_pushreg	%rsi
	pushq	%rbx
	.seh_pushreg	%rbx
	subq	$32, %rsp
	.seh_stackalloc	32
	.seh_endprologue
	movq	.refptr.__gcov_indirect_call(%rip), %rax
	cmpq	$0, (%rax)
	movq	%rcx, %r12
	movq	%rdx, %rsi
	movq	%r8, %rbx
	je	.L109
	leaq	_ZStplIcSt11char_traitsIcESaIcEENSt7__cxx1112basic_stringIT_T0_T1_EERKS8_SA_(%rip), %rdx
	movl	$1435652567, %ecx
	call	__gcov_indirect_call_profiler_v4
.L109:
	addq	$1, __gcov0._ZStplIcSt11char_traitsIcESaIcEENSt7__cxx1112basic_stringIT_T0_T1_EERKS8_SA_(%rip)
	cmpq	$0, __gcov7._ZStplIcSt11char_traitsIcESaIcEENSt7__cxx1112basic_stringIT_T0_T1_EERKS8_SA_(%rip)
	jne	.L110
	movq	.refptr.__gcov_time_profiler_counter(%rip), %rdx
	movq	(%rdx), %rax
	addq	$1, %rax
	movq	%rax, __gcov7._ZStplIcSt11char_traitsIcESaIcEENSt7__cxx1112basic_stringIT_T0_T1_EERKS8_SA_(%rip)
	movq	%rax, (%rdx)
.L110:
	leaq	16(%r12), %rax
	movq	8(%rsi), %r8
	movq	%r12, %rcx
	movq	%rax, (%r12)
	movq	(%rsi), %rdx
	addq	%rdx, %r8
	call	_ZNSt7__cxx1112basic_stringIcSt11char_traitsIcESaIcEE12_M_constructIPcEEvT_S7_St20forward_iterator_tag.constprop.0
	movq	8(%rbx), %r8
	movq	(%rbx), %rdx
	movq	%r12, %rcx
	addq	$1, 8+__gcov0._ZStplIcSt11char_traitsIcESaIcEENSt7__cxx1112basic_stringIT_T0_T1_EERKS8_SA_(%rip)
	call	_ZNSt7__cxx1112basic_stringIcSt11char_traitsIcESaIcEE9_M_appendEPKcy
	addq	$1, 16+__gcov0._ZStplIcSt11char_traitsIcESaIcEENSt7__cxx1112basic_stringIT_T0_T1_EERKS8_SA_(%rip)
	movq	%r12, %rax
	addq	$32, %rsp
	popq	%rbx
	popq	%rsi
	popq	%r12
	ret
	.seh_endproc
	.align 2
	.p2align 4
	.globl	_ZZN8Polyfish4Eval4NNUE4initEvEN12MemoryBufferD2Ev.lto_priv.0
	.def	_ZZN8Polyfish4Eval4NNUE4initEvEN12MemoryBufferD2Ev.lto_priv.0;	.scl	2;	.type	32;	.endef
	.seh_proc	_ZZN8Polyfish4Eval4NNUE4initEvEN12MemoryBufferD2Ev.lto_priv.0
_ZZN8Polyfish4Eval4NNUE4initEvEN12MemoryBufferD2Ev.lto_priv.0:
	pushq	%rbx
	.seh_pushreg	%rbx
	subq	$32, %rsp
	.seh_stackalloc	32
	.seh_endprologue
	movq	.refptr.__gcov_indirect_call(%rip), %rax
	cmpq	$0, (%rax)
	movq	%rcx, %rbx
	je	.L112
	leaq	_ZZN8Polyfish4Eval4NNUE4initEvEN12MemoryBufferD2Ev.lto_priv.0(%rip), %rdx
	movl	$506027006, %ecx
	call	__gcov_indirect_call_profiler_v4
.L112:
	addq	$1, __gcov0._ZZN8Polyfish4Eval4NNUE4initEvEN12MemoryBufferD2Ev(%rip)
	cmpq	$0, __gcov7._ZZN8Polyfish4Eval4NNUE4initEvEN12MemoryBufferD2Ev(%rip)
	jne	.L113
	movq	.refptr.__gcov_time_profiler_counter(%rip), %rdx
	movq	(%rdx), %rax
	addq	$1, %rax
	movq	%rax, __gcov7._ZZN8Polyfish4Eval4NNUE4initEvEN12MemoryBufferD2Ev(%rip)
	movq	%rax, (%rdx)
.L113:
	movq	.refptr._ZTVSt15basic_streambufIcSt11char_traitsIcEE(%rip), %rax
	leaq	56(%rbx), %rcx
	addq	$16, %rax
	movq	%rax, (%rbx)
	call	_ZNSt6localeD1Ev
	addq	$1, 8+__gcov0._ZZN8Polyfish4Eval4NNUE4initEvEN12MemoryBufferD2Ev(%rip)
	addq	$32, %rsp
	popq	%rbx
	ret
	.seh_endproc
	.globl	_ZZN8Polyfish4Eval4NNUE4initEvEN12MemoryBufferD1Ev.lto_priv.0
	.def	_ZZN8Polyfish4Eval4NNUE4initEvEN12MemoryBufferD1Ev.lto_priv.0;	.scl	2;	.type	32;	.endef
	.set	_ZZN8Polyfish4Eval4NNUE4initEvEN12MemoryBufferD1Ev.lto_priv.0,_ZZN8Polyfish4Eval4NNUE4initEvEN12MemoryBufferD2Ev.lto_priv.0
	.align 2
	.p2align 4
	.globl	_ZNSt7__cxx1115basic_stringbufIcSt11char_traitsIcESaIcEED1Ev
	.def	_ZNSt7__cxx1115basic_stringbufIcSt11char_traitsIcESaIcEED1Ev;	.scl	2;	.type	32;	.endef
	.seh_proc	_ZNSt7__cxx1115basic_stringbufIcSt11char_traitsIcESaIcEED1Ev
_ZNSt7__cxx1115basic_stringbufIcSt11char_traitsIcESaIcEED1Ev:
	pushq	%rsi
	.seh_pushreg	%rsi
	pushq	%rbx
	.seh_pushreg	%rbx
	subq	$40, %rsp
	.seh_stackalloc	40
	.seh_endprologue
	movq	.refptr.__gcov_indirect_call(%rip), %rax
	cmpq	$0, (%rax)
	movq	%rcx, %rbx
	je	.L115
	leaq	_ZNSt7__cxx1115basic_stringbufIcSt11char_traitsIcESaIcEED1Ev(%rip), %rdx
	movl	$130384771, %ecx
	call	__gcov_indirect_call_profiler_v4
.L115:
	movq	.refptr.__gcov7._ZNSt7__cxx1115basic_stringbufIcSt11char_traitsIcESaIcEED1Ev.lto_priv.0(%rip), %rcx
	cmpq	$0, (%rcx)
	jne	.L116
	movq	.refptr.__gcov_time_profiler_counter(%rip), %rdx
	movq	(%rdx), %rax
	addq	$1, %rax
	movq	%rax, (%rcx)
	movq	%rax, (%rdx)
.L116:
	movq	.refptr._ZTVNSt7__cxx1115basic_stringbufIcSt11char_traitsIcESaIcEEE(%rip), %rax
	movq	72(%rbx), %rcx
	movq	.refptr.__gcov0._ZNSt7__cxx1115basic_stringbufIcSt11char_traitsIcESaIcEED1Ev.lto_priv.0(%rip), %rsi
	addq	$16, %rax
	movq	%rax, (%rbx)
	leaq	88(%rbx), %rax
	cmpq	%rax, %rcx
	je	.L119
	addq	$1, (%rsi)
	movq	88(%rbx), %rax
	leaq	1(%rax), %rdx
	call	_ZdlPvy
	addq	$1, 16(%rsi)
.L118:
	movq	.refptr._ZTVSt15basic_streambufIcSt11char_traitsIcEE(%rip), %rax
	leaq	56(%rbx), %rcx
	addq	$16, %rax
	movq	%rax, (%rbx)
	call	_ZNSt6localeD1Ev
	addq	$1, 24(%rsi)
	addq	$40, %rsp
	popq	%rbx
	popq	%rsi
	ret
	.p2align 4,,10
	.p2align 3
.L119:
	addq	$1, 8(%rsi)
	jmp	.L118
	.seh_endproc
	.align 2
	.p2align 4
	.globl	_ZN8Polyfish3UCI6OptionD1Ev
	.def	_ZN8Polyfish3UCI6OptionD1Ev;	.scl	2;	.type	32;	.endef
	.seh_proc	_ZN8Polyfish3UCI6OptionD1Ev
_ZN8Polyfish3UCI6OptionD1Ev:
	pushq	%rbx
	.seh_pushreg	%rbx
	subq	$32, %rsp
	.seh_stackalloc	32
	.seh_endprologue
	movq	.refptr.__gcov_indirect_call(%rip), %rax
	cmpq	$0, (%rax)
	movq	%rcx, %rbx
	je	.L121
	leaq	_ZN8Polyfish3UCI6OptionD1Ev(%rip), %rdx
	movl	$37319833, %ecx
	call	__gcov_indirect_call_profiler_v4
.L121:
	cmpq	$0, __gcov7._ZN8Polyfish3UCI6OptionD1Ev.lto_priv.0(%rip)
	jne	.L122
	movq	.refptr.__gcov_time_profiler_counter(%rip), %rdx
	movq	(%rdx), %rax
	addq	$1, %rax
	movq	%rax, __gcov7._ZN8Polyfish3UCI6OptionD1Ev.lto_priv.0(%rip)
	movq	%rax, (%rdx)
.L122:
	movq	64(%rbx), %rcx
	leaq	80(%rbx), %rax
	cmpq	%rax, %rcx
	je	.L128
	movq	80(%rbx), %rax
	addq	$1, __gcov0._ZN8Polyfish3UCI6OptionD1Ev.lto_priv.0(%rip)
	leaq	1(%rax), %rdx
	call	_ZdlPvy
	addq	$1, 16+__gcov0._ZN8Polyfish3UCI6OptionD1Ev.lto_priv.0(%rip)
.L124:
	movq	32(%rbx), %rcx
	leaq	48(%rbx), %rax
	cmpq	%rax, %rcx
	je	.L125
	movq	48(%rbx), %rax
	addq	$1, 24+__gcov0._ZN8Polyfish3UCI6OptionD1Ev.lto_priv.0(%rip)
	leaq	1(%rax), %rdx
	call	_ZdlPvy
	addq	$1, 32+__gcov0._ZN8Polyfish3UCI6OptionD1Ev.lto_priv.0(%rip)
.L125:
	movq	(%rbx), %rcx
	leaq	16(%rbx), %rax
	cmpq	%rax, %rcx
	je	.L127
	movq	16(%rbx), %rdx
	addq	$1, 40+__gcov0._ZN8Polyfish3UCI6OptionD1Ev.lto_priv.0(%rip)
	addq	$1, %rdx
	call	_ZdlPvy
	addq	$1, 48+__gcov0._ZN8Polyfish3UCI6OptionD1Ev.lto_priv.0(%rip)
.L127:
	addq	$32, %rsp
	popq	%rbx
	ret
	.p2align 4,,10
	.p2align 3
.L128:
	addq	$1, 8+__gcov0._ZN8Polyfish3UCI6OptionD1Ev.lto_priv.0(%rip)
	jmp	.L124
	.seh_endproc
	.align 2
	.p2align 4
	.globl	_ZNSt4pairIKNSt7__cxx1112basic_stringIcSt11char_traitsIcESaIcEEEN8Polyfish3UCI6OptionEED1Ev
	.def	_ZNSt4pairIKNSt7__cxx1112basic_stringIcSt11char_traitsIcESaIcEEEN8Polyfish3UCI6OptionEED1Ev;	.scl	2;	.type	32;	.endef
	.seh_proc	_ZNSt4pairIKNSt7__cxx1112basic_stringIcSt11char_traitsIcESaIcEEEN8Polyfish3UCI6OptionEED1Ev
_ZNSt4pairIKNSt7__cxx1112basic_stringIcSt11char_traitsIcESaIcEEEN8Polyfish3UCI6OptionEED1Ev:
	pushq	%rsi
	.seh_pushreg	%rsi
	pushq	%rbx
	.seh_pushreg	%rbx
	subq	$40, %rsp
	.seh_stackalloc	40
	.seh_endprologue
	movq	.refptr.__gcov_indirect_call(%rip), %rsi
	movq	(%rsi), %rax
	movq	%rcx, %rbx
	testq	%rax, %rax
	jne	.L145
	addq	$1, __gcov0._ZNSt4pairIKNSt7__cxx1112basic_stringIcSt11char_traitsIcESaIcEEEN8Polyfish3UCI6OptionEED1Ev.lto_priv.0(%rip)
	cmpq	$0, __gcov7._ZNSt4pairIKNSt7__cxx1112basic_stringIcSt11char_traitsIcESaIcEEEN8Polyfish3UCI6OptionEED1Ev.lto_priv.0(%rip)
	je	.L140
.L132:
	cmpq	$0, __gcov7._ZN8Polyfish3UCI6OptionD1Ev.lto_priv.0(%rip)
	je	.L146
.L133:
	movq	96(%rbx), %rcx
	leaq	112(%rbx), %rax
	cmpq	%rax, %rcx
	je	.L147
	movq	112(%rbx), %rax
	addq	$1, __gcov0._ZN8Polyfish3UCI6OptionD1Ev.lto_priv.0(%rip)
	leaq	1(%rax), %rdx
	call	_ZdlPvy
	addq	$1, 16+__gcov0._ZN8Polyfish3UCI6OptionD1Ev.lto_priv.0(%rip)
.L135:
	movq	64(%rbx), %rcx
	leaq	80(%rbx), %rax
	cmpq	%rax, %rcx
	je	.L136
	movq	80(%rbx), %rax
	addq	$1, 24+__gcov0._ZN8Polyfish3UCI6OptionD1Ev.lto_priv.0(%rip)
	leaq	1(%rax), %rdx
	call	_ZdlPvy
	addq	$1, 32+__gcov0._ZN8Polyfish3UCI6OptionD1Ev.lto_priv.0(%rip)
.L136:
	movq	32(%rbx), %rcx
	leaq	48(%rbx), %rax
	cmpq	%rax, %rcx
	je	.L137
	movq	48(%rbx), %rax
	addq	$1, 40+__gcov0._ZN8Polyfish3UCI6OptionD1Ev.lto_priv.0(%rip)
	leaq	1(%rax), %rdx
	call	_ZdlPvy
	addq	$1, 48+__gcov0._ZN8Polyfish3UCI6OptionD1Ev.lto_priv.0(%rip)
.L137:
	movq	(%rbx), %rcx
	leaq	16(%rbx), %rax
	cmpq	%rax, %rcx
	je	.L148
	movq	16(%rbx), %rdx
	addq	$1, 8+__gcov0._ZNSt4pairIKNSt7__cxx1112basic_stringIcSt11char_traitsIcESaIcEEEN8Polyfish3UCI6OptionEED1Ev.lto_priv.0(%rip)
	addq	$1, %rdx
	call	_ZdlPvy
	addq	$1, 24+__gcov0._ZNSt4pairIKNSt7__cxx1112basic_stringIcSt11char_traitsIcESaIcEEEN8Polyfish3UCI6OptionEED1Ev.lto_priv.0(%rip)
	addq	$40, %rsp
	popq	%rbx
	popq	%rsi
	ret
	.p2align 4,,10
	.p2align 3
.L147:
	addq	$1, 8+__gcov0._ZN8Polyfish3UCI6OptionD1Ev.lto_priv.0(%rip)
	jmp	.L135
	.p2align 4,,10
	.p2align 3
.L148:
	addq	$1, 16+__gcov0._ZNSt4pairIKNSt7__cxx1112basic_stringIcSt11char_traitsIcESaIcEEEN8Polyfish3UCI6OptionEED1Ev.lto_priv.0(%rip)
	addq	$40, %rsp
	popq	%rbx
	popq	%rsi
	ret
	.p2align 4,,10
	.p2align 3
.L145:
	leaq	_ZNSt4pairIKNSt7__cxx1112basic_stringIcSt11char_traitsIcESaIcEEEN8Polyfish3UCI6OptionEED1Ev(%rip), %rdx
	movl	$248092306, %ecx
	call	__gcov_indirect_call_profiler_v4
	addq	$1, __gcov0._ZNSt4pairIKNSt7__cxx1112basic_stringIcSt11char_traitsIcESaIcEEEN8Polyfish3UCI6OptionEED1Ev.lto_priv.0(%rip)
	movq	(%rsi), %rax
	cmpq	$0, __gcov7._ZNSt4pairIKNSt7__cxx1112basic_stringIcSt11char_traitsIcESaIcEEEN8Polyfish3UCI6OptionEED1Ev.lto_priv.0(%rip)
	je	.L140
.L131:
	testq	%rax, %rax
	je	.L132
	leaq	_ZN8Polyfish3UCI6OptionD1Ev(%rip), %rdx
	movl	$37319833, %ecx
	call	__gcov_indirect_call_profiler_v4
	cmpq	$0, __gcov7._ZN8Polyfish3UCI6OptionD1Ev.lto_priv.0(%rip)
	jne	.L133
	.p2align 4,,10
	.p2align 3
.L146:
	movq	.refptr.__gcov_time_profiler_counter(%rip), %rdx
	movq	(%rdx), %rax
	addq	$1, %rax
	movq	%rax, __gcov7._ZN8Polyfish3UCI6OptionD1Ev.lto_priv.0(%rip)
	movq	%rax, (%rdx)
	jmp	.L133
	.p2align 4,,10
	.p2align 3
.L140:
	movq	.refptr.__gcov_time_profiler_counter(%rip), %rcx
	movq	(%rcx), %rsi
	leaq	1(%rsi), %rdx
	movq	%rdx, __gcov7._ZNSt4pairIKNSt7__cxx1112basic_stringIcSt11char_traitsIcESaIcEEEN8Polyfish3UCI6OptionEED1Ev.lto_priv.0(%rip)
	movq	%rdx, (%rcx)
	jmp	.L131
	.seh_endproc
	.align 2
	.p2align 4
	.globl	_ZZN8Polyfish4Eval4NNUE4initEvEN12MemoryBufferD0Ev.lto_priv.0
	.def	_ZZN8Polyfish4Eval4NNUE4initEvEN12MemoryBufferD0Ev.lto_priv.0;	.scl	2;	.type	32;	.endef
	.seh_proc	_ZZN8Polyfish4Eval4NNUE4initEvEN12MemoryBufferD0Ev.lto_priv.0
_ZZN8Polyfish4Eval4NNUE4initEvEN12MemoryBufferD0Ev.lto_priv.0:
	pushq	%r12
	.seh_pushreg	%r12
	subq	$32, %rsp
	.seh_stackalloc	32
	.seh_endprologue
	movq	.refptr.__gcov_indirect_call(%rip), %rax
	cmpq	$0, (%rax)
	movq	%rcx, %r12
	je	.L150
	leaq	_ZZN8Polyfish4Eval4NNUE4initEvEN12MemoryBufferD0Ev.lto_priv.0(%rip), %rdx
	movl	$1268836931, %ecx
	call	__gcov_indirect_call_profiler_v4
.L150:
	addq	$1, __gcov0._ZZN8Polyfish4Eval4NNUE4initEvEN12MemoryBufferD0Ev(%rip)
	cmpq	$0, __gcov7._ZZN8Polyfish4Eval4NNUE4initEvEN12MemoryBufferD0Ev(%rip)
	jne	.L151
	movq	.refptr.__gcov_time_profiler_counter(%rip), %rdx
	movq	(%rdx), %rax
	addq	$1, %rax
	movq	%rax, __gcov7._ZZN8Polyfish4Eval4NNUE4initEvEN12MemoryBufferD0Ev(%rip)
	movq	%rax, (%rdx)
.L151:
	movq	.refptr._ZTVSt15basic_streambufIcSt11char_traitsIcEE(%rip), %rax
	leaq	56(%r12), %rcx
	addq	$16, %rax
	movq	%rax, (%r12)
	call	_ZNSt6localeD1Ev
	movl	$64, %edx
	movq	%r12, %rcx
	addq	$1, 8+__gcov0._ZZN8Polyfish4Eval4NNUE4initEvEN12MemoryBufferD0Ev(%rip)
	call	_ZdlPvy
	addq	$1, 16+__gcov0._ZZN8Polyfish4Eval4NNUE4initEvEN12MemoryBufferD0Ev(%rip)
	addq	$32, %rsp
	popq	%r12
	ret
	.seh_endproc
	.p2align 4
	.globl	__tcf_2.lto_priv.0
	.def	__tcf_2.lto_priv.0;	.scl	2;	.type	32;	.endef
	.seh_proc	__tcf_2.lto_priv.0
__tcf_2.lto_priv.0:
	subq	$40, %rsp
	.seh_stackalloc	40
	.seh_endprologue
	movq	.refptr.__gcov_indirect_call(%rip), %rax
	cmpq	$0, (%rax)
	je	.L153
	leaq	__tcf_2.lto_priv.0(%rip), %rdx
	movl	$2140413279, %ecx
	call	__gcov_indirect_call_profiler_v4
.L153:
	cmpq	$0, __gcov7.__tcf_2.lto_priv.0(%rip)
	jne	.L154
	movq	.refptr.__gcov_time_profiler_counter(%rip), %rdx
	movq	(%rdx), %rax
	addq	$1, %rax
	movq	%rax, __gcov7.__tcf_2.lto_priv.0(%rip)
	movq	%rax, (%rdx)
.L154:
	movq	.refptr._ZN8Polyfish4Eval19currentEvalFileNameB5cxx11E(%rip), %rax
	movq	(%rax), %rcx
	leaq	16(%rax), %rdx
	cmpq	%rdx, %rcx
	je	.L158
	movq	16(%rax), %rdx
	addq	$1, __gcov0.__tcf_2.lto_priv.0(%rip)
	addq	$1, %rdx
	call	_ZdlPvy
	addq	$1, 16+__gcov0.__tcf_2.lto_priv.0(%rip)
	addq	$40, %rsp
	ret
	.p2align 4,,10
	.p2align 3
.L158:
	addq	$1, 8+__gcov0.__tcf_2.lto_priv.0(%rip)
	addq	$40, %rsp
	ret
	.seh_endproc
	.align 2
	.p2align 4
	.def	_ZNSt6vectorISt10unique_ptrIN8Polyfish4Tune9EntryBaseESt14default_deleteIS3_EESaIS6_EED1Ev;	.scl	3;	.type	32;	.endef
	.seh_proc	_ZNSt6vectorISt10unique_ptrIN8Polyfish4Tune9EntryBaseESt14default_deleteIS3_EESaIS6_EED1Ev
_ZNSt6vectorISt10unique_ptrIN8Polyfish4Tune9EntryBaseESt14default_deleteIS3_EESaIS6_EED1Ev:
	pushq	%r12
	.seh_pushreg	%r12
	pushq	%rbp
	.seh_pushreg	%rbp
	pushq	%rdi
	.seh_pushreg	%rdi
	pushq	%rsi
	.seh_pushreg	%rsi
	pushq	%rbx
	.seh_pushreg	%rbx
	subq	$32, %rsp
	.seh_stackalloc	32
	.seh_endprologue
	movq	.refptr.__gcov_indirect_call(%rip), %rbx
	cmpq	$0, (%rbx)
	movq	%rcx, %rdi
	je	.L160
	leaq	_ZNSt6vectorISt10unique_ptrIN8Polyfish4Tune9EntryBaseESt14default_deleteIS3_EESaIS6_EED1Ev(%rip), %rdx
	movl	$239726677, %ecx
	call	__gcov_indirect_call_profiler_v4
.L160:
	addq	$1, __gcov0._ZNSt6vectorISt10unique_ptrIN8Polyfish4Tune9EntryBaseESt14default_deleteIS3_EESaIS6_EED1Ev(%rip)
	cmpq	$0, __gcov7._ZNSt6vectorISt10unique_ptrIN8Polyfish4Tune9EntryBaseESt14default_deleteIS3_EESaIS6_EED1Ev(%rip)
	jne	.L161
	movq	.refptr.__gcov_time_profiler_counter(%rip), %rdx
	movq	(%rdx), %rax
	addq	$1, %rax
	movq	%rax, __gcov7._ZNSt6vectorISt10unique_ptrIN8Polyfish4Tune9EntryBaseESt14default_deleteIS3_EESaIS6_EED1Ev(%rip)
	movq	%rax, (%rdx)
.L161:
	movq	8(%rdi), %rsi
	movq	(%rdi), %r12
	cmpq	%r12, %rsi
	je	.L162
	leaq	__gcov4._ZNSt6vectorISt10unique_ptrIN8Polyfish4Tune9EntryBaseESt14default_deleteIS3_EESaIS6_EED1Ev(%rip), %rbp
	.p2align 4,,10
	.p2align 3
.L166:
	movq	(%r12), %rcx
	testq	%rcx, %rcx
	je	.L170
	movq	(%rcx), %rax
	addq	$8, %r12
	addq	$1, 8+__gcov0._ZNSt6vectorISt10unique_ptrIN8Polyfish4Tune9EntryBaseESt14default_deleteIS3_EESaIS6_EED1Ev(%rip)
	movq	8(%rax), %rax
	movq	%rbp, 8(%rbx)
	movq	%rax, (%rbx)
	call	*%rax
	cmpq	%r12, %rsi
	jne	.L166
.L165:
	movq	(%rdi), %r12
.L162:
	movq	16(%rdi), %rdx
	testq	%r12, %r12
	je	.L171
	subq	%r12, %rdx
	movq	%r12, %rcx
	addq	$1, 24+__gcov0._ZNSt6vectorISt10unique_ptrIN8Polyfish4Tune9EntryBaseESt14default_deleteIS3_EESaIS6_EED1Ev(%rip)
	call	_ZdlPvy
	addq	$1, 40+__gcov0._ZNSt6vectorISt10unique_ptrIN8Polyfish4Tune9EntryBaseESt14default_deleteIS3_EESaIS6_EED1Ev(%rip)
	addq	$32, %rsp
	popq	%rbx
	popq	%rsi
	popq	%rdi
	popq	%rbp
	popq	%r12
	ret
	.p2align 4,,10
	.p2align 3
.L170:
	addq	$8, %r12
	addq	$1, 16+__gcov0._ZNSt6vectorISt10unique_ptrIN8Polyfish4Tune9EntryBaseESt14default_deleteIS3_EESaIS6_EED1Ev(%rip)
	cmpq	%r12, %rsi
	jne	.L166
	jmp	.L165
	.p2align 4,,10
	.p2align 3
.L171:
	addq	$1, 32+__gcov0._ZNSt6vectorISt10unique_ptrIN8Polyfish4Tune9EntryBaseESt14default_deleteIS3_EESaIS6_EED1Ev(%rip)
	addq	$32, %rsp
	popq	%rbx
	popq	%rsi
	popq	%rdi
	popq	%rbp
	popq	%r12
	ret
	.seh_endproc
	.p2align 4
	.def	__tcf_0;	.scl	3;	.type	32;	.endef
	.seh_proc	__tcf_0
__tcf_0:
	pushq	%r12
	.seh_pushreg	%r12
	pushq	%rdi
	.seh_pushreg	%rdi
	pushq	%rsi
	.seh_pushreg	%rsi
	pushq	%rbx
	.seh_pushreg	%rbx
	subq	$40, %rsp
	.seh_stackalloc	40
	.seh_endprologue
	movq	.refptr.__gcov_indirect_call(%rip), %rbx
	movq	(%rbx), %rax
	testq	%rax, %rax
	jne	.L190
	addq	$1, __gcov0.__tcf_0(%rip)
	cmpq	$0, __gcov7.__tcf_0(%rip)
	je	.L184
.L175:
	addq	$1, __gcov0._ZNSt6vectorISt10unique_ptrIN8Polyfish4Tune9EntryBaseESt14default_deleteIS3_EESaIS6_EED1Ev(%rip)
	cmpq	$0, __gcov7._ZNSt6vectorISt10unique_ptrIN8Polyfish4Tune9EntryBaseESt14default_deleteIS3_EESaIS6_EED1Ev(%rip)
	je	.L191
.L176:
	movq	8+_ZZN8Polyfish4Tune8instanceEvE1t(%rip), %rsi
	movq	_ZZN8Polyfish4Tune8instanceEvE1t(%rip), %r12
	cmpq	%r12, %rsi
	je	.L177
	leaq	__gcov4._ZNSt6vectorISt10unique_ptrIN8Polyfish4Tune9EntryBaseESt14default_deleteIS3_EESaIS6_EED1Ev(%rip), %rdi
	.p2align 4,,10
	.p2align 3
.L181:
	movq	(%r12), %rcx
	testq	%rcx, %rcx
	je	.L192
	movq	(%rcx), %rax
	addq	$8, %r12
	addq	$1, 8+__gcov0._ZNSt6vectorISt10unique_ptrIN8Polyfish4Tune9EntryBaseESt14default_deleteIS3_EESaIS6_EED1Ev(%rip)
	movq	8(%rax), %rax
	movq	%rdi, 8(%rbx)
	movq	%rax, (%rbx)
	call	*%rax
	cmpq	%r12, %rsi
	jne	.L181
.L180:
	movq	_ZZN8Polyfish4Tune8instanceEvE1t(%rip), %r12
.L177:
	movq	16+_ZZN8Polyfish4Tune8instanceEvE1t(%rip), %rdx
	testq	%r12, %r12
	je	.L193
	subq	%r12, %rdx
	movq	%r12, %rcx
	addq	$1, 24+__gcov0._ZNSt6vectorISt10unique_ptrIN8Polyfish4Tune9EntryBaseESt14default_deleteIS3_EESaIS6_EED1Ev(%rip)
	call	_ZdlPvy
	addq	$1, 40+__gcov0._ZNSt6vectorISt10unique_ptrIN8Polyfish4Tune9EntryBaseESt14default_deleteIS3_EESaIS6_EED1Ev(%rip)
.L183:
	addq	$1, 8+__gcov0.__tcf_0(%rip)
	addq	$40, %rsp
	popq	%rbx
	popq	%rsi
	popq	%rdi
	popq	%r12
	ret
	.p2align 4,,10
	.p2align 3
.L192:
	addq	$8, %r12
	addq	$1, 16+__gcov0._ZNSt6vectorISt10unique_ptrIN8Polyfish4Tune9EntryBaseESt14default_deleteIS3_EESaIS6_EED1Ev(%rip)
	cmpq	%r12, %rsi
	jne	.L181
	jmp	.L180
	.p2align 4,,10
	.p2align 3
.L193:
	addq	$1, 32+__gcov0._ZNSt6vectorISt10unique_ptrIN8Polyfish4Tune9EntryBaseESt14default_deleteIS3_EESaIS6_EED1Ev(%rip)
	jmp	.L183
	.p2align 4,,10
	.p2align 3
.L191:
	movq	.refptr.__gcov_time_profiler_counter(%rip), %rdx
	movq	(%rdx), %rax
	addq	$1, %rax
	movq	%rax, __gcov7._ZNSt6vectorISt10unique_ptrIN8Polyfish4Tune9EntryBaseESt14default_deleteIS3_EESaIS6_EED1Ev(%rip)
	movq	%rax, (%rdx)
	jmp	.L176
	.p2align 4,,10
	.p2align 3
.L190:
	leaq	__tcf_0(%rip), %rdx
	movl	$543163443, %ecx
	call	__gcov_indirect_call_profiler_v4
	addq	$1, __gcov0.__tcf_0(%rip)
	movq	(%rbx), %rax
	cmpq	$0, __gcov7.__tcf_0(%rip)
	je	.L184
.L174:
	testq	%rax, %rax
	je	.L175
	leaq	_ZNSt6vectorISt10unique_ptrIN8Polyfish4Tune9EntryBaseESt14default_deleteIS3_EESaIS6_EED1Ev(%rip), %rdx
	movl	$239726677, %ecx
	call	__gcov_indirect_call_profiler_v4
	jmp	.L175
	.p2align 4,,10
	.p2align 3
.L184:
	movq	.refptr.__gcov_time_profiler_counter(%rip), %rcx
	movq	(%rcx), %rdx
	addq	$1, %rdx
	movq	%rdx, __gcov7.__tcf_0(%rip)
	movq	%rdx, (%rcx)
	jmp	.L174
	.seh_endproc
	.align 2
	.p2align 4
	.def	_ZN8Polyfish7EndgameILNS_11EndgameCodeE21ENS_11ScaleFactorEED0Ev;	.scl	3;	.type	32;	.endef
	.seh_proc	_ZN8Polyfish7EndgameILNS_11EndgameCodeE21ENS_11ScaleFactorEED0Ev
_ZN8Polyfish7EndgameILNS_11EndgameCodeE21ENS_11ScaleFactorEED0Ev:
	pushq	%r12
	.seh_pushreg	%r12
	subq	$32, %rsp
	.seh_stackalloc	32
	.seh_endprologue
	movq	.refptr.__gcov_indirect_call(%rip), %rax
	cmpq	$0, (%rax)
	movq	%rcx, %r12
	je	.L195
	leaq	_ZN8Polyfish7EndgameILNS_11EndgameCodeE21ENS_11ScaleFactorEED0Ev(%rip), %rdx
	movl	$869648030, %ecx
	call	__gcov_indirect_call_profiler_v4
.L195:
	addq	$1, __gcov0._ZN8Polyfish7EndgameILNS_11EndgameCodeE21ENS_11ScaleFactorEED0Ev(%rip)
	cmpq	$0, __gcov7._ZN8Polyfish7EndgameILNS_11EndgameCodeE21ENS_11ScaleFactorEED0Ev(%rip)
	jne	.L196
	movq	.refptr.__gcov_time_profiler_counter(%rip), %rdx
	movq	(%rdx), %rax
	addq	$1, %rax
	movq	%rax, __gcov7._ZN8Polyfish7EndgameILNS_11EndgameCodeE21ENS_11ScaleFactorEED0Ev(%rip)
	movq	%rax, (%rdx)
.L196:
	movl	$16, %edx
	movq	%r12, %rcx
	call	_ZdlPvy
	addq	$1, 8+__gcov0._ZN8Polyfish7EndgameILNS_11EndgameCodeE21ENS_11ScaleFactorEED0Ev(%rip)
	addq	$32, %rsp
	popq	%r12
	ret
	.seh_endproc
	.align 2
	.p2align 4
	.def	_ZN8Polyfish7EndgameILNS_11EndgameCodeE17ENS_11ScaleFactorEED0Ev;	.scl	3;	.type	32;	.endef
	.seh_proc	_ZN8Polyfish7EndgameILNS_11EndgameCodeE17ENS_11ScaleFactorEED0Ev
_ZN8Polyfish7EndgameILNS_11EndgameCodeE17ENS_11ScaleFactorEED0Ev:
	pushq	%r12
	.seh_pushreg	%r12
	subq	$32, %rsp
	.seh_stackalloc	32
	.seh_endprologue
	movq	.refptr.__gcov_indirect_call(%rip), %rax
	cmpq	$0, (%rax)
	movq	%rcx, %r12
	je	.L198
	leaq	_ZN8Polyfish7EndgameILNS_11EndgameCodeE17ENS_11ScaleFactorEED0Ev(%rip), %rdx
	movl	$864812583, %ecx
	call	__gcov_indirect_call_profiler_v4
.L198:
	addq	$1, __gcov0._ZN8Polyfish7EndgameILNS_11EndgameCodeE17ENS_11ScaleFactorEED0Ev(%rip)
	cmpq	$0, __gcov7._ZN8Polyfish7EndgameILNS_11EndgameCodeE17ENS_11ScaleFactorEED0Ev(%rip)
	jne	.L199
	movq	.refptr.__gcov_time_profiler_counter(%rip), %rdx
	movq	(%rdx), %rax
	addq	$1, %rax
	movq	%rax, __gcov7._ZN8Polyfish7EndgameILNS_11EndgameCodeE17ENS_11ScaleFactorEED0Ev(%rip)
	movq	%rax, (%rdx)
.L199:
	movl	$16, %edx
	movq	%r12, %rcx
	call	_ZdlPvy
	addq	$1, 8+__gcov0._ZN8Polyfish7EndgameILNS_11EndgameCodeE17ENS_11ScaleFactorEED0Ev(%rip)
	addq	$32, %rsp
	popq	%r12
	ret
	.seh_endproc
	.align 2
	.p2align 4
	.def	_ZN8Polyfish7EndgameILNS_11EndgameCodeE13ENS_11ScaleFactorEED0Ev;	.scl	3;	.type	32;	.endef
	.seh_proc	_ZN8Polyfish7EndgameILNS_11EndgameCodeE13ENS_11ScaleFactorEED0Ev
_ZN8Polyfish7EndgameILNS_11EndgameCodeE13ENS_11ScaleFactorEED0Ev:
	pushq	%r12
	.seh_pushreg	%r12
	subq	$32, %rsp
	.seh_stackalloc	32
	.seh_endprologue
	movq	.refptr.__gcov_indirect_call(%rip), %rax
	cmpq	$0, (%rax)
	movq	%rcx, %r12
	je	.L201
	leaq	_ZN8Polyfish7EndgameILNS_11EndgameCodeE13ENS_11ScaleFactorEED0Ev(%rip), %rdx
	movl	$150571562, %ecx
	call	__gcov_indirect_call_profiler_v4
.L201:
	addq	$1, __gcov0._ZN8Polyfish7EndgameILNS_11EndgameCodeE13ENS_11ScaleFactorEED0Ev(%rip)
	cmpq	$0, __gcov7._ZN8Polyfish7EndgameILNS_11EndgameCodeE13ENS_11ScaleFactorEED0Ev(%rip)
	jne	.L202
	movq	.refptr.__gcov_time_profiler_counter(%rip), %rdx
	movq	(%rdx), %rax
	addq	$1, %rax
	movq	%rax, __gcov7._ZN8Polyfish7EndgameILNS_11EndgameCodeE13ENS_11ScaleFactorEED0Ev(%rip)
	movq	%rax, (%rdx)
.L202:
	movl	$16, %edx
	movq	%r12, %rcx
	call	_ZdlPvy
	addq	$1, 8+__gcov0._ZN8Polyfish7EndgameILNS_11EndgameCodeE13ENS_11ScaleFactorEED0Ev(%rip)
	addq	$32, %rsp
	popq	%r12
	ret
	.seh_endproc
	.align 2
	.p2align 4
	.def	_ZN8Polyfish7EndgameILNS_11EndgameCodeE12ENS_11ScaleFactorEED0Ev;	.scl	3;	.type	32;	.endef
	.seh_proc	_ZN8Polyfish7EndgameILNS_11EndgameCodeE12ENS_11ScaleFactorEED0Ev
_ZN8Polyfish7EndgameILNS_11EndgameCodeE12ENS_11ScaleFactorEED0Ev:
	pushq	%r12
	.seh_pushreg	%r12
	subq	$32, %rsp
	.seh_stackalloc	32
	.seh_endprologue
	movq	.refptr.__gcov_indirect_call(%rip), %rax
	cmpq	$0, (%rax)
	movq	%rcx, %r12
	je	.L204
	leaq	_ZN8Polyfish7EndgameILNS_11EndgameCodeE12ENS_11ScaleFactorEED0Ev(%rip), %rdx
	movl	$1165352607, %ecx
	call	__gcov_indirect_call_profiler_v4
.L204:
	addq	$1, __gcov0._ZN8Polyfish7EndgameILNS_11EndgameCodeE12ENS_11ScaleFactorEED0Ev(%rip)
	cmpq	$0, __gcov7._ZN8Polyfish7EndgameILNS_11EndgameCodeE12ENS_11ScaleFactorEED0Ev(%rip)
	jne	.L205
	movq	.refptr.__gcov_time_profiler_counter(%rip), %rdx
	movq	(%rdx), %rax
	addq	$1, %rax
	movq	%rax, __gcov7._ZN8Polyfish7EndgameILNS_11EndgameCodeE12ENS_11ScaleFactorEED0Ev(%rip)
	movq	%rax, (%rdx)
.L205:
	movl	$16, %edx
	movq	%r12, %rcx
	call	_ZdlPvy
	addq	$1, 8+__gcov0._ZN8Polyfish7EndgameILNS_11EndgameCodeE12ENS_11ScaleFactorEED0Ev(%rip)
	addq	$32, %rsp
	popq	%r12
	ret
	.seh_endproc
	.align 2
	.p2align 4
	.def	_ZN8Polyfish7EndgameILNS_11EndgameCodeE3ENS_5ValueEED0Ev;	.scl	3;	.type	32;	.endef
	.seh_proc	_ZN8Polyfish7EndgameILNS_11EndgameCodeE3ENS_5ValueEED0Ev
_ZN8Polyfish7EndgameILNS_11EndgameCodeE3ENS_5ValueEED0Ev:
	pushq	%r12
	.seh_pushreg	%r12
	subq	$32, %rsp
	.seh_stackalloc	32
	.seh_endprologue
	movq	.refptr.__gcov_indirect_call(%rip), %rax
	cmpq	$0, (%rax)
	movq	%rcx, %r12
	je	.L207
	leaq	_ZN8Polyfish7EndgameILNS_11EndgameCodeE3ENS_5ValueEED0Ev(%rip), %rdx
	movl	$280796934, %ecx
	call	__gcov_indirect_call_profiler_v4
.L207:
	addq	$1, __gcov0._ZN8Polyfish7EndgameILNS_11EndgameCodeE3ENS_5ValueEED0Ev(%rip)
	cmpq	$0, __gcov7._ZN8Polyfish7EndgameILNS_11EndgameCodeE3ENS_5ValueEED0Ev(%rip)
	jne	.L208
	movq	.refptr.__gcov_time_profiler_counter(%rip), %rdx
	movq	(%rdx), %rax
	addq	$1, %rax
	movq	%rax, __gcov7._ZN8Polyfish7EndgameILNS_11EndgameCodeE3ENS_5ValueEED0Ev(%rip)
	movq	%rax, (%rdx)
.L208:
	movl	$16, %edx
	movq	%r12, %rcx
	call	_ZdlPvy
	addq	$1, 8+__gcov0._ZN8Polyfish7EndgameILNS_11EndgameCodeE3ENS_5ValueEED0Ev(%rip)
	addq	$32, %rsp
	popq	%r12
	ret
	.seh_endproc
	.align 2
	.p2align 4
	.globl	_ZN9__gnu_cxx13new_allocatorISt13_Rb_tree_nodeISt4pairIKNSt7__cxx1112basic_stringIcSt11char_traitsIcESaIcEEEN8Polyfish3UCI6OptionEEEE8allocateEyPKv
	.def	_ZN9__gnu_cxx13new_allocatorISt13_Rb_tree_nodeISt4pairIKNSt7__cxx1112basic_stringIcSt11char_traitsIcESaIcEEEN8Polyfish3UCI6OptionEEEE8allocateEyPKv;	.scl	2;	.type	32;	.endef
	.seh_proc	_ZN9__gnu_cxx13new_allocatorISt13_Rb_tree_nodeISt4pairIKNSt7__cxx1112basic_stringIcSt11char_traitsIcESaIcEEEN8Polyfish3UCI6OptionEEEE8allocateEyPKv
_ZN9__gnu_cxx13new_allocatorISt13_Rb_tree_nodeISt4pairIKNSt7__cxx1112basic_stringIcSt11char_traitsIcESaIcEEEN8Polyfish3UCI6OptionEEEE8allocateEyPKv:
	pushq	%rbx
	.seh_pushreg	%rbx
	subq	$32, %rsp
	.seh_stackalloc	32
	.seh_endprologue
	movq	.refptr.__gcov_indirect_call(%rip), %rax
	cmpq	$0, (%rax)
	movq	%rdx, %rbx
	je	.L210
	leaq	_ZN9__gnu_cxx13new_allocatorISt13_Rb_tree_nodeISt4pairIKNSt7__cxx1112basic_stringIcSt11char_traitsIcESaIcEEEN8Polyfish3UCI6OptionEEEE8allocateEyPKv(%rip), %rdx
	movl	$1039548790, %ecx
	call	__gcov_indirect_call_profiler_v4
.L210:
	cmpq	$0, __gcov7._ZN9__gnu_cxx13new_allocatorISt13_Rb_tree_nodeISt4pairIKNSt7__cxx1112basic_stringIcSt11char_traitsIcESaIcEEEN8Polyfish3UCI6OptionEEEE8allocateEyPKv.lto_priv.0(%rip)
	jne	.L211
	movq	.refptr.__gcov_time_profiler_counter(%rip), %rdx
	movq	(%rdx), %rax
	addq	$1, %rax
	movq	%rax, __gcov7._ZN9__gnu_cxx13new_allocatorISt13_Rb_tree_nodeISt4pairIKNSt7__cxx1112basic_stringIcSt11char_traitsIcESaIcEEEN8Polyfish3UCI6OptionEEEE8allocateEyPKv.lto_priv.0(%rip)
	movq	%rax, (%rdx)
.L211:
	movabsq	$50127021939428129, %rax
	cmpq	%rax, %rbx
	ja	.L214
	imulq	$184, %rbx, %rcx
	addq	$1, __gcov0._ZN9__gnu_cxx13new_allocatorISt13_Rb_tree_nodeISt4pairIKNSt7__cxx1112basic_stringIcSt11char_traitsIcESaIcEEEN8Polyfish3UCI6OptionEEEE8allocateEyPKv.lto_priv.0(%rip)
	call	_Znwy
	addq	$1, 24+__gcov0._ZN9__gnu_cxx13new_allocatorISt13_Rb_tree_nodeISt4pairIKNSt7__cxx1112basic_stringIcSt11char_traitsIcESaIcEEEN8Polyfish3UCI6OptionEEEE8allocateEyPKv.lto_priv.0(%rip)
	addq	$32, %rsp
	popq	%rbx
	ret
	.p2align 4,,10
	.p2align 3
.L214:
	movabsq	$100254043878856258, %rax
	cmpq	%rax, %rbx
	jbe	.L213
	addq	$1, 8+__gcov0._ZN9__gnu_cxx13new_allocatorISt13_Rb_tree_nodeISt4pairIKNSt7__cxx1112basic_stringIcSt11char_traitsIcESaIcEEEN8Polyfish3UCI6OptionEEEE8allocateEyPKv.lto_priv.0(%rip)
	call	_ZSt28__throw_bad_array_new_lengthv
	.p2align 4,,10
	.p2align 3
.L213:
	addq	$1, 16+__gcov0._ZN9__gnu_cxx13new_allocatorISt13_Rb_tree_nodeISt4pairIKNSt7__cxx1112basic_stringIcSt11char_traitsIcESaIcEEEN8Polyfish3UCI6OptionEEEE8allocateEyPKv.lto_priv.0(%rip)
	call	_ZSt17__throw_bad_allocv
	nop
	.seh_endproc
	.section .rdata,"dr"
.LC3:
	.ascii "<< \0"
	.text
	.align 2
	.p2align 4
	.def	_ZN8Polyfish12_GLOBAL__N_13Tie8overflowEi;	.scl	3;	.type	32;	.endef
	.seh_proc	_ZN8Polyfish12_GLOBAL__N_13Tie8overflowEi
_ZN8Polyfish12_GLOBAL__N_13Tie8overflowEi:
	pushq	%r12
	.seh_pushreg	%r12
	pushq	%rbp
	.seh_pushreg	%rbp
	pushq	%rdi
	.seh_pushreg	%rdi
	pushq	%rsi
	.seh_pushreg	%rsi
	pushq	%rbx
	.seh_pushreg	%rbx
	subq	$32, %rsp
	.seh_stackalloc	32
	.seh_endprologue
	movq	.refptr.__gcov_indirect_call(%rip), %rdi
	cmpq	$0, (%rdi)
	movq	%rcx, %rsi
	movl	%edx, %ebx
	je	.L216
	leaq	_ZN8Polyfish12_GLOBAL__N_13Tie8overflowEi(%rip), %rdx
	movl	$1312009534, %ecx
	call	__gcov_indirect_call_profiler_v4
.L216:
	cmpq	$0, __gcov7._ZN8Polyfish12_GLOBAL__N_13Tie8overflowEi.lto_priv.0(%rip)
	je	.L224
.L217:
	movq	64(%rsi), %rcx
	movl	%ebx, %ebp
	movzbl	%bl, %r12d
	movq	40(%rcx), %rax
	cmpq	48(%rcx), %rax
	jnb	.L218
	movb	%bl, (%rax)
	addq	$1, __gcov0._ZN8Polyfish12_GLOBAL__N_13Tie8overflowEi.lto_priv.0(%rip)
	addq	$1, 40(%rcx)
.L219:
	cmpq	$0, __gcov7._ZN8Polyfish12_GLOBAL__N_13Tie3logEiPKc.lto_priv.0(%rip)
	je	.L225
.L220:
	cmpl	$10, _ZZN8Polyfish12_GLOBAL__N_13Tie3logEiPKcE4last(%rip)
	jne	.L221
	movq	72(%rsi), %rcx
	leaq	__gcov4._ZN8Polyfish12_GLOBAL__N_13Tie3logEiPKc.lto_priv.0(%rip), %rbx
	addq	$1, __gcov0._ZN8Polyfish12_GLOBAL__N_13Tie3logEiPKc.lto_priv.0(%rip)
	movl	$3, %r8d
	leaq	.LC3(%rip), %rdx
	movq	(%rcx), %rax
	movq	%rbx, 8(%rdi)
	movq	96(%rax), %rax
	movq	%rax, (%rdi)
	call	*%rax
	addq	$1, 8+__gcov0._ZN8Polyfish12_GLOBAL__N_13Tie3logEiPKc.lto_priv.0(%rip)
.L221:
	movq	72(%rsi), %rcx
	movq	40(%rcx), %rax
	cmpq	48(%rcx), %rax
	jnb	.L222
	movb	%bpl, (%rax)
	addq	$1, 16+__gcov0._ZN8Polyfish12_GLOBAL__N_13Tie3logEiPKc.lto_priv.0(%rip)
	addq	$1, 40(%rcx)
.L223:
	addq	$1, 24+__gcov0._ZN8Polyfish12_GLOBAL__N_13Tie8overflowEi.lto_priv.0(%rip)
	movl	%r12d, %eax
	movl	%r12d, _ZZN8Polyfish12_GLOBAL__N_13Tie3logEiPKcE4last(%rip)
	addq	$32, %rsp
	popq	%rbx
	popq	%rsi
	popq	%rdi
	popq	%rbp
	popq	%r12
	ret
	.p2align 4,,10
	.p2align 3
.L225:
	movq	.refptr.__gcov_time_profiler_counter(%rip), %rdx
	movq	(%rdx), %rax
	addq	$1, %rax
	movq	%rax, __gcov7._ZN8Polyfish12_GLOBAL__N_13Tie3logEiPKc.lto_priv.0(%rip)
	movq	%rax, (%rdx)
	jmp	.L220
	.p2align 4,,10
	.p2align 3
.L224:
	movq	.refptr.__gcov_time_profiler_counter(%rip), %rdx
	movq	(%rdx), %rax
	addq	$1, %rax
	movq	%rax, __gcov7._ZN8Polyfish12_GLOBAL__N_13Tie8overflowEi.lto_priv.0(%rip)
	movq	%rax, (%rdx)
	jmp	.L217
	.p2align 4,,10
	.p2align 3
.L218:
	movq	(%rcx), %rax
	leaq	__gcov4._ZN8Polyfish12_GLOBAL__N_13Tie8overflowEi.lto_priv.0(%rip), %rbx
	movl	%r12d, %edx
	addq	$1, 8+__gcov0._ZN8Polyfish12_GLOBAL__N_13Tie8overflowEi.lto_priv.0(%rip)
	movq	%rbx, 8(%rdi)
	movq	104(%rax), %rax
	movq	%rax, (%rdi)
	call	*%rax
	addq	$1, 16+__gcov0._ZN8Polyfish12_GLOBAL__N_13Tie8overflowEi.lto_priv.0(%rip)
	movl	%eax, %ebp
	movzbl	%al, %r12d
	jmp	.L219
	.p2align 4,,10
	.p2align 3
.L222:
	movq	(%rcx), %rax
	leaq	24+__gcov4._ZN8Polyfish12_GLOBAL__N_13Tie3logEiPKc.lto_priv.0(%rip), %rsi
	movl	%r12d, %edx
	addq	$1, 24+__gcov0._ZN8Polyfish12_GLOBAL__N_13Tie3logEiPKc.lto_priv.0(%rip)
	movq	%rsi, 8(%rdi)
	movq	104(%rax), %rax
	movq	%rax, (%rdi)
	call	*%rax
	addq	$1, 32+__gcov0._ZN8Polyfish12_GLOBAL__N_13Tie3logEiPKc.lto_priv.0(%rip)
	movl	%eax, %r12d
	jmp	.L223
	.seh_endproc
	.align 2
	.p2align 4
	.def	_ZN8Polyfish12_GLOBAL__N_13Tie9underflowEv;	.scl	3;	.type	32;	.endef
	.seh_proc	_ZN8Polyfish12_GLOBAL__N_13Tie9underflowEv
_ZN8Polyfish12_GLOBAL__N_13Tie9underflowEv:
	pushq	%rsi
	.seh_pushreg	%rsi
	pushq	%rbx
	.seh_pushreg	%rbx
	subq	$40, %rsp
	.seh_stackalloc	40
	.seh_endprologue
	movq	.refptr.__gcov_indirect_call(%rip), %rsi
	cmpq	$0, (%rsi)
	movq	%rcx, %rbx
	je	.L227
	leaq	_ZN8Polyfish12_GLOBAL__N_13Tie9underflowEv(%rip), %rdx
	movl	$1942060664, %ecx
	call	__gcov_indirect_call_profiler_v4
.L227:
	cmpq	$0, __gcov7._ZN8Polyfish12_GLOBAL__N_13Tie9underflowEv.lto_priv.0(%rip)
	jne	.L228
	movq	.refptr.__gcov_time_profiler_counter(%rip), %rdx
	movq	(%rdx), %rax
	addq	$1, %rax
	movq	%rax, __gcov7._ZN8Polyfish12_GLOBAL__N_13Tie9underflowEv.lto_priv.0(%rip)
	movq	%rax, (%rdx)
.L228:
	movq	64(%rbx), %rcx
	movq	16(%rcx), %rax
	cmpq	24(%rcx), %rax
	jnb	.L229
	addq	$1, __gcov0._ZN8Polyfish12_GLOBAL__N_13Tie9underflowEv.lto_priv.0(%rip)
	movzbl	(%rax), %eax
	addq	$40, %rsp
	popq	%rbx
	popq	%rsi
	ret
	.p2align 4,,10
	.p2align 3
.L229:
	movq	(%rcx), %rax
	leaq	__gcov4._ZN8Polyfish12_GLOBAL__N_13Tie9underflowEv.lto_priv.0(%rip), %rbx
	addq	$1, 8+__gcov0._ZN8Polyfish12_GLOBAL__N_13Tie9underflowEv.lto_priv.0(%rip)
	movq	%rbx, 8(%rsi)
	movq	72(%rax), %rax
	movq	%rax, (%rsi)
	call	*%rax
	addq	$1, 16+__gcov0._ZN8Polyfish12_GLOBAL__N_13Tie9underflowEv.lto_priv.0(%rip)
	addq	$40, %rsp
	popq	%rbx
	popq	%rsi
	ret
	.seh_endproc
	.section .rdata,"dr"
.LC4:
	.ascii ">> \0"
	.text
	.align 2
	.p2align 4
	.def	_ZN8Polyfish12_GLOBAL__N_13Tie5uflowEv;	.scl	3;	.type	32;	.endef
	.seh_proc	_ZN8Polyfish12_GLOBAL__N_13Tie5uflowEv
_ZN8Polyfish12_GLOBAL__N_13Tie5uflowEv:
	pushq	%r12
	.seh_pushreg	%r12
	pushq	%rdi
	.seh_pushreg	%rdi
	pushq	%rsi
	.seh_pushreg	%rsi
	pushq	%rbx
	.seh_pushreg	%rbx
	subq	$40, %rsp
	.seh_stackalloc	40
	.seh_endprologue
	movq	.refptr.__gcov_indirect_call(%rip), %rsi
	cmpq	$0, (%rsi)
	movq	%rcx, %rbx
	je	.L232
	leaq	_ZN8Polyfish12_GLOBAL__N_13Tie5uflowEv(%rip), %rdx
	movl	$1419123575, %ecx
	call	__gcov_indirect_call_profiler_v4
.L232:
	cmpq	$0, __gcov7._ZN8Polyfish12_GLOBAL__N_13Tie5uflowEv.lto_priv.0(%rip)
	je	.L240
	movq	64(%rbx), %rcx
	movq	16(%rcx), %rax
	cmpq	24(%rcx), %rax
	jnb	.L234
.L242:
	movzbl	(%rax), %r12d
	addq	$1, __gcov0._ZN8Polyfish12_GLOBAL__N_13Tie5uflowEv.lto_priv.0(%rip)
	addq	$1, %rax
	movq	%rax, 16(%rcx)
	movl	%r12d, %edi
.L235:
	cmpq	$0, __gcov7._ZN8Polyfish12_GLOBAL__N_13Tie3logEiPKc.lto_priv.0(%rip)
	je	.L241
.L236:
	cmpl	$10, _ZZN8Polyfish12_GLOBAL__N_13Tie3logEiPKcE4last(%rip)
	jne	.L237
	movq	72(%rbx), %rcx
	leaq	__gcov4._ZN8Polyfish12_GLOBAL__N_13Tie3logEiPKc.lto_priv.0(%rip), %rdx
	addq	$1, __gcov0._ZN8Polyfish12_GLOBAL__N_13Tie3logEiPKc.lto_priv.0(%rip)
	movl	$3, %r8d
	movq	(%rcx), %rax
	movq	%rdx, 8(%rsi)
	leaq	.LC4(%rip), %rdx
	movq	96(%rax), %rax
	movq	%rax, (%rsi)
	call	*%rax
	addq	$1, 8+__gcov0._ZN8Polyfish12_GLOBAL__N_13Tie3logEiPKc.lto_priv.0(%rip)
.L237:
	movq	72(%rbx), %rcx
	movq	40(%rcx), %rax
	cmpq	48(%rcx), %rax
	jnb	.L238
	movb	%dil, (%rax)
	addq	$1, 16+__gcov0._ZN8Polyfish12_GLOBAL__N_13Tie3logEiPKc.lto_priv.0(%rip)
	addq	$1, 40(%rcx)
.L239:
	addq	$1, 24+__gcov0._ZN8Polyfish12_GLOBAL__N_13Tie5uflowEv.lto_priv.0(%rip)
	movl	%r12d, %eax
	movl	%r12d, _ZZN8Polyfish12_GLOBAL__N_13Tie3logEiPKcE4last(%rip)
	addq	$40, %rsp
	popq	%rbx
	popq	%rsi
	popq	%rdi
	popq	%r12
	ret
	.p2align 4,,10
	.p2align 3
.L241:
	movq	.refptr.__gcov_time_profiler_counter(%rip), %rdx
	movq	(%rdx), %rax
	addq	$1, %rax
	movq	%rax, __gcov7._ZN8Polyfish12_GLOBAL__N_13Tie3logEiPKc.lto_priv.0(%rip)
	movq	%rax, (%rdx)
	jmp	.L236
	.p2align 4,,10
	.p2align 3
.L240:
	movq	.refptr.__gcov_time_profiler_counter(%rip), %rdx
	movq	64(%rbx), %rcx
	movq	(%rdx), %rax
	addq	$1, %rax
	movq	%rax, __gcov7._ZN8Polyfish12_GLOBAL__N_13Tie5uflowEv.lto_priv.0(%rip)
	movq	%rax, (%rdx)
	movq	16(%rcx), %rax
	cmpq	24(%rcx), %rax
	jb	.L242
	.p2align 4,,10
	.p2align 3
.L234:
	movq	(%rcx), %rax
	leaq	__gcov4._ZN8Polyfish12_GLOBAL__N_13Tie5uflowEv.lto_priv.0(%rip), %rdi
	addq	$1, 8+__gcov0._ZN8Polyfish12_GLOBAL__N_13Tie5uflowEv.lto_priv.0(%rip)
	movq	%rdi, 8(%rsi)
	movq	80(%rax), %rax
	movq	%rax, (%rsi)
	call	*%rax
	addq	$1, 16+__gcov0._ZN8Polyfish12_GLOBAL__N_13Tie5uflowEv.lto_priv.0(%rip)
	movl	%eax, %edi
	movzbl	%al, %r12d
	jmp	.L235
	.p2align 4,,10
	.p2align 3
.L238:
	movq	(%rcx), %rax
	leaq	24+__gcov4._ZN8Polyfish12_GLOBAL__N_13Tie3logEiPKc.lto_priv.0(%rip), %rdi
	movl	%r12d, %edx
	addq	$1, 24+__gcov0._ZN8Polyfish12_GLOBAL__N_13Tie3logEiPKc.lto_priv.0(%rip)
	movq	%rdi, 8(%rsi)
	movq	104(%rax), %rax
	movq	%rax, (%rsi)
	call	*%rax
	addq	$1, 32+__gcov0._ZN8Polyfish12_GLOBAL__N_13Tie3logEiPKc.lto_priv.0(%rip)
	movl	%eax, %r12d
	jmp	.L239
	.seh_endproc
	.align 2
	.p2align 4
	.def	_ZNSt8_Rb_treeINSt7__cxx1112basic_stringIcSt11char_traitsIcESaIcEEESt4pairIKS5_N8Polyfish3UCI6OptionEESt10_Select1stISB_ENS9_19CaseInsensitiveLessESaISB_EE14_M_create_nodeIJRKSt21piecewise_construct_tSt5tupleIJOS5_EESL_IJEEEEEPSt13_Rb_tree_nodeISB_EDpOT_;	.scl	3;	.type	32;	.endef
	.seh_proc	_ZNSt8_Rb_treeINSt7__cxx1112basic_stringIcSt11char_traitsIcESaIcEEESt4pairIKS5_N8Polyfish3UCI6OptionEESt10_Select1stISB_ENS9_19CaseInsensitiveLessESaISB_EE14_M_create_nodeIJRKSt21piecewise_construct_tSt5tupleIJOS5_EESL_IJEEEEEPSt13_Rb_tree_nodeISB_EDpOT_
_ZNSt8_Rb_treeINSt7__cxx1112basic_stringIcSt11char_traitsIcESaIcEEESt4pairIKS5_N8Polyfish3UCI6OptionEESt10_Select1stISB_ENS9_19CaseInsensitiveLessESaISB_EE14_M_create_nodeIJRKSt21piecewise_construct_tSt5tupleIJOS5_EESL_IJEEEEEPSt13_Rb_tree_nodeISB_EDpOT_:
	pushq	%r12
	.seh_pushreg	%r12
	pushq	%rsi
	.seh_pushreg	%rsi
	pushq	%rbx
	.seh_pushreg	%rbx
	subq	$32, %rsp
	.seh_stackalloc	32
	.seh_endprologue
	movq	.refptr.__gcov_indirect_call(%rip), %rsi
	movq	(%rsi), %rax
	movq	%r8, %rbx
	testq	%rax, %rax
	jne	.L257
	addq	$1, __gcov0._ZNSt8_Rb_treeINSt7__cxx1112basic_stringIcSt11char_traitsIcESaIcEEESt4pairIKS5_N8Polyfish3UCI6OptionEESt10_Select1stISB_ENS9_19CaseInsensitiveLessESaISB_EE14_M_create_nodeIJRKSt21piecewise_construct_tSt5tupleIJOS5_EESL_IJEEEEEPSt13_Rb_tree_nodeISB_EDpOT_.lto_priv.0(%rip)
	cmpq	$0, __gcov7._ZNSt8_Rb_treeINSt7__cxx1112basic_stringIcSt11char_traitsIcESaIcEEESt4pairIKS5_N8Polyfish3UCI6OptionEESt10_Select1stISB_ENS9_19CaseInsensitiveLessESaISB_EE14_M_create_nodeIJRKSt21piecewise_construct_tSt5tupleIJOS5_EESL_IJEEEEEPSt13_Rb_tree_nodeISB_EDpOT_.lto_priv.0(%rip)
	je	.L252
.L246:
	cmpq	$0, __gcov7._ZN9__gnu_cxx13new_allocatorISt13_Rb_tree_nodeISt4pairIKNSt7__cxx1112basic_stringIcSt11char_traitsIcESaIcEEEN8Polyfish3UCI6OptionEEEE8allocateEyPKv.lto_priv.0(%rip)
	je	.L258
.L247:
	movl	$184, %ecx
	addq	$1, __gcov0._ZN9__gnu_cxx13new_allocatorISt13_Rb_tree_nodeISt4pairIKNSt7__cxx1112basic_stringIcSt11char_traitsIcESaIcEEEN8Polyfish3UCI6OptionEEEE8allocateEyPKv.lto_priv.0(%rip)
	call	_Znwy
	addq	$1, 24+__gcov0._ZN9__gnu_cxx13new_allocatorISt13_Rb_tree_nodeISt4pairIKNSt7__cxx1112basic_stringIcSt11char_traitsIcESaIcEEEN8Polyfish3UCI6OptionEEEE8allocateEyPKv.lto_priv.0(%rip)
	movq	(%rbx), %rbx
	addq	$1, 8+__gcov0._ZNSt8_Rb_treeINSt7__cxx1112basic_stringIcSt11char_traitsIcESaIcEEESt4pairIKS5_N8Polyfish3UCI6OptionEESt10_Select1stISB_ENS9_19CaseInsensitiveLessESaISB_EE14_M_create_nodeIJRKSt21piecewise_construct_tSt5tupleIJOS5_EESL_IJEEEEEPSt13_Rb_tree_nodeISB_EDpOT_.lto_priv.0(%rip)
	cmpq	$0, (%rsi)
	movq	%rax, %r12
	jne	.L259
	cmpq	$0, __gcov7._ZNSt4pairIKNSt7__cxx1112basic_stringIcSt11char_traitsIcESaIcEEEN8Polyfish3UCI6OptionEEC1IJOS5_EJLy0EEJEJEEERSt5tupleIJDpT_EERSD_IJDpT1_EESt12_Index_tupleIJXspT0_EEESM_IJXspT2_EEE.lto_priv.0(%rip)
	je	.L260
.L249:
	leaq	48(%r12), %rax
	movq	%rax, 32(%r12)
	movq	(%rbx), %rdx
	leaq	16(%rbx), %rax
	cmpq	%rax, %rdx
	je	.L261
	movq	%rdx, 32(%r12)
	movq	16(%rbx), %rdx
	addq	$1, 8+__gcov0._ZNSt4pairIKNSt7__cxx1112basic_stringIcSt11char_traitsIcESaIcEEEN8Polyfish3UCI6OptionEEC1IJOS5_EJLy0EEJEJEEERSt5tupleIJDpT_EERSD_IJDpT1_EESt12_Index_tupleIJXspT0_EEESM_IJXspT2_EEE.lto_priv.0(%rip)
	movq	%rdx, 48(%r12)
.L251:
	movq	8(%rbx), %rdx
	movq	%rax, (%rbx)
	leaq	64(%r12), %rcx
	movq	$0, 8(%rbx)
	movq	%rdx, 40(%r12)
	xorl	%edx, %edx
	movb	$0, 16(%rbx)
	call	_ZN8Polyfish3UCI6OptionC1EPFvRKS1_E
	addq	$1, 16+__gcov0._ZNSt4pairIKNSt7__cxx1112basic_stringIcSt11char_traitsIcESaIcEEEN8Polyfish3UCI6OptionEEC1IJOS5_EJLy0EEJEJEEERSt5tupleIJDpT_EERSD_IJDpT1_EESt12_Index_tupleIJXspT0_EEESM_IJXspT2_EEE.lto_priv.0(%rip)
	movq	%r12, %rax
	addq	$1, 16+__gcov0._ZNSt8_Rb_treeINSt7__cxx1112basic_stringIcSt11char_traitsIcESaIcEEESt4pairIKS5_N8Polyfish3UCI6OptionEESt10_Select1stISB_ENS9_19CaseInsensitiveLessESaISB_EE14_M_create_nodeIJRKSt21piecewise_construct_tSt5tupleIJOS5_EESL_IJEEEEEPSt13_Rb_tree_nodeISB_EDpOT_.lto_priv.0(%rip)
	addq	$32, %rsp
	popq	%rbx
	popq	%rsi
	popq	%r12
	ret
	.p2align 4,,10
	.p2align 3
.L261:
	vmovdqu	16(%rbx), %xmm0
	addq	$1, __gcov0._ZNSt4pairIKNSt7__cxx1112basic_stringIcSt11char_traitsIcESaIcEEEN8Polyfish3UCI6OptionEEC1IJOS5_EJLy0EEJEJEEERSt5tupleIJDpT_EERSD_IJDpT1_EESt12_Index_tupleIJXspT0_EEESM_IJXspT2_EEE.lto_priv.0(%rip)
	vmovdqu	%xmm0, 48(%r12)
	jmp	.L251
	.p2align 4,,10
	.p2align 3
.L258:
	movq	.refptr.__gcov_time_profiler_counter(%rip), %rdx
	movq	(%rdx), %rax
	addq	$1, %rax
	movq	%rax, __gcov7._ZN9__gnu_cxx13new_allocatorISt13_Rb_tree_nodeISt4pairIKNSt7__cxx1112basic_stringIcSt11char_traitsIcESaIcEEEN8Polyfish3UCI6OptionEEEE8allocateEyPKv.lto_priv.0(%rip)
	movq	%rax, (%rdx)
	jmp	.L247
	.p2align 4,,10
	.p2align 3
.L257:
	leaq	_ZNSt8_Rb_treeINSt7__cxx1112basic_stringIcSt11char_traitsIcESaIcEEESt4pairIKS5_N8Polyfish3UCI6OptionEESt10_Select1stISB_ENS9_19CaseInsensitiveLessESaISB_EE14_M_create_nodeIJRKSt21piecewise_construct_tSt5tupleIJOS5_EESL_IJEEEEEPSt13_Rb_tree_nodeISB_EDpOT_(%rip), %rdx
	movl	$1977782392, %ecx
	call	__gcov_indirect_call_profiler_v4
	addq	$1, __gcov0._ZNSt8_Rb_treeINSt7__cxx1112basic_stringIcSt11char_traitsIcESaIcEEESt4pairIKS5_N8Polyfish3UCI6OptionEESt10_Select1stISB_ENS9_19CaseInsensitiveLessESaISB_EE14_M_create_nodeIJRKSt21piecewise_construct_tSt5tupleIJOS5_EESL_IJEEEEEPSt13_Rb_tree_nodeISB_EDpOT_.lto_priv.0(%rip)
	movq	(%rsi), %rax
	cmpq	$0, __gcov7._ZNSt8_Rb_treeINSt7__cxx1112basic_stringIcSt11char_traitsIcESaIcEEESt4pairIKS5_N8Polyfish3UCI6OptionEESt10_Select1stISB_ENS9_19CaseInsensitiveLessESaISB_EE14_M_create_nodeIJRKSt21piecewise_construct_tSt5tupleIJOS5_EESL_IJEEEEEPSt13_Rb_tree_nodeISB_EDpOT_.lto_priv.0(%rip)
	je	.L252
.L245:
	testq	%rax, %rax
	je	.L246
	leaq	_ZN9__gnu_cxx13new_allocatorISt13_Rb_tree_nodeISt4pairIKNSt7__cxx1112basic_stringIcSt11char_traitsIcESaIcEEEN8Polyfish3UCI6OptionEEEE8allocateEyPKv(%rip), %rdx
	movl	$1039548790, %ecx
	call	__gcov_indirect_call_profiler_v4
	jmp	.L246
	.p2align 4,,10
	.p2align 3
.L252:
	movq	.refptr.__gcov_time_profiler_counter(%rip), %rcx
	movq	(%rcx), %rdx
	addq	$1, %rdx
	movq	%rdx, __gcov7._ZNSt8_Rb_treeINSt7__cxx1112basic_stringIcSt11char_traitsIcESaIcEEESt4pairIKS5_N8Polyfish3UCI6OptionEESt10_Select1stISB_ENS9_19CaseInsensitiveLessESaISB_EE14_M_create_nodeIJRKSt21piecewise_construct_tSt5tupleIJOS5_EESL_IJEEEEEPSt13_Rb_tree_nodeISB_EDpOT_.lto_priv.0(%rip)
	movq	%rdx, (%rcx)
	jmp	.L245
	.p2align 4,,10
	.p2align 3
.L259:
	leaq	_ZNSt4pairIKNSt7__cxx1112basic_stringIcSt11char_traitsIcESaIcEEEN8Polyfish3UCI6OptionEEC1IJOS5_EJLy0EEJEJEEERSt5tupleIJDpT_EERSD_IJDpT1_EESt12_Index_tupleIJXspT0_EEESM_IJXspT2_EEE(%rip), %rdx
	movl	$946284025, %ecx
	call	__gcov_indirect_call_profiler_v4
	cmpq	$0, __gcov7._ZNSt4pairIKNSt7__cxx1112basic_stringIcSt11char_traitsIcESaIcEEEN8Polyfish3UCI6OptionEEC1IJOS5_EJLy0EEJEJEEERSt5tupleIJDpT_EERSD_IJDpT1_EESt12_Index_tupleIJXspT0_EEESM_IJXspT2_EEE.lto_priv.0(%rip)
	jne	.L249
	.p2align 4,,10
	.p2align 3
.L260:
	movq	.refptr.__gcov_time_profiler_counter(%rip), %rdx
	movq	(%rdx), %rax
	addq	$1, %rax
	movq	%rax, __gcov7._ZNSt4pairIKNSt7__cxx1112basic_stringIcSt11char_traitsIcESaIcEEEN8Polyfish3UCI6OptionEEC1IJOS5_EJLy0EEJEJEEERSt5tupleIJDpT_EERSD_IJDpT1_EESt12_Index_tupleIJXspT0_EEESM_IJXspT2_EEE.lto_priv.0(%rip)
	movq	%rax, (%rdx)
	jmp	.L249
	.seh_endproc
	.p2align 4
	.globl	_ZSteqIcEN9__gnu_cxx11__enable_ifIXsrSt9__is_charIT_E7__valueEbE6__typeERKNSt7__cxx1112basic_stringIS3_St11char_traitsIS3_ESaIS3_EEESE_
	.def	_ZSteqIcEN9__gnu_cxx11__enable_ifIXsrSt9__is_charIT_E7__valueEbE6__typeERKNSt7__cxx1112basic_stringIS3_St11char_traitsIS3_ESaIS3_EEESE_;	.scl	2;	.type	32;	.endef
	.seh_proc	_ZSteqIcEN9__gnu_cxx11__enable_ifIXsrSt9__is_charIT_E7__valueEbE6__typeERKNSt7__cxx1112basic_stringIS3_St11char_traitsIS3_ESaIS3_EEESE_
_ZSteqIcEN9__gnu_cxx11__enable_ifIXsrSt9__is_charIT_E7__valueEbE6__typeERKNSt7__cxx1112basic_stringIS3_St11char_traitsIS3_ESaIS3_EEESE_:
	pushq	%rdi
	.seh_pushreg	%rdi
	pushq	%rsi
	.seh_pushreg	%rsi
	pushq	%rbx
	.seh_pushreg	%rbx
	subq	$32, %rsp
	.seh_stackalloc	32
	.seh_endprologue
	movq	.refptr.__gcov_indirect_call(%rip), %rax
	cmpq	$0, (%rax)
	movq	%rcx, %rbx
	movq	%rdx, %rsi
	je	.L263
	leaq	_ZSteqIcEN9__gnu_cxx11__enable_ifIXsrSt9__is_charIT_E7__valueEbE6__typeERKNSt7__cxx1112basic_stringIS3_St11char_traitsIS3_ESaIS3_EEESE_(%rip), %rdx
	movl	$1675963069, %ecx
	call	__gcov_indirect_call_profiler_v4
.L263:
	movq	.refptr.__gcov0._ZSteqIcEN9__gnu_cxx11__enable_ifIXsrSt9__is_charIT_E7__valueEbE6__typeERKNSt7__cxx1112basic_stringIS3_St11char_traitsIS3_ESaIS3_EEESE_.lto_priv.0(%rip), %rdi
	movq	.refptr.__gcov7._ZSteqIcEN9__gnu_cxx11__enable_ifIXsrSt9__is_charIT_E7__valueEbE6__typeERKNSt7__cxx1112basic_stringIS3_St11char_traitsIS3_ESaIS3_EEESE_.lto_priv.0(%rip), %rcx
	addq	$1, (%rdi)
	cmpq	$0, (%rcx)
	jne	.L264
	movq	.refptr.__gcov_time_profiler_counter(%rip), %rdx
	movq	(%rdx), %rax
	addq	$1, %rax
	movq	%rax, (%rcx)
	movq	%rax, (%rdx)
.L264:
	movq	8(%rbx), %r8
	xorl	%eax, %eax
	cmpq	8(%rsi), %r8
	je	.L270
.L262:
	addq	$32, %rsp
	popq	%rbx
	popq	%rsi
	popq	%rdi
	ret
	.p2align 4,,10
	.p2align 3
.L270:
	movq	(%rsi), %rdx
	movq	(%rbx), %rcx
	testq	%r8, %r8
	je	.L271
	addq	$1, 16(%rdi)
	call	memcmp
	movl	%eax, %r8d
	movl	$1, %eax
	testl	%r8d, %r8d
	je	.L262
	addq	$1, 24(%rdi)
	xorl	%eax, %eax
	addq	$32, %rsp
	popq	%rbx
	popq	%rsi
	popq	%rdi
	ret
	.p2align 4,,10
	.p2align 3
.L271:
	addq	$1, 8(%rdi)
	movl	$1, %eax
	addq	$32, %rsp
	popq	%rbx
	popq	%rsi
	popq	%rdi
	ret
	.seh_endproc
	.align 2
	.p2align 4
	.def	_ZN8Polyfish5Pawns5Entry11king_safetyILNS_5ColorE1EEENS_5ScoreERKNS_8PositionE;	.scl	3;	.type	32;	.endef
	.seh_proc	_ZN8Polyfish5Pawns5Entry11king_safetyILNS_5ColorE1EEENS_5ScoreERKNS_8PositionE
_ZN8Polyfish5Pawns5Entry11king_safetyILNS_5ColorE1EEENS_5ScoreERKNS_8PositionE:
	pushq	%r12
	.seh_pushreg	%r12
	pushq	%rbx
	.seh_pushreg	%rbx
	subq	$40, %rsp
	.seh_stackalloc	40
	.seh_endprologue
	movq	.refptr.__gcov_indirect_call(%rip), %rax
	cmpq	$0, (%rax)
	movq	%rcx, %rbx
	movq	%rdx, %r12
	je	.L273
	leaq	_ZN8Polyfish5Pawns5Entry11king_safetyILNS_5ColorE1EEENS_5ScoreERKNS_8PositionE(%rip), %rdx
	movl	$465730723, %ecx
	call	__gcov_indirect_call_profiler_v4
.L273:
	cmpq	$0, __gcov7._ZN8Polyfish5Pawns5Entry11king_safetyILNS_5ColorE1EEENS_5ScoreERKNS_8PositionE(%rip)
	jne	.L274
	movq	.refptr.__gcov_time_profiler_counter(%rip), %rdx
	movq	(%rdx), %rax
	addq	$1, %rax
	movq	%rax, __gcov7._ZN8Polyfish5Pawns5Entry11king_safetyILNS_5ColorE1EEENS_5ScoreERKNS_8PositionE(%rip)
	movq	%rax, (%rdx)
.L274:
	movq	328(%r12), %rax
	andq	304(%r12), %rax
	rep bsfq	%rax, %rax
	cmpl	%eax, 68(%rbx)
	jne	.L275
	movq	856(%r12), %rax
	addq	$1, __gcov0._ZN8Polyfish5Pawns5Entry11king_safetyILNS_5ColorE1EEENS_5ScoreERKNS_8PositionE(%rip)
	movl	24(%rax), %eax
	andl	$12, %eax
	cmpl	%eax, 84(%rbx)
	je	.L278
.L276:
	movq	%r12, %rdx
	movq	%rbx, %rcx
	call	_ZN8Polyfish5Pawns5Entry14do_king_safetyILNS_5ColorE1EEENS_5ScoreERKNS_8PositionE
	addq	$1, 24+__gcov0._ZN8Polyfish5Pawns5Entry11king_safetyILNS_5ColorE1EEENS_5ScoreERKNS_8PositionE(%rip)
	movl	%eax, 76(%rbx)
	addq	$40, %rsp
	popq	%rbx
	popq	%r12
	ret
	.p2align 4,,10
	.p2align 3
.L275:
	addq	$1, 8+__gcov0._ZN8Polyfish5Pawns5Entry11king_safetyILNS_5ColorE1EEENS_5ScoreERKNS_8PositionE(%rip)
	jmp	.L276
	.p2align 4,,10
	.p2align 3
.L278:
	addq	$1, 16+__gcov0._ZN8Polyfish5Pawns5Entry11king_safetyILNS_5ColorE1EEENS_5ScoreERKNS_8PositionE(%rip)
	movl	76(%rbx), %eax
	addq	$40, %rsp
	popq	%rbx
	popq	%r12
	ret
	.seh_endproc
	.align 2
	.p2align 4
	.globl	_ZN8Polyfish5Pawns5Entry11king_safetyILNS_5ColorE0EEENS_5ScoreERKNS_8PositionE
	.def	_ZN8Polyfish5Pawns5Entry11king_safetyILNS_5ColorE0EEENS_5ScoreERKNS_8PositionE;	.scl	2;	.type	32;	.endef
	.seh_proc	_ZN8Polyfish5Pawns5Entry11king_safetyILNS_5ColorE0EEENS_5ScoreERKNS_8PositionE
_ZN8Polyfish5Pawns5Entry11king_safetyILNS_5ColorE0EEENS_5ScoreERKNS_8PositionE:
	pushq	%r12
	.seh_pushreg	%r12
	pushq	%rsi
	.seh_pushreg	%rsi
	pushq	%rbx
	.seh_pushreg	%rbx
	subq	$32, %rsp
	.seh_stackalloc	32
	.seh_endprologue
	movq	.refptr.__gcov_indirect_call(%rip), %rax
	cmpq	$0, (%rax)
	movq	%rcx, %rbx
	movq	%rdx, %r12
	je	.L280
	leaq	_ZN8Polyfish5Pawns5Entry11king_safetyILNS_5ColorE0EEENS_5ScoreERKNS_8PositionE(%rip), %rdx
	movl	$1391836463, %ecx
	call	__gcov_indirect_call_profiler_v4
.L280:
	movq	.refptr.__gcov7._ZN8Polyfish5Pawns5Entry11king_safetyILNS_5ColorE0EEENS_5ScoreERKNS_8PositionE.lto_priv.0(%rip), %rcx
	cmpq	$0, (%rcx)
	jne	.L281
	movq	.refptr.__gcov_time_profiler_counter(%rip), %rdx
	movq	(%rdx), %rax
	addq	$1, %rax
	movq	%rax, (%rcx)
	movq	%rax, (%rdx)
.L281:
	movq	320(%r12), %rax
	andq	304(%r12), %rax
	movq	.refptr.__gcov0._ZN8Polyfish5Pawns5Entry11king_safetyILNS_5ColorE0EEENS_5ScoreERKNS_8PositionE.lto_priv.0(%rip), %rsi
	rep bsfq	%rax, %rax
	cmpl	%eax, 64(%rbx)
	jne	.L282
	movq	856(%r12), %rax
	addq	$1, (%rsi)
	movl	24(%rax), %eax
	andl	$3, %eax
	cmpl	%eax, 80(%rbx)
	je	.L285
.L283:
	movq	%r12, %rdx
	movq	%rbx, %rcx
	call	_ZN8Polyfish5Pawns5Entry14do_king_safetyILNS_5ColorE0EEENS_5ScoreERKNS_8PositionE
	addq	$1, 24(%rsi)
	movl	%eax, 72(%rbx)
	addq	$32, %rsp
	popq	%rbx
	popq	%rsi
	popq	%r12
	ret
	.p2align 4,,10
	.p2align 3
.L282:
	addq	$1, 8(%rsi)
	jmp	.L283
	.p2align 4,,10
	.p2align 3
.L285:
	addq	$1, 16(%rsi)
	movl	72(%rbx), %eax
	addq	$32, %rsp
	popq	%rbx
	popq	%rsi
	popq	%r12
	ret
	.seh_endproc
	.align 2
	.p2align 4
	.def	_ZNSt8_Rb_treeINSt7__cxx1112basic_stringIcSt11char_traitsIcESaIcEEESt4pairIKS5_N8Polyfish3UCI6OptionEESt10_Select1stISB_ENS9_19CaseInsensitiveLessESaISB_EE24_M_get_insert_unique_posERS7_;	.scl	3;	.type	32;	.endef
	.seh_proc	_ZNSt8_Rb_treeINSt7__cxx1112basic_stringIcSt11char_traitsIcESaIcEEESt4pairIKS5_N8Polyfish3UCI6OptionEESt10_Select1stISB_ENS9_19CaseInsensitiveLessESaISB_EE24_M_get_insert_unique_posERS7_
_ZNSt8_Rb_treeINSt7__cxx1112basic_stringIcSt11char_traitsIcESaIcEEESt4pairIKS5_N8Polyfish3UCI6OptionEESt10_Select1stISB_ENS9_19CaseInsensitiveLessESaISB_EE24_M_get_insert_unique_posERS7_:
	pushq	%r15
	.seh_pushreg	%r15
	pushq	%r14
	.seh_pushreg	%r14
	pushq	%r13
	.seh_pushreg	%r13
	pushq	%r12
	.seh_pushreg	%r12
	pushq	%rbp
	.seh_pushreg	%rbp
	pushq	%rdi
	.seh_pushreg	%rdi
	pushq	%rsi
	.seh_pushreg	%rsi
	pushq	%rbx
	.seh_pushreg	%rbx
	subq	$56, %rsp
	.seh_stackalloc	56
	.seh_endprologue
	movq	.refptr.__gcov_indirect_call(%rip), %r12
	cmpq	$0, (%r12)
	movq	%rcx, 128(%rsp)
	movq	%r8, %rdi
	movq	%rdx, 136(%rsp)
	jne	.L317
.L287:
	addq	$1, __gcov0._ZNSt8_Rb_treeINSt7__cxx1112basic_stringIcSt11char_traitsIcESaIcEEESt4pairIKS5_N8Polyfish3UCI6OptionEESt10_Select1stISB_ENS9_19CaseInsensitiveLessESaISB_EE24_M_get_insert_unique_posERS7_.lto_priv.0(%rip)
	cmpq	$0, __gcov7._ZNSt8_Rb_treeINSt7__cxx1112basic_stringIcSt11char_traitsIcESaIcEEESt4pairIKS5_N8Polyfish3UCI6OptionEESt10_Select1stISB_ENS9_19CaseInsensitiveLessESaISB_EE24_M_get_insert_unique_posERS7_.lto_priv.0(%rip)
	je	.L318
.L288:
	movq	136(%rsp), %rax
	leaq	__gcov0._ZNK8Polyfish3UCI19CaseInsensitiveLessclERKNSt7__cxx1112basic_stringIcSt11char_traitsIcESaIcEEES9_.lto_priv.0(%rip), %rsi
	leaq	__gcov7._ZNK8Polyfish3UCI19CaseInsensitiveLessclERKNSt7__cxx1112basic_stringIcSt11char_traitsIcESaIcEEES9_.lto_priv.0(%rip), %rbp
	movq	16(%rax), %r14
	testq	%r14, %r14
	jne	.L295
	jmp	.L319
	.p2align 4,,10
	.p2align 3
.L308:
	movq	%rbx, %r14
.L295:
	movq	(%r12), %r13
	testq	%r13, %r13
	jne	.L320
.L290:
	addq	$1, (%rsi)
	cmpq	$0, 0(%rbp)
	je	.L321
.L291:
	movq	(%rdi), %r15
	movq	32(%r14), %r8
	movq	8(%rdi), %rdx
	movq	40(%r14), %r9
	movq	%r15, %rcx
	addq	%r15, %rdx
	addq	%r8, %r9
	call	_ZSt30__lexicographical_compare_implIN9__gnu_cxx17__normal_iteratorIPKcNSt7__cxx1112basic_stringIcSt11char_traitsIcESaIcEEEEESA_NS0_5__ops15_Iter_comp_iterIZNK8Polyfish3UCI19CaseInsensitiveLessclERKS9_SH_EUlccE_EEEbT_SK_T0_SL_T1_.constprop.0
	movq	16(%r14), %rdx
	movq	24(%r14), %rbx
	testb	%al, %al
	je	.L292
	movq	%rdx, %rbx
	addq	$1, 8+__gcov0._ZNSt8_Rb_treeINSt7__cxx1112basic_stringIcSt11char_traitsIcESaIcEEESt4pairIKS5_N8Polyfish3UCI6OptionEESt10_Select1stISB_ENS9_19CaseInsensitiveLessESaISB_EE24_M_get_insert_unique_posERS7_.lto_priv.0(%rip)
	testq	%rbx, %rbx
	je	.L294
.L323:
	testq	%r13, %r13
	jne	.L308
.L301:
	addq	$1, (%rsi)
	cmpq	$0, 0(%rbp)
	je	.L322
.L296:
	movq	32(%rbx), %r8
	movq	8(%rdi), %rdx
	movq	%r15, %rcx
	movq	40(%rbx), %r9
	addq	%r15, %rdx
	addq	%r8, %r9
	call	_ZSt30__lexicographical_compare_implIN9__gnu_cxx17__normal_iteratorIPKcNSt7__cxx1112basic_stringIcSt11char_traitsIcESaIcEEEEESA_NS0_5__ops15_Iter_comp_iterIZNK8Polyfish3UCI19CaseInsensitiveLessclERKS9_SH_EUlccE_EEEbT_SK_T0_SL_T1_.constprop.0
	movq	16(%rbx), %rdx
	movq	24(%rbx), %r8
	testb	%al, %al
	je	.L297
	addq	$1, 8+__gcov0._ZNSt8_Rb_treeINSt7__cxx1112basic_stringIcSt11char_traitsIcESaIcEEESt4pairIKS5_N8Polyfish3UCI6OptionEESt10_Select1stISB_ENS9_19CaseInsensitiveLessESaISB_EE24_M_get_insert_unique_posERS7_.lto_priv.0(%rip)
	testq	%rdx, %rdx
	je	.L299
	addq	$1, (%rsi)
	cmpq	$0, 0(%rbp)
	movq	%rdx, %rbx
	jne	.L296
.L322:
	movq	.refptr.__gcov_time_profiler_counter(%rip), %rax
	movq	.refptr.__gcov_time_profiler_counter(%rip), %rcx
	movq	(%rax), %rax
	movq	%rax, 40(%rsp)
	addq	$1, %rax
	movq	%rax, 0(%rbp)
	movq	%rax, (%rcx)
	jmp	.L296
	.p2align 4,,10
	.p2align 3
.L292:
	addq	$1, 16+__gcov0._ZNSt8_Rb_treeINSt7__cxx1112basic_stringIcSt11char_traitsIcESaIcEEESt4pairIKS5_N8Polyfish3UCI6OptionEESt10_Select1stISB_ENS9_19CaseInsensitiveLessESaISB_EE24_M_get_insert_unique_posERS7_.lto_priv.0(%rip)
	testq	%rbx, %rbx
	jne	.L323
.L294:
	movq	%r14, %rbx
	testb	%al, %al
	je	.L300
	.p2align 4,,10
	.p2align 3
.L299:
	movq	136(%rsp), %rax
	cmpq	24(%rax), %rbx
	je	.L324
.L303:
	movq	%rbx, %rcx
	addq	$1, 40+__gcov0._ZNSt8_Rb_treeINSt7__cxx1112basic_stringIcSt11char_traitsIcESaIcEEESt4pairIKS5_N8Polyfish3UCI6OptionEESt10_Select1stISB_ENS9_19CaseInsensitiveLessESaISB_EE24_M_get_insert_unique_posERS7_.lto_priv.0(%rip)
	call	_ZSt18_Rb_tree_decrementPSt18_Rb_tree_node_base
	cmpq	$0, (%r12)
	movq	%rax, %rsi
	jne	.L325
.L305:
	addq	$1, __gcov0._ZNK8Polyfish3UCI19CaseInsensitiveLessclERKNSt7__cxx1112basic_stringIcSt11char_traitsIcESaIcEEES9_.lto_priv.0(%rip)
	cmpq	$0, __gcov7._ZNK8Polyfish3UCI19CaseInsensitiveLessclERKNSt7__cxx1112basic_stringIcSt11char_traitsIcESaIcEEES9_.lto_priv.0(%rip)
	je	.L326
.L306:
	movq	(%rdi), %r8
	movq	32(%rsi), %rcx
	movq	40(%rsi), %rdx
	movq	8(%rdi), %r9
	addq	%rcx, %rdx
	addq	%r8, %r9
	call	_ZSt30__lexicographical_compare_implIN9__gnu_cxx17__normal_iteratorIPKcNSt7__cxx1112basic_stringIcSt11char_traitsIcESaIcEEEEESA_NS0_5__ops15_Iter_comp_iterIZNK8Polyfish3UCI19CaseInsensitiveLessclERKS9_SH_EUlccE_EEEbT_SK_T0_SL_T1_.constprop.0
	testb	%al, %al
	movq	128(%rsp), %rax
	je	.L307
	addq	$1, 48+__gcov0._ZNSt8_Rb_treeINSt7__cxx1112basic_stringIcSt11char_traitsIcESaIcEEESt4pairIKS5_N8Polyfish3UCI6OptionEESt10_Select1stISB_ENS9_19CaseInsensitiveLessESaISB_EE24_M_get_insert_unique_posERS7_.lto_priv.0(%rip)
	movq	$0, (%rax)
	movq	%rbx, 8(%rax)
.L286:
	addq	$56, %rsp
	popq	%rbx
	popq	%rsi
	popq	%rdi
	popq	%rbp
	popq	%r12
	popq	%r13
	popq	%r14
	popq	%r15
	ret
	.p2align 4,,10
	.p2align 3
.L297:
	addq	$1, 16+__gcov0._ZNSt8_Rb_treeINSt7__cxx1112basic_stringIcSt11char_traitsIcESaIcEEESt4pairIKS5_N8Polyfish3UCI6OptionEESt10_Select1stISB_ENS9_19CaseInsensitiveLessESaISB_EE24_M_get_insert_unique_posERS7_.lto_priv.0(%rip)
	testq	%r8, %r8
	je	.L300
	movq	%r8, %rbx
	jmp	.L301
	.p2align 4,,10
	.p2align 3
.L321:
	movq	.refptr.__gcov_time_profiler_counter(%rip), %rax
	movq	.refptr.__gcov_time_profiler_counter(%rip), %rcx
	movq	(%rax), %rax
	movq	%rax, 40(%rsp)
	addq	$1, %rax
	movq	%rax, 0(%rbp)
	movq	%rax, (%rcx)
	jmp	.L291
	.p2align 4,,10
	.p2align 3
.L320:
	movq	.refptr._ZNK8Polyfish3UCI19CaseInsensitiveLessclERKNSt7__cxx1112basic_stringIcSt11char_traitsIcESaIcEEES9_(%rip), %rdx
	movl	$1359473883, %ecx
	call	__gcov_indirect_call_profiler_v4
	jmp	.L290
	.p2align 4,,10
	.p2align 3
.L324:
	movq	128(%rsp), %rax
	addq	$1, 32+__gcov0._ZNSt8_Rb_treeINSt7__cxx1112basic_stringIcSt11char_traitsIcESaIcEEESt4pairIKS5_N8Polyfish3UCI6OptionEESt10_Select1stISB_ENS9_19CaseInsensitiveLessESaISB_EE24_M_get_insert_unique_posERS7_.lto_priv.0(%rip)
	movq	$0, (%rax)
	movq	%rbx, 8(%rax)
	jmp	.L286
	.p2align 4,,10
	.p2align 3
.L307:
	addq	$1, 56+__gcov0._ZNSt8_Rb_treeINSt7__cxx1112basic_stringIcSt11char_traitsIcESaIcEEESt4pairIKS5_N8Polyfish3UCI6OptionEESt10_Select1stISB_ENS9_19CaseInsensitiveLessESaISB_EE24_M_get_insert_unique_posERS7_.lto_priv.0(%rip)
	movq	%rsi, (%rax)
	movq	$0, 8(%rax)
	jmp	.L286
	.p2align 4,,10
	.p2align 3
.L300:
	addq	$1, 24+__gcov0._ZNSt8_Rb_treeINSt7__cxx1112basic_stringIcSt11char_traitsIcESaIcEEESt4pairIKS5_N8Polyfish3UCI6OptionEESt10_Select1stISB_ENS9_19CaseInsensitiveLessESaISB_EE24_M_get_insert_unique_posERS7_.lto_priv.0(%rip)
	cmpq	$0, (%r12)
	movq	%rbx, %rsi
	je	.L305
.L325:
	movq	.refptr._ZNK8Polyfish3UCI19CaseInsensitiveLessclERKNSt7__cxx1112basic_stringIcSt11char_traitsIcESaIcEEES9_(%rip), %rdx
	movl	$1359473883, %ecx
	call	__gcov_indirect_call_profiler_v4
	jmp	.L305
	.p2align 4,,10
	.p2align 3
.L318:
	movq	.refptr.__gcov_time_profiler_counter(%rip), %rdx
	movq	(%rdx), %rax
	addq	$1, %rax
	movq	%rax, __gcov7._ZNSt8_Rb_treeINSt7__cxx1112basic_stringIcSt11char_traitsIcESaIcEEESt4pairIKS5_N8Polyfish3UCI6OptionEESt10_Select1stISB_ENS9_19CaseInsensitiveLessESaISB_EE24_M_get_insert_unique_posERS7_.lto_priv.0(%rip)
	movq	%rax, (%rdx)
	jmp	.L288
	.p2align 4,,10
	.p2align 3
.L317:
	leaq	_ZNSt8_Rb_treeINSt7__cxx1112basic_stringIcSt11char_traitsIcESaIcEEESt4pairIKS5_N8Polyfish3UCI6OptionEESt10_Select1stISB_ENS9_19CaseInsensitiveLessESaISB_EE24_M_get_insert_unique_posERS7_(%rip), %rdx
	movl	$20815478, %ecx
	call	__gcov_indirect_call_profiler_v4
	jmp	.L287
	.p2align 4,,10
	.p2align 3
.L326:
	movq	.refptr.__gcov_time_profiler_counter(%rip), %rdx
	movq	(%rdx), %rax
	addq	$1, %rax
	movq	%rax, __gcov7._ZNK8Polyfish3UCI19CaseInsensitiveLessclERKNSt7__cxx1112basic_stringIcSt11char_traitsIcESaIcEEES9_.lto_priv.0(%rip)
	movq	%rax, (%rdx)
	jmp	.L306
	.p2align 4,,10
	.p2align 3
.L319:
	leaq	8(%rax), %rbx
	movq	136(%rsp), %rax
	cmpq	24(%rax), %rbx
	jne	.L303
	jmp	.L324
	.seh_endproc
	.align 2
	.p2align 4
	.globl	_ZNSt8_Rb_treeINSt7__cxx1112basic_stringIcSt11char_traitsIcESaIcEEESt4pairIKS5_N8Polyfish3UCI6OptionEESt10_Select1stISB_ENS9_19CaseInsensitiveLessESaISB_EE29_M_get_insert_hint_unique_posESt23_Rb_tree_const_iteratorISB_ERS7_
	.def	_ZNSt8_Rb_treeINSt7__cxx1112basic_stringIcSt11char_traitsIcESaIcEEESt4pairIKS5_N8Polyfish3UCI6OptionEESt10_Select1stISB_ENS9_19CaseInsensitiveLessESaISB_EE29_M_get_insert_hint_unique_posESt23_Rb_tree_const_iteratorISB_ERS7_;	.scl	2;	.type	32;	.endef
	.seh_proc	_ZNSt8_Rb_treeINSt7__cxx1112basic_stringIcSt11char_traitsIcESaIcEEESt4pairIKS5_N8Polyfish3UCI6OptionEESt10_Select1stISB_ENS9_19CaseInsensitiveLessESaISB_EE29_M_get_insert_hint_unique_posESt23_Rb_tree_const_iteratorISB_ERS7_
_ZNSt8_Rb_treeINSt7__cxx1112basic_stringIcSt11char_traitsIcESaIcEEESt4pairIKS5_N8Polyfish3UCI6OptionEESt10_Select1stISB_ENS9_19CaseInsensitiveLessESaISB_EE29_M_get_insert_hint_unique_posESt23_Rb_tree_const_iteratorISB_ERS7_:
	pushq	%r15
	.seh_pushreg	%r15
	pushq	%r14
	.seh_pushreg	%r14
	pushq	%r13
	.seh_pushreg	%r13
	pushq	%r12
	.seh_pushreg	%r12
	pushq	%rbx
	.seh_pushreg	%rbx
	subq	$48, %rsp
	.seh_stackalloc	48
	vmovups	%xmm6, 32(%rsp)
	.seh_savexmm	%xmm6, 32
	.seh_endprologue
	movq	.refptr.__gcov_indirect_call(%rip), %rax
	cmpq	$0, (%rax)
	movq	%rcx, %r14
	movq	%rdx, %r13
	movq	%r8, %r12
	movq	%r9, %rbx
	je	.L328
	leaq	_ZNSt8_Rb_treeINSt7__cxx1112basic_stringIcSt11char_traitsIcESaIcEEESt4pairIKS5_N8Polyfish3UCI6OptionEESt10_Select1stISB_ENS9_19CaseInsensitiveLessESaISB_EE29_M_get_insert_hint_unique_posESt23_Rb_tree_const_iteratorISB_ERS7_(%rip), %rdx
	movl	$1420890547, %ecx
	call	__gcov_indirect_call_profiler_v4
.L328:
	cmpq	$0, __gcov7._ZNSt8_Rb_treeINSt7__cxx1112basic_stringIcSt11char_traitsIcESaIcEEESt4pairIKS5_N8Polyfish3UCI6OptionEESt10_Select1stISB_ENS9_19CaseInsensitiveLessESaISB_EE29_M_get_insert_hint_unique_posESt23_Rb_tree_const_iteratorISB_ERS7_.lto_priv.0(%rip)
	jne	.L329
	movq	.refptr.__gcov_time_profiler_counter(%rip), %rdx
	movq	(%rdx), %rax
	addq	$1, %rax
	movq	%rax, __gcov7._ZNSt8_Rb_treeINSt7__cxx1112basic_stringIcSt11char_traitsIcESaIcEEESt4pairIKS5_N8Polyfish3UCI6OptionEESt10_Select1stISB_ENS9_19CaseInsensitiveLessESaISB_EE29_M_get_insert_hint_unique_posESt23_Rb_tree_const_iteratorISB_ERS7_.lto_priv.0(%rip)
	movq	%rax, (%rdx)
.L329:
	vmovq	%r12, %xmm1
	leaq	8(%r13), %rax
	vpunpcklqdq	%xmm1, %xmm1, %xmm6
	cmpq	%rax, %r12
	je	.L344
	leaq	32(%r12), %r15
	movq	%rbx, %rcx
	addq	$1, 8+__gcov0._ZNSt8_Rb_treeINSt7__cxx1112basic_stringIcSt11char_traitsIcESaIcEEESt4pairIKS5_N8Polyfish3UCI6OptionEESt10_Select1stISB_ENS9_19CaseInsensitiveLessESaISB_EE29_M_get_insert_hint_unique_posESt23_Rb_tree_const_iteratorISB_ERS7_.lto_priv.0(%rip)
	movq	%r15, %rdx
	call	_ZNK8Polyfish3UCI19CaseInsensitiveLessclERKNSt7__cxx1112basic_stringIcSt11char_traitsIcESaIcEEES9_.constprop.0
	testb	%al, %al
	je	.L333
	vmovddup	24(%r13), %xmm0
	cmpq	%r12, 24(%r13)
	je	.L345
	movq	%r12, %rcx
	addq	$1, 64+__gcov0._ZNSt8_Rb_treeINSt7__cxx1112basic_stringIcSt11char_traitsIcESaIcEEESt4pairIKS5_N8Polyfish3UCI6OptionEESt10_Select1stISB_ENS9_19CaseInsensitiveLessESaISB_EE29_M_get_insert_hint_unique_posESt23_Rb_tree_const_iteratorISB_ERS7_.lto_priv.0(%rip)
	call	_ZSt18_Rb_tree_decrementPSt18_Rb_tree_node_base
	movq	%rbx, %rdx
	leaq	32(%rax), %rcx
	movq	%rax, %r12
	call	_ZNK8Polyfish3UCI19CaseInsensitiveLessclERKNSt7__cxx1112basic_stringIcSt11char_traitsIcESaIcEEES9_.constprop.0
	testb	%al, %al
	je	.L335
	cmpq	$0, 24(%r12)
	je	.L346
	addq	$1, 88+__gcov0._ZNSt8_Rb_treeINSt7__cxx1112basic_stringIcSt11char_traitsIcESaIcEEESt4pairIKS5_N8Polyfish3UCI6OptionEESt10_Select1stISB_ENS9_19CaseInsensitiveLessESaISB_EE29_M_get_insert_hint_unique_posESt23_Rb_tree_const_iteratorISB_ERS7_.lto_priv.0(%rip)
	vmovdqu	%xmm6, (%r14)
	jmp	.L327
	.p2align 4,,10
	.p2align 3
.L344:
	addq	$1, __gcov0._ZNSt8_Rb_treeINSt7__cxx1112basic_stringIcSt11char_traitsIcESaIcEEESt4pairIKS5_N8Polyfish3UCI6OptionEESt10_Select1stISB_ENS9_19CaseInsensitiveLessESaISB_EE29_M_get_insert_hint_unique_posESt23_Rb_tree_const_iteratorISB_ERS7_.lto_priv.0(%rip)
	cmpq	$0, 40(%r13)
	je	.L331
	movq	32(%r13), %rax
	movq	%rbx, %rdx
	addq	$1, 16+__gcov0._ZNSt8_Rb_treeINSt7__cxx1112basic_stringIcSt11char_traitsIcESaIcEEESt4pairIKS5_N8Polyfish3UCI6OptionEESt10_Select1stISB_ENS9_19CaseInsensitiveLessESaISB_EE29_M_get_insert_hint_unique_posESt23_Rb_tree_const_iteratorISB_ERS7_.lto_priv.0(%rip)
	leaq	32(%rax), %rcx
	call	_ZNK8Polyfish3UCI19CaseInsensitiveLessclERKNSt7__cxx1112basic_stringIcSt11char_traitsIcESaIcEEES9_.constprop.0
	addq	$1, 24+__gcov0._ZNSt8_Rb_treeINSt7__cxx1112basic_stringIcSt11char_traitsIcESaIcEEESt4pairIKS5_N8Polyfish3UCI6OptionEESt10_Select1stISB_ENS9_19CaseInsensitiveLessESaISB_EE29_M_get_insert_hint_unique_posESt23_Rb_tree_const_iteratorISB_ERS7_.lto_priv.0(%rip)
	testb	%al, %al
	jne	.L347
.L331:
	movq	%rbx, %r8
	movq	%r13, %rdx
	movq	%r14, %rcx
	call	_ZNSt8_Rb_treeINSt7__cxx1112basic_stringIcSt11char_traitsIcESaIcEEESt4pairIKS5_N8Polyfish3UCI6OptionEESt10_Select1stISB_ENS9_19CaseInsensitiveLessESaISB_EE24_M_get_insert_unique_posERS7_
	addq	$1, 40+__gcov0._ZNSt8_Rb_treeINSt7__cxx1112basic_stringIcSt11char_traitsIcESaIcEEESt4pairIKS5_N8Polyfish3UCI6OptionEESt10_Select1stISB_ENS9_19CaseInsensitiveLessESaISB_EE29_M_get_insert_hint_unique_posESt23_Rb_tree_const_iteratorISB_ERS7_.lto_priv.0(%rip)
.L327:
	vmovups	32(%rsp), %xmm6
	movq	%r14, %rax
	addq	$48, %rsp
	popq	%rbx
	popq	%r12
	popq	%r13
	popq	%r14
	popq	%r15
	ret
	.p2align 4,,10
	.p2align 3
.L333:
	movq	%rbx, %rdx
	movq	%r15, %rcx
	addq	$1, 48+__gcov0._ZNSt8_Rb_treeINSt7__cxx1112basic_stringIcSt11char_traitsIcESaIcEEESt4pairIKS5_N8Polyfish3UCI6OptionEESt10_Select1stISB_ENS9_19CaseInsensitiveLessESaISB_EE29_M_get_insert_hint_unique_posESt23_Rb_tree_const_iteratorISB_ERS7_.lto_priv.0(%rip)
	call	_ZNK8Polyfish3UCI19CaseInsensitiveLessclERKNSt7__cxx1112basic_stringIcSt11char_traitsIcESaIcEEES9_.constprop.0
	testb	%al, %al
	je	.L337
	cmpq	%r12, 32(%r13)
	je	.L348
	movq	%r12, %rcx
	addq	$1, 112+__gcov0._ZNSt8_Rb_treeINSt7__cxx1112basic_stringIcSt11char_traitsIcESaIcEEESt4pairIKS5_N8Polyfish3UCI6OptionEESt10_Select1stISB_ENS9_19CaseInsensitiveLessESaISB_EE29_M_get_insert_hint_unique_posESt23_Rb_tree_const_iteratorISB_ERS7_.lto_priv.0(%rip)
	call	_ZSt18_Rb_tree_incrementPSt18_Rb_tree_node_base
	movq	%rbx, %rcx
	vmovq	%rax, %xmm2
	leaq	32(%rax), %rdx
	vpunpcklqdq	%xmm2, %xmm2, %xmm6
	call	_ZNK8Polyfish3UCI19CaseInsensitiveLessclERKNSt7__cxx1112basic_stringIcSt11char_traitsIcESaIcEEES9_.constprop.0
	testb	%al, %al
	je	.L339
	cmpq	$0, 24(%r12)
	je	.L349
	addq	$1, 136+__gcov0._ZNSt8_Rb_treeINSt7__cxx1112basic_stringIcSt11char_traitsIcESaIcEEESt4pairIKS5_N8Polyfish3UCI6OptionEESt10_Select1stISB_ENS9_19CaseInsensitiveLessESaISB_EE29_M_get_insert_hint_unique_posESt23_Rb_tree_const_iteratorISB_ERS7_.lto_priv.0(%rip)
	vmovdqu	%xmm6, (%r14)
	jmp	.L327
	.p2align 4,,10
	.p2align 3
.L345:
	addq	$1, 56+__gcov0._ZNSt8_Rb_treeINSt7__cxx1112basic_stringIcSt11char_traitsIcESaIcEEESt4pairIKS5_N8Polyfish3UCI6OptionEESt10_Select1stISB_ENS9_19CaseInsensitiveLessESaISB_EE29_M_get_insert_hint_unique_posESt23_Rb_tree_const_iteratorISB_ERS7_.lto_priv.0(%rip)
	vmovdqu	%xmm0, (%r14)
	jmp	.L327
	.p2align 4,,10
	.p2align 3
.L347:
	movq	32(%r13), %rax
	addq	$1, 32+__gcov0._ZNSt8_Rb_treeINSt7__cxx1112basic_stringIcSt11char_traitsIcESaIcEEESt4pairIKS5_N8Polyfish3UCI6OptionEESt10_Select1stISB_ENS9_19CaseInsensitiveLessESaISB_EE29_M_get_insert_hint_unique_posESt23_Rb_tree_const_iteratorISB_ERS7_.lto_priv.0(%rip)
	movq	$0, (%r14)
	movq	%rax, 8(%r14)
	jmp	.L327
	.p2align 4,,10
	.p2align 3
.L337:
	addq	$1, 152+__gcov0._ZNSt8_Rb_treeINSt7__cxx1112basic_stringIcSt11char_traitsIcESaIcEEESt4pairIKS5_N8Polyfish3UCI6OptionEESt10_Select1stISB_ENS9_19CaseInsensitiveLessESaISB_EE29_M_get_insert_hint_unique_posESt23_Rb_tree_const_iteratorISB_ERS7_.lto_priv.0(%rip)
	movq	%r12, (%r14)
	movq	$0, 8(%r14)
	jmp	.L327
	.p2align 4,,10
	.p2align 3
.L335:
	movq	%rbx, %r8
	movq	%r13, %rdx
	movq	%r14, %rcx
	addq	$1, 72+__gcov0._ZNSt8_Rb_treeINSt7__cxx1112basic_stringIcSt11char_traitsIcESaIcEEESt4pairIKS5_N8Polyfish3UCI6OptionEESt10_Select1stISB_ENS9_19CaseInsensitiveLessESaISB_EE29_M_get_insert_hint_unique_posESt23_Rb_tree_const_iteratorISB_ERS7_.lto_priv.0(%rip)
	call	_ZNSt8_Rb_treeINSt7__cxx1112basic_stringIcSt11char_traitsIcESaIcEEESt4pairIKS5_N8Polyfish3UCI6OptionEESt10_Select1stISB_ENS9_19CaseInsensitiveLessESaISB_EE24_M_get_insert_unique_posERS7_
	addq	$1, 96+__gcov0._ZNSt8_Rb_treeINSt7__cxx1112basic_stringIcSt11char_traitsIcESaIcEEESt4pairIKS5_N8Polyfish3UCI6OptionEESt10_Select1stISB_ENS9_19CaseInsensitiveLessESaISB_EE29_M_get_insert_hint_unique_posESt23_Rb_tree_const_iteratorISB_ERS7_.lto_priv.0(%rip)
	jmp	.L327
	.p2align 4,,10
	.p2align 3
.L348:
	addq	$1, 104+__gcov0._ZNSt8_Rb_treeINSt7__cxx1112basic_stringIcSt11char_traitsIcESaIcEEESt4pairIKS5_N8Polyfish3UCI6OptionEESt10_Select1stISB_ENS9_19CaseInsensitiveLessESaISB_EE29_M_get_insert_hint_unique_posESt23_Rb_tree_const_iteratorISB_ERS7_.lto_priv.0(%rip)
	movq	$0, (%r14)
	movq	%r12, 8(%r14)
	jmp	.L327
	.p2align 4,,10
	.p2align 3
.L346:
	addq	$1, 80+__gcov0._ZNSt8_Rb_treeINSt7__cxx1112basic_stringIcSt11char_traitsIcESaIcEEESt4pairIKS5_N8Polyfish3UCI6OptionEESt10_Select1stISB_ENS9_19CaseInsensitiveLessESaISB_EE29_M_get_insert_hint_unique_posESt23_Rb_tree_const_iteratorISB_ERS7_.lto_priv.0(%rip)
	movq	$0, (%r14)
	movq	%r12, 8(%r14)
	jmp	.L327
	.p2align 4,,10
	.p2align 3
.L339:
	movq	%rbx, %r8
	movq	%r13, %rdx
	movq	%r14, %rcx
	addq	$1, 120+__gcov0._ZNSt8_Rb_treeINSt7__cxx1112basic_stringIcSt11char_traitsIcESaIcEEESt4pairIKS5_N8Polyfish3UCI6OptionEESt10_Select1stISB_ENS9_19CaseInsensitiveLessESaISB_EE29_M_get_insert_hint_unique_posESt23_Rb_tree_const_iteratorISB_ERS7_.lto_priv.0(%rip)
	call	_ZNSt8_Rb_treeINSt7__cxx1112basic_stringIcSt11char_traitsIcESaIcEEESt4pairIKS5_N8Polyfish3UCI6OptionEESt10_Select1stISB_ENS9_19CaseInsensitiveLessESaISB_EE24_M_get_insert_unique_posERS7_
	addq	$1, 144+__gcov0._ZNSt8_Rb_treeINSt7__cxx1112basic_stringIcSt11char_traitsIcESaIcEEESt4pairIKS5_N8Polyfish3UCI6OptionEESt10_Select1stISB_ENS9_19CaseInsensitiveLessESaISB_EE29_M_get_insert_hint_unique_posESt23_Rb_tree_const_iteratorISB_ERS7_.lto_priv.0(%rip)
	jmp	.L327
.L349:
	addq	$1, 128+__gcov0._ZNSt8_Rb_treeINSt7__cxx1112basic_stringIcSt11char_traitsIcESaIcEEESt4pairIKS5_N8Polyfish3UCI6OptionEESt10_Select1stISB_ENS9_19CaseInsensitiveLessESaISB_EE29_M_get_insert_hint_unique_posESt23_Rb_tree_const_iteratorISB_ERS7_.lto_priv.0(%rip)
	movq	$0, (%r14)
	movq	%r12, 8(%r14)
	jmp	.L327
	.seh_endproc
	.align 2
	.p2align 4
	.globl	_ZNSt8_Rb_treeINSt7__cxx1112basic_stringIcSt11char_traitsIcESaIcEEESt4pairIKS5_N8Polyfish3UCI6OptionEESt10_Select1stISB_ENS9_19CaseInsensitiveLessESaISB_EE14_M_insert_nodeEPSt18_Rb_tree_node_baseSI_PSt13_Rb_tree_nodeISB_E
	.def	_ZNSt8_Rb_treeINSt7__cxx1112basic_stringIcSt11char_traitsIcESaIcEEESt4pairIKS5_N8Polyfish3UCI6OptionEESt10_Select1stISB_ENS9_19CaseInsensitiveLessESaISB_EE14_M_insert_nodeEPSt18_Rb_tree_node_baseSI_PSt13_Rb_tree_nodeISB_E;	.scl	2;	.type	32;	.endef
	.seh_proc	_ZNSt8_Rb_treeINSt7__cxx1112basic_stringIcSt11char_traitsIcESaIcEEESt4pairIKS5_N8Polyfish3UCI6OptionEESt10_Select1stISB_ENS9_19CaseInsensitiveLessESaISB_EE14_M_insert_nodeEPSt18_Rb_tree_node_baseSI_PSt13_Rb_tree_nodeISB_E
_ZNSt8_Rb_treeINSt7__cxx1112basic_stringIcSt11char_traitsIcESaIcEEESt4pairIKS5_N8Polyfish3UCI6OptionEESt10_Select1stISB_ENS9_19CaseInsensitiveLessESaISB_EE14_M_insert_nodeEPSt18_Rb_tree_node_baseSI_PSt13_Rb_tree_nodeISB_E:
	pushq	%r12
	.seh_pushreg	%r12
	pushq	%rdi
	.seh_pushreg	%rdi
	pushq	%rsi
	.seh_pushreg	%rsi
	pushq	%rbx
	.seh_pushreg	%rbx
	subq	$56, %rsp
	.seh_stackalloc	56
	.seh_endprologue
	movq	.refptr.__gcov_indirect_call(%rip), %rax
	cmpq	$0, (%rax)
	movq	%rcx, %rbx
	movq	%rdx, %rdi
	movq	%r8, %rsi
	movq	%r9, %r12
	je	.L351
	leaq	_ZNSt8_Rb_treeINSt7__cxx1112basic_stringIcSt11char_traitsIcESaIcEEESt4pairIKS5_N8Polyfish3UCI6OptionEESt10_Select1stISB_ENS9_19CaseInsensitiveLessESaISB_EE14_M_insert_nodeEPSt18_Rb_tree_node_baseSI_PSt13_Rb_tree_nodeISB_E(%rip), %rdx
	movl	$729416016, %ecx
	call	__gcov_indirect_call_profiler_v4
.L351:
	addq	$1, __gcov0._ZNSt8_Rb_treeINSt7__cxx1112basic_stringIcSt11char_traitsIcESaIcEEESt4pairIKS5_N8Polyfish3UCI6OptionEESt10_Select1stISB_ENS9_19CaseInsensitiveLessESaISB_EE14_M_insert_nodeEPSt18_Rb_tree_node_baseSI_PSt13_Rb_tree_nodeISB_E.lto_priv.0(%rip)
	cmpq	$0, __gcov7._ZNSt8_Rb_treeINSt7__cxx1112basic_stringIcSt11char_traitsIcESaIcEEESt4pairIKS5_N8Polyfish3UCI6OptionEESt10_Select1stISB_ENS9_19CaseInsensitiveLessESaISB_EE14_M_insert_nodeEPSt18_Rb_tree_node_baseSI_PSt13_Rb_tree_nodeISB_E.lto_priv.0(%rip)
	jne	.L352
	movq	.refptr.__gcov_time_profiler_counter(%rip), %rdx
	movq	(%rdx), %rax
	addq	$1, %rax
	movq	%rax, __gcov7._ZNSt8_Rb_treeINSt7__cxx1112basic_stringIcSt11char_traitsIcESaIcEEESt4pairIKS5_N8Polyfish3UCI6OptionEESt10_Select1stISB_ENS9_19CaseInsensitiveLessESaISB_EE14_M_insert_nodeEPSt18_Rb_tree_node_baseSI_PSt13_Rb_tree_nodeISB_E.lto_priv.0(%rip)
	movq	%rax, (%rdx)
.L352:
	leaq	8(%rbx), %r9
	movl	$1, %ecx
	testq	%rdi, %rdi
	je	.L358
.L353:
	movq	%rsi, %r8
	movq	%r12, %rdx
	call	_ZSt29_Rb_tree_insert_and_rebalancebPSt18_Rb_tree_node_baseS0_RS_
	addq	$1, 40+__gcov0._ZNSt8_Rb_treeINSt7__cxx1112basic_stringIcSt11char_traitsIcESaIcEEESt4pairIKS5_N8Polyfish3UCI6OptionEESt10_Select1stISB_ENS9_19CaseInsensitiveLessESaISB_EE14_M_insert_nodeEPSt18_Rb_tree_node_baseSI_PSt13_Rb_tree_nodeISB_E.lto_priv.0(%rip)
	movq	%r12, %rax
	addq	$1, 40(%rbx)
	addq	$56, %rsp
	popq	%rbx
	popq	%rsi
	popq	%rdi
	popq	%r12
	ret
	.p2align 4,,10
	.p2align 3
.L358:
	cmpq	%r9, %rsi
	je	.L359
	leaq	32(%r12), %rcx
	leaq	32(%rsi), %rdx
	movq	%r9, 40(%rsp)
	addq	$1, 16+__gcov0._ZNSt8_Rb_treeINSt7__cxx1112basic_stringIcSt11char_traitsIcESaIcEEESt4pairIKS5_N8Polyfish3UCI6OptionEESt10_Select1stISB_ENS9_19CaseInsensitiveLessESaISB_EE14_M_insert_nodeEPSt18_Rb_tree_node_baseSI_PSt13_Rb_tree_nodeISB_E.lto_priv.0(%rip)
	call	_ZNK8Polyfish3UCI19CaseInsensitiveLessclERKNSt7__cxx1112basic_stringIcSt11char_traitsIcESaIcEEES9_.constprop.0
	addq	$1, 24+__gcov0._ZNSt8_Rb_treeINSt7__cxx1112basic_stringIcSt11char_traitsIcESaIcEEESt4pairIKS5_N8Polyfish3UCI6OptionEESt10_Select1stISB_ENS9_19CaseInsensitiveLessESaISB_EE14_M_insert_nodeEPSt18_Rb_tree_node_baseSI_PSt13_Rb_tree_nodeISB_E.lto_priv.0(%rip)
	xorl	%ecx, %ecx
	movq	40(%rsp), %r9
	testb	%al, %al
	je	.L353
	addq	$1, 32+__gcov0._ZNSt8_Rb_treeINSt7__cxx1112basic_stringIcSt11char_traitsIcESaIcEEESt4pairIKS5_N8Polyfish3UCI6OptionEESt10_Select1stISB_ENS9_19CaseInsensitiveLessESaISB_EE14_M_insert_nodeEPSt18_Rb_tree_node_baseSI_PSt13_Rb_tree_nodeISB_E.lto_priv.0(%rip)
	movl	$1, %ecx
	jmp	.L353
	.p2align 4,,10
	.p2align 3
.L359:
	addq	$1, 8+__gcov0._ZNSt8_Rb_treeINSt7__cxx1112basic_stringIcSt11char_traitsIcESaIcEEESt4pairIKS5_N8Polyfish3UCI6OptionEESt10_Select1stISB_ENS9_19CaseInsensitiveLessESaISB_EE14_M_insert_nodeEPSt18_Rb_tree_node_baseSI_PSt13_Rb_tree_nodeISB_E.lto_priv.0(%rip)
	jmp	.L353
	.seh_endproc
	.align 2
	.p2align 4
	.globl	_ZNSt8_Rb_treeINSt7__cxx1112basic_stringIcSt11char_traitsIcESaIcEEESt4pairIKS5_N8Polyfish3UCI6OptionEESt10_Select1stISB_ENS9_19CaseInsensitiveLessESaISB_EE22_M_emplace_hint_uniqueIJRKSt21piecewise_construct_tSt5tupleIJOS5_EESL_IJEEEEESt17_Rb_tree_iteratorISB_ESt23_Rb_tree_const_iteratorISB_EDpOT_
	.def	_ZNSt8_Rb_treeINSt7__cxx1112basic_stringIcSt11char_traitsIcESaIcEEESt4pairIKS5_N8Polyfish3UCI6OptionEESt10_Select1stISB_ENS9_19CaseInsensitiveLessESaISB_EE22_M_emplace_hint_uniqueIJRKSt21piecewise_construct_tSt5tupleIJOS5_EESL_IJEEEEESt17_Rb_tree_iteratorISB_ESt23_Rb_tree_const_iteratorISB_EDpOT_;	.scl	2;	.type	32;	.endef
	.seh_proc	_ZNSt8_Rb_treeINSt7__cxx1112basic_stringIcSt11char_traitsIcESaIcEEESt4pairIKS5_N8Polyfish3UCI6OptionEESt10_Select1stISB_ENS9_19CaseInsensitiveLessESaISB_EE22_M_emplace_hint_uniqueIJRKSt21piecewise_construct_tSt5tupleIJOS5_EESL_IJEEEEESt17_Rb_tree_iteratorISB_ESt23_Rb_tree_const_iteratorISB_EDpOT_
_ZNSt8_Rb_treeINSt7__cxx1112basic_stringIcSt11char_traitsIcESaIcEEESt4pairIKS5_N8Polyfish3UCI6OptionEESt10_Select1stISB_ENS9_19CaseInsensitiveLessESaISB_EE22_M_emplace_hint_uniqueIJRKSt21piecewise_construct_tSt5tupleIJOS5_EESL_IJEEEEESt17_Rb_tree_iteratorISB_ESt23_Rb_tree_const_iteratorISB_EDpOT_:
	pushq	%r14
	.seh_pushreg	%r14
	pushq	%r13
	.seh_pushreg	%r13
	pushq	%r12
	.seh_pushreg	%r12
	pushq	%rbp
	.seh_pushreg	%rbp
	pushq	%rdi
	.seh_pushreg	%rdi
	pushq	%rsi
	.seh_pushreg	%rsi
	pushq	%rbx
	.seh_pushreg	%rbx
	subq	$48, %rsp
	.seh_stackalloc	48
	.seh_endprologue
	movq	.refptr.__gcov_indirect_call(%rip), %rsi
	movq	(%rsi), %rax
	movq	%rcx, %r14
	movq	%rdx, %r13
	movq	%r9, %rbx
	testq	%rax, %rax
	jne	.L397
	addq	$1, __gcov0._ZNSt8_Rb_treeINSt7__cxx1112basic_stringIcSt11char_traitsIcESaIcEEESt4pairIKS5_N8Polyfish3UCI6OptionEESt10_Select1stISB_ENS9_19CaseInsensitiveLessESaISB_EE22_M_emplace_hint_uniqueIJRKSt21piecewise_construct_tSt5tupleIJOS5_EESL_IJEEEEESt17_Rb_tree_iteratorISB_ESt23_Rb_tree_const_iteratorISB_EDpOT_.lto_priv.0(%rip)
	cmpq	$0, __gcov7._ZNSt8_Rb_treeINSt7__cxx1112basic_stringIcSt11char_traitsIcESaIcEEESt4pairIKS5_N8Polyfish3UCI6OptionEESt10_Select1stISB_ENS9_19CaseInsensitiveLessESaISB_EE22_M_emplace_hint_uniqueIJRKSt21piecewise_construct_tSt5tupleIJOS5_EESL_IJEEEEESt17_Rb_tree_iteratorISB_ESt23_Rb_tree_const_iteratorISB_EDpOT_.lto_priv.0(%rip)
	je	.L385
.L363:
	addq	$1, __gcov0._ZNSt8_Rb_treeINSt7__cxx1112basic_stringIcSt11char_traitsIcESaIcEEESt4pairIKS5_N8Polyfish3UCI6OptionEESt10_Select1stISB_ENS9_19CaseInsensitiveLessESaISB_EE14_M_create_nodeIJRKSt21piecewise_construct_tSt5tupleIJOS5_EESL_IJEEEEEPSt13_Rb_tree_nodeISB_EDpOT_.lto_priv.0(%rip)
	cmpq	$0, __gcov7._ZNSt8_Rb_treeINSt7__cxx1112basic_stringIcSt11char_traitsIcESaIcEEESt4pairIKS5_N8Polyfish3UCI6OptionEESt10_Select1stISB_ENS9_19CaseInsensitiveLessESaISB_EE14_M_create_nodeIJRKSt21piecewise_construct_tSt5tupleIJOS5_EESL_IJEEEEEPSt13_Rb_tree_nodeISB_EDpOT_.lto_priv.0(%rip)
	je	.L398
.L365:
	cmpq	$0, __gcov7._ZN9__gnu_cxx13new_allocatorISt13_Rb_tree_nodeISt4pairIKNSt7__cxx1112basic_stringIcSt11char_traitsIcESaIcEEEN8Polyfish3UCI6OptionEEEE8allocateEyPKv.lto_priv.0(%rip)
	je	.L399
.L366:
	movl	$184, %ecx
	addq	$1, __gcov0._ZN9__gnu_cxx13new_allocatorISt13_Rb_tree_nodeISt4pairIKNSt7__cxx1112basic_stringIcSt11char_traitsIcESaIcEEEN8Polyfish3UCI6OptionEEEE8allocateEyPKv.lto_priv.0(%rip)
	call	_Znwy
	addq	$1, 24+__gcov0._ZN9__gnu_cxx13new_allocatorISt13_Rb_tree_nodeISt4pairIKNSt7__cxx1112basic_stringIcSt11char_traitsIcESaIcEEEN8Polyfish3UCI6OptionEEEE8allocateEyPKv.lto_priv.0(%rip)
	movq	(%rbx), %rbx
	addq	$1, 8+__gcov0._ZNSt8_Rb_treeINSt7__cxx1112basic_stringIcSt11char_traitsIcESaIcEEESt4pairIKS5_N8Polyfish3UCI6OptionEESt10_Select1stISB_ENS9_19CaseInsensitiveLessESaISB_EE14_M_create_nodeIJRKSt21piecewise_construct_tSt5tupleIJOS5_EESL_IJEEEEEPSt13_Rb_tree_nodeISB_EDpOT_.lto_priv.0(%rip)
	cmpq	$0, (%rsi)
	movq	%rax, %r12
	leaq	32(%rax), %rbp
	jne	.L400
.L367:
	cmpq	$0, __gcov7._ZNSt4pairIKNSt7__cxx1112basic_stringIcSt11char_traitsIcESaIcEEEN8Polyfish3UCI6OptionEEC1IJOS5_EJLy0EEJEJEEERSt5tupleIJDpT_EERSD_IJDpT1_EESt12_Index_tupleIJXspT0_EEESM_IJXspT2_EEE.lto_priv.0(%rip)
	je	.L401
.L368:
	leaq	48(%r12), %rdi
	leaq	16(%rbx), %rax
	movq	%rdi, 32(%r12)
	movq	(%rbx), %rdx
	cmpq	%rax, %rdx
	je	.L402
	movq	%rdx, 32(%r12)
	movq	16(%rbx), %rdx
	addq	$1, 8+__gcov0._ZNSt4pairIKNSt7__cxx1112basic_stringIcSt11char_traitsIcESaIcEEEN8Polyfish3UCI6OptionEEC1IJOS5_EJLy0EEJEJEEERSt5tupleIJDpT_EERSD_IJDpT1_EESt12_Index_tupleIJXspT0_EEESM_IJXspT2_EEE.lto_priv.0(%rip)
	movq	%rdx, 48(%r12)
.L370:
	movq	8(%rbx), %rdx
	movq	%rax, (%rbx)
	leaq	64(%r12), %rcx
	movq	$0, 8(%rbx)
	movq	%rdx, 40(%r12)
	xorl	%edx, %edx
	movb	$0, 16(%rbx)
	call	_ZN8Polyfish3UCI6OptionC1EPFvRKS1_E
	movq	%r13, %r8
	leaq	32(%rsp), %rcx
	movq	%rbp, %r9
	movq	%r14, %rdx
	addq	$1, 16+__gcov0._ZNSt4pairIKNSt7__cxx1112basic_stringIcSt11char_traitsIcESaIcEEEN8Polyfish3UCI6OptionEEC1IJOS5_EJLy0EEJEJEEERSt5tupleIJDpT_EERSD_IJDpT1_EESt12_Index_tupleIJXspT0_EEESM_IJXspT2_EEE.lto_priv.0(%rip)
	addq	$1, 16+__gcov0._ZNSt8_Rb_treeINSt7__cxx1112basic_stringIcSt11char_traitsIcESaIcEEESt4pairIKS5_N8Polyfish3UCI6OptionEESt10_Select1stISB_ENS9_19CaseInsensitiveLessESaISB_EE14_M_create_nodeIJRKSt21piecewise_construct_tSt5tupleIJOS5_EESL_IJEEEEEPSt13_Rb_tree_nodeISB_EDpOT_.lto_priv.0(%rip)
	addq	$1, 8+__gcov0._ZNSt8_Rb_treeINSt7__cxx1112basic_stringIcSt11char_traitsIcESaIcEEESt4pairIKS5_N8Polyfish3UCI6OptionEESt10_Select1stISB_ENS9_19CaseInsensitiveLessESaISB_EE22_M_emplace_hint_uniqueIJRKSt21piecewise_construct_tSt5tupleIJOS5_EESL_IJEEEEESt17_Rb_tree_iteratorISB_ESt23_Rb_tree_const_iteratorISB_EDpOT_.lto_priv.0(%rip)
	call	_ZNSt8_Rb_treeINSt7__cxx1112basic_stringIcSt11char_traitsIcESaIcEEESt4pairIKS5_N8Polyfish3UCI6OptionEESt10_Select1stISB_ENS9_19CaseInsensitiveLessESaISB_EE29_M_get_insert_hint_unique_posESt23_Rb_tree_const_iteratorISB_ERS7_
	movq	40(%rsp), %r8
	movq	32(%rsp), %r13
	testq	%r8, %r8
	je	.L371
	movq	%r12, %r9
	movq	%r13, %rdx
	movq	%r14, %rcx
	addq	$1, 16+__gcov0._ZNSt8_Rb_treeINSt7__cxx1112basic_stringIcSt11char_traitsIcESaIcEEESt4pairIKS5_N8Polyfish3UCI6OptionEESt10_Select1stISB_ENS9_19CaseInsensitiveLessESaISB_EE22_M_emplace_hint_uniqueIJRKSt21piecewise_construct_tSt5tupleIJOS5_EESL_IJEEEEESt17_Rb_tree_iteratorISB_ESt23_Rb_tree_const_iteratorISB_EDpOT_.lto_priv.0(%rip)
	call	_ZNSt8_Rb_treeINSt7__cxx1112basic_stringIcSt11char_traitsIcESaIcEEESt4pairIKS5_N8Polyfish3UCI6OptionEESt10_Select1stISB_ENS9_19CaseInsensitiveLessESaISB_EE14_M_insert_nodeEPSt18_Rb_tree_node_baseSI_PSt13_Rb_tree_nodeISB_E
	addq	$1, 32+__gcov0._ZNSt8_Rb_treeINSt7__cxx1112basic_stringIcSt11char_traitsIcESaIcEEESt4pairIKS5_N8Polyfish3UCI6OptionEESt10_Select1stISB_ENS9_19CaseInsensitiveLessESaISB_EE22_M_emplace_hint_uniqueIJRKSt21piecewise_construct_tSt5tupleIJOS5_EESL_IJEEEEESt17_Rb_tree_iteratorISB_ESt23_Rb_tree_const_iteratorISB_EDpOT_.lto_priv.0(%rip)
	addq	$48, %rsp
	popq	%rbx
	popq	%rsi
	popq	%rdi
	popq	%rbp
	popq	%r12
	popq	%r13
	popq	%r14
	ret
	.p2align 4,,10
	.p2align 3
.L402:
	vmovdqu	16(%rbx), %xmm0
	addq	$1, __gcov0._ZNSt4pairIKNSt7__cxx1112basic_stringIcSt11char_traitsIcESaIcEEEN8Polyfish3UCI6OptionEEC1IJOS5_EJLy0EEJEJEEERSt5tupleIJDpT_EERSD_IJDpT1_EESt12_Index_tupleIJXspT0_EEESM_IJXspT2_EEE.lto_priv.0(%rip)
	vmovdqu	%xmm0, 48(%r12)
	jmp	.L370
	.p2align 4,,10
	.p2align 3
.L371:
	movq	(%rsi), %rax
	addq	$1, 24+__gcov0._ZNSt8_Rb_treeINSt7__cxx1112basic_stringIcSt11char_traitsIcESaIcEEESt4pairIKS5_N8Polyfish3UCI6OptionEESt10_Select1stISB_ENS9_19CaseInsensitiveLessESaISB_EE22_M_emplace_hint_uniqueIJRKSt21piecewise_construct_tSt5tupleIJOS5_EESL_IJEEEEESt17_Rb_tree_iteratorISB_ESt23_Rb_tree_const_iteratorISB_EDpOT_.lto_priv.0(%rip)
	testq	%rax, %rax
	jne	.L403
	addq	$1, __gcov0._ZNSt4pairIKNSt7__cxx1112basic_stringIcSt11char_traitsIcESaIcEEEN8Polyfish3UCI6OptionEED1Ev.lto_priv.0(%rip)
	cmpq	$0, __gcov7._ZNSt4pairIKNSt7__cxx1112basic_stringIcSt11char_traitsIcESaIcEEEN8Polyfish3UCI6OptionEED1Ev.lto_priv.0(%rip)
	je	.L383
.L375:
	cmpq	$0, __gcov7._ZN8Polyfish3UCI6OptionD1Ev.lto_priv.0(%rip)
	je	.L404
.L376:
	movq	128(%r12), %rcx
	leaq	144(%r12), %rax
	cmpq	%rax, %rcx
	je	.L405
	movq	144(%r12), %rax
	addq	$1, __gcov0._ZN8Polyfish3UCI6OptionD1Ev.lto_priv.0(%rip)
	leaq	1(%rax), %rdx
	call	_ZdlPvy
	addq	$1, 16+__gcov0._ZN8Polyfish3UCI6OptionD1Ev.lto_priv.0(%rip)
.L378:
	movq	96(%r12), %rcx
	leaq	112(%r12), %rax
	cmpq	%rax, %rcx
	je	.L379
	movq	112(%r12), %rax
	addq	$1, 24+__gcov0._ZN8Polyfish3UCI6OptionD1Ev.lto_priv.0(%rip)
	leaq	1(%rax), %rdx
	call	_ZdlPvy
	addq	$1, 32+__gcov0._ZN8Polyfish3UCI6OptionD1Ev.lto_priv.0(%rip)
.L379:
	movq	64(%r12), %rcx
	leaq	80(%r12), %rax
	cmpq	%rax, %rcx
	je	.L380
	movq	80(%r12), %rax
	addq	$1, 40+__gcov0._ZN8Polyfish3UCI6OptionD1Ev.lto_priv.0(%rip)
	leaq	1(%rax), %rdx
	call	_ZdlPvy
	addq	$1, 48+__gcov0._ZN8Polyfish3UCI6OptionD1Ev.lto_priv.0(%rip)
.L380:
	movq	32(%r12), %rcx
	cmpq	%rcx, %rdi
	je	.L406
	movq	48(%r12), %rax
	addq	$1, 8+__gcov0._ZNSt4pairIKNSt7__cxx1112basic_stringIcSt11char_traitsIcESaIcEEEN8Polyfish3UCI6OptionEED1Ev.lto_priv.0(%rip)
	leaq	1(%rax), %rdx
	call	_ZdlPvy
	addq	$1, 24+__gcov0._ZNSt4pairIKNSt7__cxx1112basic_stringIcSt11char_traitsIcESaIcEEEN8Polyfish3UCI6OptionEED1Ev.lto_priv.0(%rip)
.L382:
	movl	$184, %edx
	movq	%r12, %rcx
	addq	$1, 40+__gcov0._ZNSt8_Rb_treeINSt7__cxx1112basic_stringIcSt11char_traitsIcESaIcEEESt4pairIKS5_N8Polyfish3UCI6OptionEESt10_Select1stISB_ENS9_19CaseInsensitiveLessESaISB_EE22_M_emplace_hint_uniqueIJRKSt21piecewise_construct_tSt5tupleIJOS5_EESL_IJEEEEESt17_Rb_tree_iteratorISB_ESt23_Rb_tree_const_iteratorISB_EDpOT_.lto_priv.0(%rip)
	call	_ZdlPvy
	addq	$1, 48+__gcov0._ZNSt8_Rb_treeINSt7__cxx1112basic_stringIcSt11char_traitsIcESaIcEEESt4pairIKS5_N8Polyfish3UCI6OptionEESt10_Select1stISB_ENS9_19CaseInsensitiveLessESaISB_EE22_M_emplace_hint_uniqueIJRKSt21piecewise_construct_tSt5tupleIJOS5_EESL_IJEEEEESt17_Rb_tree_iteratorISB_ESt23_Rb_tree_const_iteratorISB_EDpOT_.lto_priv.0(%rip)
	movq	%r13, %rax
	addq	$48, %rsp
	popq	%rbx
	popq	%rsi
	popq	%rdi
	popq	%rbp
	popq	%r12
	popq	%r13
	popq	%r14
	ret
	.p2align 4,,10
	.p2align 3
.L405:
	addq	$1, 8+__gcov0._ZN8Polyfish3UCI6OptionD1Ev.lto_priv.0(%rip)
	jmp	.L378
	.p2align 4,,10
	.p2align 3
.L403:
	leaq	_ZNSt4pairIKNSt7__cxx1112basic_stringIcSt11char_traitsIcESaIcEEEN8Polyfish3UCI6OptionEED1Ev(%rip), %rdx
	movl	$248092306, %ecx
	call	__gcov_indirect_call_profiler_v4
	addq	$1, __gcov0._ZNSt4pairIKNSt7__cxx1112basic_stringIcSt11char_traitsIcESaIcEEEN8Polyfish3UCI6OptionEED1Ev.lto_priv.0(%rip)
	movq	(%rsi), %rax
	cmpq	$0, __gcov7._ZNSt4pairIKNSt7__cxx1112basic_stringIcSt11char_traitsIcESaIcEEEN8Polyfish3UCI6OptionEED1Ev.lto_priv.0(%rip)
	jne	.L374
.L383:
	movq	.refptr.__gcov_time_profiler_counter(%rip), %rcx
	movq	(%rcx), %rsi
	leaq	1(%rsi), %rdx
	movq	%rdx, __gcov7._ZNSt4pairIKNSt7__cxx1112basic_stringIcSt11char_traitsIcESaIcEEEN8Polyfish3UCI6OptionEED1Ev.lto_priv.0(%rip)
	movq	%rdx, (%rcx)
.L374:
	testq	%rax, %rax
	je	.L375
	leaq	_ZN8Polyfish3UCI6OptionD1Ev(%rip), %rdx
	movl	$37319833, %ecx
	call	__gcov_indirect_call_profiler_v4
	jmp	.L375
	.p2align 4,,10
	.p2align 3
.L397:
	leaq	_ZNSt8_Rb_treeINSt7__cxx1112basic_stringIcSt11char_traitsIcESaIcEEESt4pairIKS5_N8Polyfish3UCI6OptionEESt10_Select1stISB_ENS9_19CaseInsensitiveLessESaISB_EE22_M_emplace_hint_uniqueIJRKSt21piecewise_construct_tSt5tupleIJOS5_EESL_IJEEEEESt17_Rb_tree_iteratorISB_ESt23_Rb_tree_const_iteratorISB_EDpOT_(%rip), %rdx
	movl	$28651378, %ecx
	call	__gcov_indirect_call_profiler_v4
	addq	$1, __gcov0._ZNSt8_Rb_treeINSt7__cxx1112basic_stringIcSt11char_traitsIcESaIcEEESt4pairIKS5_N8Polyfish3UCI6OptionEESt10_Select1stISB_ENS9_19CaseInsensitiveLessESaISB_EE22_M_emplace_hint_uniqueIJRKSt21piecewise_construct_tSt5tupleIJOS5_EESL_IJEEEEESt17_Rb_tree_iteratorISB_ESt23_Rb_tree_const_iteratorISB_EDpOT_.lto_priv.0(%rip)
	movq	(%rsi), %rax
	cmpq	$0, __gcov7._ZNSt8_Rb_treeINSt7__cxx1112basic_stringIcSt11char_traitsIcESaIcEEESt4pairIKS5_N8Polyfish3UCI6OptionEESt10_Select1stISB_ENS9_19CaseInsensitiveLessESaISB_EE22_M_emplace_hint_uniqueIJRKSt21piecewise_construct_tSt5tupleIJOS5_EESL_IJEEEEESt17_Rb_tree_iteratorISB_ESt23_Rb_tree_const_iteratorISB_EDpOT_.lto_priv.0(%rip)
	jne	.L362
	.p2align 4,,10
	.p2align 3
.L385:
	movq	.refptr.__gcov_time_profiler_counter(%rip), %rcx
	movq	(%rcx), %rdi
	leaq	1(%rdi), %rdx
	movq	%rdx, __gcov7._ZNSt8_Rb_treeINSt7__cxx1112basic_stringIcSt11char_traitsIcESaIcEEESt4pairIKS5_N8Polyfish3UCI6OptionEESt10_Select1stISB_ENS9_19CaseInsensitiveLessESaISB_EE22_M_emplace_hint_uniqueIJRKSt21piecewise_construct_tSt5tupleIJOS5_EESL_IJEEEEESt17_Rb_tree_iteratorISB_ESt23_Rb_tree_const_iteratorISB_EDpOT_.lto_priv.0(%rip)
	movq	%rdx, (%rcx)
.L362:
	testq	%rax, %rax
	je	.L363
	leaq	_ZNSt8_Rb_treeINSt7__cxx1112basic_stringIcSt11char_traitsIcESaIcEEESt4pairIKS5_N8Polyfish3UCI6OptionEESt10_Select1stISB_ENS9_19CaseInsensitiveLessESaISB_EE14_M_create_nodeIJRKSt21piecewise_construct_tSt5tupleIJOS5_EESL_IJEEEEEPSt13_Rb_tree_nodeISB_EDpOT_(%rip), %rdx
	movl	$1977782392, %ecx
	call	__gcov_indirect_call_profiler_v4
	addq	$1, __gcov0._ZNSt8_Rb_treeINSt7__cxx1112basic_stringIcSt11char_traitsIcESaIcEEESt4pairIKS5_N8Polyfish3UCI6OptionEESt10_Select1stISB_ENS9_19CaseInsensitiveLessESaISB_EE14_M_create_nodeIJRKSt21piecewise_construct_tSt5tupleIJOS5_EESL_IJEEEEEPSt13_Rb_tree_nodeISB_EDpOT_.lto_priv.0(%rip)
	movq	(%rsi), %rdx
	cmpq	$0, __gcov7._ZNSt8_Rb_treeINSt7__cxx1112basic_stringIcSt11char_traitsIcESaIcEEESt4pairIKS5_N8Polyfish3UCI6OptionEESt10_Select1stISB_ENS9_19CaseInsensitiveLessESaISB_EE14_M_create_nodeIJRKSt21piecewise_construct_tSt5tupleIJOS5_EESL_IJEEEEEPSt13_Rb_tree_nodeISB_EDpOT_.lto_priv.0(%rip)
	je	.L384
.L364:
	testq	%rdx, %rdx
	je	.L365
	leaq	_ZN9__gnu_cxx13new_allocatorISt13_Rb_tree_nodeISt4pairIKNSt7__cxx1112basic_stringIcSt11char_traitsIcESaIcEEEN8Polyfish3UCI6OptionEEEE8allocateEyPKv(%rip), %rdx
	movl	$1039548790, %ecx
	call	__gcov_indirect_call_profiler_v4
	cmpq	$0, __gcov7._ZN9__gnu_cxx13new_allocatorISt13_Rb_tree_nodeISt4pairIKNSt7__cxx1112basic_stringIcSt11char_traitsIcESaIcEEEN8Polyfish3UCI6OptionEEEE8allocateEyPKv.lto_priv.0(%rip)
	jne	.L366
	.p2align 4,,10
	.p2align 3
.L399:
	movq	.refptr.__gcov_time_profiler_counter(%rip), %rdx
	movq	(%rdx), %rax
	addq	$1, %rax
	movq	%rax, __gcov7._ZN9__gnu_cxx13new_allocatorISt13_Rb_tree_nodeISt4pairIKNSt7__cxx1112basic_stringIcSt11char_traitsIcESaIcEEEN8Polyfish3UCI6OptionEEEE8allocateEyPKv.lto_priv.0(%rip)
	movq	%rax, (%rdx)
	jmp	.L366
	.p2align 4,,10
	.p2align 3
.L398:
	xorl	%edx, %edx
.L384:
	movq	.refptr.__gcov_time_profiler_counter(%rip), %rcx
	movq	(%rcx), %rax
	addq	$1, %rax
	movq	%rax, __gcov7._ZNSt8_Rb_treeINSt7__cxx1112basic_stringIcSt11char_traitsIcESaIcEEESt4pairIKS5_N8Polyfish3UCI6OptionEESt10_Select1stISB_ENS9_19CaseInsensitiveLessESaISB_EE14_M_create_nodeIJRKSt21piecewise_construct_tSt5tupleIJOS5_EESL_IJEEEEEPSt13_Rb_tree_nodeISB_EDpOT_.lto_priv.0(%rip)
	movq	%rax, (%rcx)
	jmp	.L364
	.p2align 4,,10
	.p2align 3
.L401:
	movq	.refptr.__gcov_time_profiler_counter(%rip), %rdx
	movq	(%rdx), %rax
	addq	$1, %rax
	movq	%rax, __gcov7._ZNSt4pairIKNSt7__cxx1112basic_stringIcSt11char_traitsIcESaIcEEEN8Polyfish3UCI6OptionEEC1IJOS5_EJLy0EEJEJEEERSt5tupleIJDpT_EERSD_IJDpT1_EESt12_Index_tupleIJXspT0_EEESM_IJXspT2_EEE.lto_priv.0(%rip)
	movq	%rax, (%rdx)
	jmp	.L368
	.p2align 4,,10
	.p2align 3
.L400:
	leaq	_ZNSt4pairIKNSt7__cxx1112basic_stringIcSt11char_traitsIcESaIcEEEN8Polyfish3UCI6OptionEEC1IJOS5_EJLy0EEJEJEEERSt5tupleIJDpT_EERSD_IJDpT1_EESt12_Index_tupleIJXspT0_EEESM_IJXspT2_EEE(%rip), %rdx
	movl	$946284025, %ecx
	call	__gcov_indirect_call_profiler_v4
	jmp	.L367
	.p2align 4,,10
	.p2align 3
.L406:
	addq	$1, 16+__gcov0._ZNSt4pairIKNSt7__cxx1112basic_stringIcSt11char_traitsIcESaIcEEEN8Polyfish3UCI6OptionEED1Ev.lto_priv.0(%rip)
	jmp	.L382
	.p2align 4,,10
	.p2align 3
.L404:
	movq	.refptr.__gcov_time_profiler_counter(%rip), %rdx
	movq	(%rdx), %rax
	addq	$1, %rax
	movq	%rax, __gcov7._ZN8Polyfish3UCI6OptionD1Ev.lto_priv.0(%rip)
	movq	%rax, (%rdx)
	jmp	.L376
	.seh_endproc
	.align 2
	.p2align 4
	.globl	_ZNSt3mapINSt7__cxx1112basic_stringIcSt11char_traitsIcESaIcEEEN8Polyfish3UCI6OptionENS7_19CaseInsensitiveLessESaISt4pairIKS5_S8_EEEixEOS5_
	.def	_ZNSt3mapINSt7__cxx1112basic_stringIcSt11char_traitsIcESaIcEEEN8Polyfish3UCI6OptionENS7_19CaseInsensitiveLessESaISt4pairIKS5_S8_EEEixEOS5_;	.scl	2;	.type	32;	.endef
	.seh_proc	_ZNSt3mapINSt7__cxx1112basic_stringIcSt11char_traitsIcESaIcEEEN8Polyfish3UCI6OptionENS7_19CaseInsensitiveLessESaISt4pairIKS5_S8_EEEixEOS5_
_ZNSt3mapINSt7__cxx1112basic_stringIcSt11char_traitsIcESaIcEEEN8Polyfish3UCI6OptionENS7_19CaseInsensitiveLessESaISt4pairIKS5_S8_EEEixEOS5_:
	pushq	%r15
	.seh_pushreg	%r15
	pushq	%r14
	.seh_pushreg	%r14
	pushq	%r13
	.seh_pushreg	%r13
	pushq	%r12
	.seh_pushreg	%r12
	pushq	%rbp
	.seh_pushreg	%rbp
	pushq	%rdi
	.seh_pushreg	%rdi
	pushq	%rsi
	.seh_pushreg	%rsi
	pushq	%rbx
	.seh_pushreg	%rbx
	subq	$88, %rsp
	.seh_stackalloc	88
	.seh_endprologue
	movq	.refptr.__gcov_indirect_call(%rip), %r13
	movq	0(%r13), %rax
	movq	%rcx, 160(%rsp)
	movq	%rdx, %rdi
	testq	%rax, %rax
	jne	.L448
	addq	$1, __gcov0._ZNSt3mapINSt7__cxx1112basic_stringIcSt11char_traitsIcESaIcEEEN8Polyfish3UCI6OptionENS7_19CaseInsensitiveLessESaISt4pairIKS5_S8_EEEixEOS5_.lto_priv.0(%rip)
	cmpq	$0, __gcov7._ZNSt3mapINSt7__cxx1112basic_stringIcSt11char_traitsIcESaIcEEEN8Polyfish3UCI6OptionENS7_19CaseInsensitiveLessESaISt4pairIKS5_S8_EEEixEOS5_.lto_priv.0(%rip)
	je	.L430
.L410:
	addq	$1, __gcov0._ZNSt8_Rb_treeINSt7__cxx1112basic_stringIcSt11char_traitsIcESaIcEEESt4pairIKS5_N8Polyfish3UCI6OptionEESt10_Select1stISB_ENS9_19CaseInsensitiveLessESaISB_EE11lower_boundERS7_.lto_priv.0(%rip)
	cmpq	$0, __gcov7._ZNSt8_Rb_treeINSt7__cxx1112basic_stringIcSt11char_traitsIcESaIcEEESt4pairIKS5_N8Polyfish3UCI6OptionEESt10_Select1stISB_ENS9_19CaseInsensitiveLessESaISB_EE11lower_boundERS7_.lto_priv.0(%rip)
	je	.L449
.L411:
	movq	160(%rsp), %rax
	movq	16(%rax), %rbx
	leaq	8(%rax), %r12
	movq	%r12, 56(%rsp)
	testq	%rbx, %rbx
	je	.L412
	leaq	__gcov0._ZNK8Polyfish3UCI19CaseInsensitiveLessclERKNSt7__cxx1112basic_stringIcSt11char_traitsIcESaIcEEES9_.lto_priv.0(%rip), %rsi
	leaq	__gcov7._ZNK8Polyfish3UCI19CaseInsensitiveLessclERKNSt7__cxx1112basic_stringIcSt11char_traitsIcESaIcEEES9_.lto_priv.0(%rip), %rbp
	.p2align 4,,10
	.p2align 3
.L418:
	movq	0(%r13), %r14
	testq	%r14, %r14
	jne	.L450
.L413:
	addq	$1, (%rsi)
	cmpq	$0, 0(%rbp)
	je	.L451
.L414:
	movq	(%rdi), %r15
	movq	32(%rbx), %rcx
	movq	40(%rbx), %rdx
	movq	8(%rdi), %r9
	movq	%r15, %r8
	addq	%rcx, %rdx
	addq	%r15, %r9
	call	_ZSt30__lexicographical_compare_implIN9__gnu_cxx17__normal_iteratorIPKcNSt7__cxx1112basic_stringIcSt11char_traitsIcESaIcEEEEESA_NS0_5__ops15_Iter_comp_iterIZNK8Polyfish3UCI19CaseInsensitiveLessclERKS9_SH_EUlccE_EEEbT_SK_T0_SL_T1_.constprop.0
	movq	16(%rbx), %rcx
	movq	24(%rbx), %rdx
	testb	%al, %al
	jne	.L415
	movq	%rbx, %r12
	movq	%rcx, %rbx
	addq	$1, 8+__gcov0._ZNSt8_Rb_treeINSt7__cxx1112basic_stringIcSt11char_traitsIcESaIcEEESt4pairIKS5_N8Polyfish3UCI6OptionEESt10_Select1stISB_ENS9_19CaseInsensitiveLessESaISB_EE11lower_boundERS7_.lto_priv.0(%rip)
	testq	%rbx, %rbx
	je	.L417
.L453:
	testq	%r14, %r14
	jne	.L418
.L422:
	addq	$1, (%rsi)
	cmpq	$0, 0(%rbp)
	je	.L452
.L419:
	movq	32(%rbx), %rcx
	movq	40(%rbx), %rdx
	movq	%r15, %r8
	movq	8(%rdi), %r9
	addq	%rcx, %rdx
	addq	%r15, %r9
	call	_ZSt30__lexicographical_compare_implIN9__gnu_cxx17__normal_iteratorIPKcNSt7__cxx1112basic_stringIcSt11char_traitsIcESaIcEEEEESA_NS0_5__ops15_Iter_comp_iterIZNK8Polyfish3UCI19CaseInsensitiveLessclERKS9_SH_EUlccE_EEEbT_SK_T0_SL_T1_.constprop.0
	movq	16(%rbx), %rdx
	movq	24(%rbx), %rcx
	testb	%al, %al
	jne	.L420
	addq	$1, 8+__gcov0._ZNSt8_Rb_treeINSt7__cxx1112basic_stringIcSt11char_traitsIcESaIcEEESt4pairIKS5_N8Polyfish3UCI6OptionEESt10_Select1stISB_ENS9_19CaseInsensitiveLessESaISB_EE11lower_boundERS7_.lto_priv.0(%rip)
	movq	%rbx, %r12
	testq	%rdx, %rdx
	je	.L417
	addq	$1, (%rsi)
	cmpq	$0, 0(%rbp)
	movq	%rdx, %rbx
	jne	.L419
.L452:
	movq	.refptr.__gcov_time_profiler_counter(%rip), %rax
	movq	.refptr.__gcov_time_profiler_counter(%rip), %rcx
	movq	(%rax), %rax
	movq	%rax, 48(%rsp)
	addq	$1, %rax
	movq	%rax, 0(%rbp)
	movq	%rax, (%rcx)
	jmp	.L419
	.p2align 4,,10
	.p2align 3
.L420:
	addq	$1, 16+__gcov0._ZNSt8_Rb_treeINSt7__cxx1112basic_stringIcSt11char_traitsIcESaIcEEESt4pairIKS5_N8Polyfish3UCI6OptionEESt10_Select1stISB_ENS9_19CaseInsensitiveLessESaISB_EE11lower_boundERS7_.lto_priv.0(%rip)
	testq	%rcx, %rcx
	je	.L417
	movq	%rcx, %rbx
	jmp	.L422
	.p2align 4,,10
	.p2align 3
.L415:
	movq	%rdx, %rbx
	addq	$1, 16+__gcov0._ZNSt8_Rb_treeINSt7__cxx1112basic_stringIcSt11char_traitsIcESaIcEEESt4pairIKS5_N8Polyfish3UCI6OptionEESt10_Select1stISB_ENS9_19CaseInsensitiveLessESaISB_EE11lower_boundERS7_.lto_priv.0(%rip)
	testq	%rbx, %rbx
	jne	.L453
.L417:
	addq	$1, 24+__gcov0._ZNSt8_Rb_treeINSt7__cxx1112basic_stringIcSt11char_traitsIcESaIcEEESt4pairIKS5_N8Polyfish3UCI6OptionEESt10_Select1stISB_ENS9_19CaseInsensitiveLessESaISB_EE11lower_boundERS7_.lto_priv.0(%rip)
	cmpq	%r12, 56(%rsp)
	je	.L429
	addq	$1, 16+__gcov0._ZNSt3mapINSt7__cxx1112basic_stringIcSt11char_traitsIcESaIcEEEN8Polyfish3UCI6OptionENS7_19CaseInsensitiveLessESaISt4pairIKS5_S8_EEEixEOS5_.lto_priv.0(%rip)
	cmpq	$0, 0(%r13)
	jne	.L454
.L425:
	addq	$1, __gcov0._ZNK8Polyfish3UCI19CaseInsensitiveLessclERKNSt7__cxx1112basic_stringIcSt11char_traitsIcESaIcEEES9_.lto_priv.0(%rip)
	cmpq	$0, __gcov7._ZNK8Polyfish3UCI19CaseInsensitiveLessclERKNSt7__cxx1112basic_stringIcSt11char_traitsIcESaIcEEES9_.lto_priv.0(%rip)
	je	.L455
.L426:
	movq	32(%r12), %r8
	movq	8(%rdi), %rdx
	movq	%r15, %rcx
	movq	40(%r12), %r9
	addq	%r15, %rdx
	addq	%r8, %r9
	call	_ZSt30__lexicographical_compare_implIN9__gnu_cxx17__normal_iteratorIPKcNSt7__cxx1112basic_stringIcSt11char_traitsIcESaIcEEEEESA_NS0_5__ops15_Iter_comp_iterIZNK8Polyfish3UCI19CaseInsensitiveLessclERKS9_SH_EUlccE_EEEbT_SK_T0_SL_T1_.constprop.0
	addq	$1, 24+__gcov0._ZNSt3mapINSt7__cxx1112basic_stringIcSt11char_traitsIcESaIcEEEN8Polyfish3UCI6OptionENS7_19CaseInsensitiveLessESaISt4pairIKS5_S8_EEEixEOS5_.lto_priv.0(%rip)
	testb	%al, %al
	je	.L427
.L424:
	leaq	71(%rsp), %rax
	movq	160(%rsp), %rcx
	movq	%r12, %rdx
	leaq	72(%rsp), %r9
	movq	%rax, 32(%rsp)
	leaq	_ZSt19piecewise_construct(%rip), %r8
	movq	%rdi, 72(%rsp)
	call	_ZNSt8_Rb_treeINSt7__cxx1112basic_stringIcSt11char_traitsIcESaIcEEESt4pairIKS5_N8Polyfish3UCI6OptionEESt10_Select1stISB_ENS9_19CaseInsensitiveLessESaISB_EE22_M_emplace_hint_uniqueIJRKSt21piecewise_construct_tSt5tupleIJOS5_EESL_IJEEEEESt17_Rb_tree_iteratorISB_ESt23_Rb_tree_const_iteratorISB_EDpOT_
	addq	$1, 32+__gcov0._ZNSt3mapINSt7__cxx1112basic_stringIcSt11char_traitsIcESaIcEEEN8Polyfish3UCI6OptionENS7_19CaseInsensitiveLessESaISt4pairIKS5_S8_EEEixEOS5_.lto_priv.0(%rip)
	movq	%rax, %r12
.L428:
	leaq	64(%r12), %rax
	addq	$88, %rsp
	popq	%rbx
	popq	%rsi
	popq	%rdi
	popq	%rbp
	popq	%r12
	popq	%r13
	popq	%r14
	popq	%r15
	ret
	.p2align 4,,10
	.p2align 3
.L451:
	movq	.refptr.__gcov_time_profiler_counter(%rip), %rax
	movq	.refptr.__gcov_time_profiler_counter(%rip), %rcx
	movq	(%rax), %rax
	movq	%rax, 48(%rsp)
	addq	$1, %rax
	movq	%rax, 0(%rbp)
	movq	%rax, (%rcx)
	jmp	.L414
	.p2align 4,,10
	.p2align 3
.L450:
	movq	.refptr._ZNK8Polyfish3UCI19CaseInsensitiveLessclERKNSt7__cxx1112basic_stringIcSt11char_traitsIcESaIcEEES9_(%rip), %rdx
	movl	$1359473883, %ecx
	call	__gcov_indirect_call_profiler_v4
	jmp	.L413
	.p2align 4,,10
	.p2align 3
.L427:
	addq	$1, 40+__gcov0._ZNSt3mapINSt7__cxx1112basic_stringIcSt11char_traitsIcESaIcEEEN8Polyfish3UCI6OptionENS7_19CaseInsensitiveLessESaISt4pairIKS5_S8_EEEixEOS5_.lto_priv.0(%rip)
	jmp	.L428
	.p2align 4,,10
	.p2align 3
.L412:
	addq	$1, 24+__gcov0._ZNSt8_Rb_treeINSt7__cxx1112basic_stringIcSt11char_traitsIcESaIcEEESt4pairIKS5_N8Polyfish3UCI6OptionEESt10_Select1stISB_ENS9_19CaseInsensitiveLessESaISB_EE11lower_boundERS7_.lto_priv.0(%rip)
.L429:
	addq	$1, 8+__gcov0._ZNSt3mapINSt7__cxx1112basic_stringIcSt11char_traitsIcESaIcEEEN8Polyfish3UCI6OptionENS7_19CaseInsensitiveLessESaISt4pairIKS5_S8_EEEixEOS5_.lto_priv.0(%rip)
	jmp	.L424
	.p2align 4,,10
	.p2align 3
.L449:
	movq	.refptr.__gcov_time_profiler_counter(%rip), %rdx
	movq	(%rdx), %rax
	addq	$1, %rax
	movq	%rax, __gcov7._ZNSt8_Rb_treeINSt7__cxx1112basic_stringIcSt11char_traitsIcESaIcEEESt4pairIKS5_N8Polyfish3UCI6OptionEESt10_Select1stISB_ENS9_19CaseInsensitiveLessESaISB_EE11lower_boundERS7_.lto_priv.0(%rip)
	movq	%rax, (%rdx)
	jmp	.L411
	.p2align 4,,10
	.p2align 3
.L448:
	leaq	_ZNSt3mapINSt7__cxx1112basic_stringIcSt11char_traitsIcESaIcEEEN8Polyfish3UCI6OptionENS7_19CaseInsensitiveLessESaISt4pairIKS5_S8_EEEixEOS5_(%rip), %rdx
	movl	$381286301, %ecx
	call	__gcov_indirect_call_profiler_v4
	addq	$1, __gcov0._ZNSt3mapINSt7__cxx1112basic_stringIcSt11char_traitsIcESaIcEEEN8Polyfish3UCI6OptionENS7_19CaseInsensitiveLessESaISt4pairIKS5_S8_EEEixEOS5_.lto_priv.0(%rip)
	movq	0(%r13), %rax
	cmpq	$0, __gcov7._ZNSt3mapINSt7__cxx1112basic_stringIcSt11char_traitsIcESaIcEEEN8Polyfish3UCI6OptionENS7_19CaseInsensitiveLessESaISt4pairIKS5_S8_EEEixEOS5_.lto_priv.0(%rip)
	je	.L430
.L409:
	testq	%rax, %rax
	je	.L410
	leaq	_ZNSt8_Rb_treeINSt7__cxx1112basic_stringIcSt11char_traitsIcESaIcEEESt4pairIKS5_N8Polyfish3UCI6OptionEESt10_Select1stISB_ENS9_19CaseInsensitiveLessESaISB_EE11lower_boundERS7_(%rip), %rdx
	movl	$1450133761, %ecx
	call	__gcov_indirect_call_profiler_v4
	jmp	.L410
	.p2align 4,,10
	.p2align 3
.L430:
	movq	.refptr.__gcov_time_profiler_counter(%rip), %rcx
	movq	(%rcx), %rsi
	leaq	1(%rsi), %rdx
	movq	%rdx, __gcov7._ZNSt3mapINSt7__cxx1112basic_stringIcSt11char_traitsIcESaIcEEEN8Polyfish3UCI6OptionENS7_19CaseInsensitiveLessESaISt4pairIKS5_S8_EEEixEOS5_.lto_priv.0(%rip)
	movq	%rdx, (%rcx)
	jmp	.L409
	.p2align 4,,10
	.p2align 3
.L454:
	movq	.refptr._ZNK8Polyfish3UCI19CaseInsensitiveLessclERKNSt7__cxx1112basic_stringIcSt11char_traitsIcESaIcEEES9_(%rip), %rdx
	movl	$1359473883, %ecx
	call	__gcov_indirect_call_profiler_v4
	movq	(%rdi), %r15
	jmp	.L425
	.p2align 4,,10
	.p2align 3
.L455:
	movq	.refptr.__gcov_time_profiler_counter(%rip), %rdx
	movq	(%rdx), %rax
	addq	$1, %rax
	movq	%rax, __gcov7._ZNK8Polyfish3UCI19CaseInsensitiveLessclERKNSt7__cxx1112basic_stringIcSt11char_traitsIcESaIcEEES9_.lto_priv.0(%rip)
	movq	%rax, (%rdx)
	jmp	.L426
	.seh_endproc
	.section .rdata,"dr"
.LC5:
	.ascii "button\0"
	.text
	.align 2
	.p2align 4
	.def	_ZNSt4pairIKNSt7__cxx1112basic_stringIcSt11char_traitsIcESaIcEEEN8Polyfish3UCI6OptionEEC1IJOS5_EJLy0EEJEJEEERSt5tupleIJDpT_EERSD_IJDpT1_EESt12_Index_tupleIJXspT0_EEESM_IJXspT2_EEE;	.scl	3;	.type	32;	.endef
	.seh_proc	_ZNSt4pairIKNSt7__cxx1112basic_stringIcSt11char_traitsIcESaIcEEEN8Polyfish3UCI6OptionEEC1IJOS5_EJLy0EEJEJEEERSt5tupleIJDpT_EERSD_IJDpT1_EESt12_Index_tupleIJXspT0_EEESM_IJXspT2_EEE
_ZNSt4pairIKNSt7__cxx1112basic_stringIcSt11char_traitsIcESaIcEEEN8Polyfish3UCI6OptionEEC1IJOS5_EJLy0EEJEJEEERSt5tupleIJDpT_EERSD_IJDpT1_EESt12_Index_tupleIJXspT0_EEESM_IJXspT2_EEE:
	pushq	%r12
	.seh_pushreg	%r12
	pushq	%rdi
	.seh_pushreg	%rdi
	pushq	%rsi
	.seh_pushreg	%rsi
	pushq	%rbx
	.seh_pushreg	%rbx
	subq	$40, %rsp
	.seh_stackalloc	40
	.seh_endprologue
	movq	.refptr.__gcov_indirect_call(%rip), %rdi
	cmpq	$0, (%rdi)
	movq	%rcx, %rbx
	movq	%rdx, %rsi
	jne	.L471
.L457:
	cmpq	$0, __gcov7._ZNSt4pairIKNSt7__cxx1112basic_stringIcSt11char_traitsIcESaIcEEEN8Polyfish3UCI6OptionEEC1IJOS5_EJLy0EEJEJEEERSt5tupleIJDpT_EERSD_IJDpT1_EESt12_Index_tupleIJXspT0_EEESM_IJXspT2_EEE.lto_priv.0(%rip)
	je	.L472
.L458:
	movq	(%rsi), %rax
	leaq	16(%rbx), %rdx
	movq	%rdx, (%rbx)
	movq	(%rax), %rcx
	leaq	16(%rax), %rdx
	cmpq	%rdx, %rcx
	je	.L473
	movq	%rcx, (%rbx)
	movq	16(%rax), %rcx
	addq	$1, 8+__gcov0._ZNSt4pairIKNSt7__cxx1112basic_stringIcSt11char_traitsIcESaIcEEEN8Polyfish3UCI6OptionEEC1IJOS5_EJLy0EEJEJEEERSt5tupleIJDpT_EERSD_IJDpT1_EESt12_Index_tupleIJXspT0_EEESM_IJXspT2_EEE.lto_priv.0(%rip)
	movq	%rcx, 16(%rbx)
.L460:
	movq	8(%rax), %rcx
	movq	%rdx, (%rax)
	movq	$0, 8(%rax)
	movq	%rcx, 8(%rbx)
	movb	$0, 16(%rax)
	movq	(%rdi), %rax
	testq	%rax, %rax
	jne	.L474
.L461:
	addq	$1, __gcov0._ZN8Polyfish3UCI6OptionC2EPFvRKS1_E.lto_priv.0(%rip)
	cmpq	$0, __gcov7._ZN8Polyfish3UCI6OptionC2EPFvRKS1_E.lto_priv.0(%rip)
	je	.L475
.L462:
	leaq	48(%rbx), %rdx
	movb	$0, 48(%rbx)
	leaq	96(%rbx), %r12
	movq	%rdx, 32(%rbx)
	leaq	80(%rbx), %rdx
	movq	$0, 40(%rbx)
	movq	%rdx, 64(%rbx)
	movq	$0, 72(%rbx)
	movb	$0, 80(%rbx)
	testq	%rax, %rax
	jne	.L476
	movq	.refptr.__gcov7._ZNSt7__cxx1112basic_stringIcSt11char_traitsIcESaIcEEC1IS3_EEPKcRKS3_.lto_priv.0(%rip), %rax
	cmpq	$0, (%rax)
	je	.L477
.L464:
	movq	.refptr.__gcov0._ZNSt7__cxx1112basic_stringIcSt11char_traitsIcESaIcEEC1IS3_EEPKcRKS3_.lto_priv.0(%rip), %rsi
	leaq	112(%rbx), %rax
	xorl	%r9d, %r9d
	movq	%r12, %rcx
	movq	%rax, 96(%rbx)
	leaq	6+.LC5(%rip), %r8
	addq	$1, (%rsi)
	leaq	-6(%r8), %rdx
	call	_ZNSt7__cxx1112basic_stringIcSt11char_traitsIcESaIcEE12_M_constructIPKcEEvT_S8_St20forward_iterator_tag
	addq	$1, 16(%rsi)
	addq	$1, 8+__gcov0._ZN8Polyfish3UCI6OptionC2EPFvRKS1_E.lto_priv.0(%rip)
	addq	$1, 16+__gcov0._ZNSt4pairIKNSt7__cxx1112basic_stringIcSt11char_traitsIcESaIcEEEN8Polyfish3UCI6OptionEEC1IJOS5_EJLy0EEJEJEEERSt5tupleIJDpT_EERSD_IJDpT1_EESt12_Index_tupleIJXspT0_EEESM_IJXspT2_EEE.lto_priv.0(%rip)
	movq	$0, 128(%rbx)
	movq	$0, 144(%rbx)
	addq	$40, %rsp
	popq	%rbx
	popq	%rsi
	popq	%rdi
	popq	%r12
	ret
	.p2align 4,,10
	.p2align 3
.L473:
	vmovdqu	16(%rax), %xmm0
	addq	$1, __gcov0._ZNSt4pairIKNSt7__cxx1112basic_stringIcSt11char_traitsIcESaIcEEEN8Polyfish3UCI6OptionEEC1IJOS5_EJLy0EEJEJEEERSt5tupleIJDpT_EERSD_IJDpT1_EESt12_Index_tupleIJXspT0_EEESM_IJXspT2_EEE.lto_priv.0(%rip)
	vmovdqu	%xmm0, 16(%rbx)
	jmp	.L460
	.p2align 4,,10
	.p2align 3
.L472:
	movq	.refptr.__gcov_time_profiler_counter(%rip), %rdx
	movq	(%rdx), %rax
	addq	$1, %rax
	movq	%rax, __gcov7._ZNSt4pairIKNSt7__cxx1112basic_stringIcSt11char_traitsIcESaIcEEEN8Polyfish3UCI6OptionEEC1IJOS5_EJLy0EEJEJEEERSt5tupleIJDpT_EERSD_IJDpT1_EESt12_Index_tupleIJXspT0_EEESM_IJXspT2_EEE.lto_priv.0(%rip)
	movq	%rax, (%rdx)
	jmp	.L458
	.p2align 4,,10
	.p2align 3
.L474:
	movq	.refptr._ZN8Polyfish3UCI6OptionC2EPFvRKS1_E(%rip), %rdx
	movl	$1183119172, %ecx
	call	__gcov_indirect_call_profiler_v4
	movq	(%rdi), %rax
	jmp	.L461
	.p2align 4,,10
	.p2align 3
.L475:
	movq	.refptr.__gcov_time_profiler_counter(%rip), %rcx
	movq	(%rcx), %rdi
	leaq	1(%rdi), %rdx
	movq	%rdx, __gcov7._ZN8Polyfish3UCI6OptionC2EPFvRKS1_E.lto_priv.0(%rip)
	movq	%rdx, (%rcx)
	jmp	.L462
	.p2align 4,,10
	.p2align 3
.L476:
	movq	.refptr._ZNSt7__cxx1112basic_stringIcSt11char_traitsIcESaIcEEC1IS3_EEPKcRKS3_(%rip), %rdx
	movl	$337037418, %ecx
	call	__gcov_indirect_call_profiler_v4
	movq	.refptr.__gcov7._ZNSt7__cxx1112basic_stringIcSt11char_traitsIcESaIcEEC1IS3_EEPKcRKS3_.lto_priv.0(%rip), %rax
	cmpq	$0, (%rax)
	jne	.L464
	.p2align 4,,10
	.p2align 3
.L477:
	movq	.refptr.__gcov_time_profiler_counter(%rip), %rcx
	movq	(%rcx), %rdi
	leaq	1(%rdi), %rdx
	movq	%rdx, (%rax)
	movq	%rdx, (%rcx)
	jmp	.L464
	.p2align 4,,10
	.p2align 3
.L471:
	leaq	_ZNSt4pairIKNSt7__cxx1112basic_stringIcSt11char_traitsIcESaIcEEEN8Polyfish3UCI6OptionEEC1IJOS5_EJLy0EEJEJEEERSt5tupleIJDpT_EERSD_IJDpT1_EESt12_Index_tupleIJXspT0_EEESM_IJXspT2_EEE(%rip), %rdx
	movl	$946284025, %ecx
	call	__gcov_indirect_call_profiler_v4
	jmp	.L457
	.seh_endproc
	.p2align 4
	.globl	__tcf_1.lto_priv.2
	.def	__tcf_1.lto_priv.2;	.scl	2;	.type	32;	.endef
	.seh_proc	__tcf_1.lto_priv.2
__tcf_1.lto_priv.2:
	subq	$40, %rsp
	.seh_stackalloc	40
	.seh_endprologue
	movq	.refptr.__gcov_indirect_call(%rip), %rax
	cmpq	$0, (%rax)
	je	.L479
	leaq	__tcf_1.lto_priv.2(%rip), %rdx
	movl	$1762295583, %ecx
	call	__gcov_indirect_call_profiler_v4
.L479:
	addq	$1, __gcov0.__tcf_1.lto_priv.2(%rip)
	cmpq	$0, __gcov7.__tcf_1.lto_priv.2(%rip)
	jne	.L480
	movq	.refptr.__gcov_time_profiler_counter(%rip), %rdx
	movq	(%rdx), %rax
	addq	$1, %rax
	movq	%rax, __gcov7.__tcf_1.lto_priv.2(%rip)
	movq	%rax, (%rdx)
.L480:
	leaq	_ZStL8__ioinit.lto_priv.2(%rip), %rcx
	call	_ZNSt8ios_base4InitD1Ev
	addq	$1, 8+__gcov0.__tcf_1.lto_priv.2(%rip)
	addq	$40, %rsp
	ret
	.seh_endproc
	.p2align 4
	.globl	__tcf_1.lto_priv.3
	.def	__tcf_1.lto_priv.3;	.scl	2;	.type	32;	.endef
	.seh_proc	__tcf_1.lto_priv.3
__tcf_1.lto_priv.3:
	subq	$40, %rsp
	.seh_stackalloc	40
	.seh_endprologue
	movq	.refptr.__gcov_indirect_call(%rip), %rax
	cmpq	$0, (%rax)
	je	.L482
	leaq	__tcf_1.lto_priv.3(%rip), %rdx
	movl	$319383884, %ecx
	call	__gcov_indirect_call_profiler_v4
.L482:
	addq	$1, __gcov0.__tcf_1.lto_priv.3(%rip)
	cmpq	$0, __gcov7.__tcf_1.lto_priv.3(%rip)
	jne	.L483
	movq	.refptr.__gcov_time_profiler_counter(%rip), %rdx
	movq	(%rdx), %rax
	addq	$1, %rax
	movq	%rax, __gcov7.__tcf_1.lto_priv.3(%rip)
	movq	%rax, (%rdx)
.L483:
	leaq	_ZStL8__ioinit.lto_priv.3(%rip), %rcx
	call	_ZNSt8ios_base4InitD1Ev
	addq	$1, 8+__gcov0.__tcf_1.lto_priv.3(%rip)
	addq	$40, %rsp
	ret
	.seh_endproc
	.p2align 4
	.globl	__tcf_1.lto_priv.4
	.def	__tcf_1.lto_priv.4;	.scl	2;	.type	32;	.endef
	.seh_proc	__tcf_1.lto_priv.4
__tcf_1.lto_priv.4:
	subq	$40, %rsp
	.seh_stackalloc	40
	.seh_endprologue
	movq	.refptr.__gcov_indirect_call(%rip), %rax
	cmpq	$0, (%rax)
	je	.L485
	leaq	__tcf_1.lto_priv.4(%rip), %rdx
	movl	$1603105741, %ecx
	call	__gcov_indirect_call_profiler_v4
.L485:
	addq	$1, __gcov0.__tcf_1.lto_priv.4(%rip)
	cmpq	$0, __gcov7.__tcf_1.lto_priv.4(%rip)
	jne	.L486
	movq	.refptr.__gcov_time_profiler_counter(%rip), %rdx
	movq	(%rdx), %rax
	addq	$1, %rax
	movq	%rax, __gcov7.__tcf_1.lto_priv.4(%rip)
	movq	%rax, (%rdx)
.L486:
	leaq	_ZStL8__ioinit.lto_priv.4(%rip), %rcx
	call	_ZNSt8ios_base4InitD1Ev
	addq	$1, 8+__gcov0.__tcf_1.lto_priv.4(%rip)
	addq	$40, %rsp
	ret
	.seh_endproc
	.p2align 4
	.def	_ZN8Polyfish4Tune8instanceEv;	.scl	3;	.type	32;	.endef
	.seh_proc	_ZN8Polyfish4Tune8instanceEv
_ZN8Polyfish4Tune8instanceEv:
	pushq	%r12
	.seh_pushreg	%r12
	pushq	%rbx
	.seh_pushreg	%rbx
	subq	$40, %rsp
	.seh_stackalloc	40
	.seh_endprologue
	movq	.refptr.__gcov_indirect_call(%rip), %rbx
	cmpq	$0, (%rbx)
	jne	.L498
.L488:
	addq	$1, __gcov0._ZN8Polyfish4Tune8instanceEv(%rip)
	cmpq	$0, __gcov7._ZN8Polyfish4Tune8instanceEv(%rip)
	je	.L499
.L489:
	movzbl	_ZGVZN8Polyfish4Tune8instanceEvE1t(%rip), %eax
	testb	%al, %al
	je	.L500
.L491:
	leaq	_ZZN8Polyfish4Tune8instanceEvE1t(%rip), %rax
	addq	$40, %rsp
	popq	%rbx
	popq	%r12
	ret
	.p2align 4,,10
	.p2align 3
.L500:
	leaq	_ZGVZN8Polyfish4Tune8instanceEvE1t(%rip), %r12
	addq	$1, 8+__gcov0._ZN8Polyfish4Tune8instanceEv(%rip)
	movq	%r12, %rcx
	call	__cxa_guard_acquire
	addq	$1, 16+__gcov0._ZN8Polyfish4Tune8instanceEv(%rip)
	testl	%eax, %eax
	je	.L491
	addq	$1, 24+__gcov0._ZN8Polyfish4Tune8instanceEv(%rip)
	vpxor	%xmm0, %xmm0, %xmm0
	cmpq	$0, (%rbx)
	movq	$0, 16+_ZZN8Polyfish4Tune8instanceEvE1t(%rip)
	vmovdqu	%xmm0, _ZZN8Polyfish4Tune8instanceEvE1t(%rip)
	jne	.L501
.L493:
	addq	$1, __gcov0._ZN8Polyfish4Tune12read_resultsEv.lto_priv.0(%rip)
	cmpq	$0, __gcov7._ZN8Polyfish4Tune12read_resultsEv.lto_priv.0(%rip)
	je	.L502
.L494:
	leaq	__tcf_0(%rip), %rcx
	addq	$1, 32+__gcov0._ZN8Polyfish4Tune8instanceEv(%rip)
	call	atexit
	movq	%r12, %rcx
	addq	$1, 40+__gcov0._ZN8Polyfish4Tune8instanceEv(%rip)
	call	__cxa_guard_release
	addq	$1, 48+__gcov0._ZN8Polyfish4Tune8instanceEv(%rip)
	leaq	_ZZN8Polyfish4Tune8instanceEvE1t(%rip), %rax
	addq	$40, %rsp
	popq	%rbx
	popq	%r12
	ret
	.p2align 4,,10
	.p2align 3
.L498:
	leaq	_ZN8Polyfish4Tune8instanceEv(%rip), %rdx
	movl	$1268758491, %ecx
	call	__gcov_indirect_call_profiler_v4
	jmp	.L488
	.p2align 4,,10
	.p2align 3
.L499:
	movq	.refptr.__gcov_time_profiler_counter(%rip), %rdx
	movq	(%rdx), %rax
	addq	$1, %rax
	movq	%rax, __gcov7._ZN8Polyfish4Tune8instanceEv(%rip)
	movq	%rax, (%rdx)
	jmp	.L489
	.p2align 4,,10
	.p2align 3
.L501:
	movq	.refptr._ZN8Polyfish4Tune12read_resultsEv(%rip), %rdx
	movl	$104562550, %ecx
	call	__gcov_indirect_call_profiler_v4
	jmp	.L493
	.p2align 4,,10
	.p2align 3
.L502:
	movq	.refptr.__gcov_time_profiler_counter(%rip), %rdx
	movq	(%rdx), %rax
	addq	$1, %rax
	movq	%rax, __gcov7._ZN8Polyfish4Tune12read_resultsEv.lto_priv.0(%rip)
	movq	%rax, (%rdx)
	jmp	.L494
	.seh_endproc
	.p2align 4
	.def	_ZN8Polyfish4Tune4initEv;	.scl	3;	.type	32;	.endef
	.seh_proc	_ZN8Polyfish4Tune4initEv
_ZN8Polyfish4Tune4initEv:
	pushq	%r12
	.seh_pushreg	%r12
	pushq	%rbp
	.seh_pushreg	%rbp
	pushq	%rdi
	.seh_pushreg	%rdi
	pushq	%rsi
	.seh_pushreg	%rsi
	pushq	%rbx
	.seh_pushreg	%rbx
	subq	$32, %rsp
	.seh_stackalloc	32
	.seh_endprologue
	movq	.refptr.__gcov_indirect_call(%rip), %rbx
	movq	(%rbx), %rax
	testq	%rax, %rax
	jne	.L550
	addq	$1, __gcov0._ZN8Polyfish4Tune4initEv(%rip)
	cmpq	$0, __gcov7._ZN8Polyfish4Tune4initEv(%rip)
	je	.L530
.L506:
	addq	$1, __gcov0._ZN8Polyfish4Tune8instanceEv(%rip)
	cmpq	$0, __gcov7._ZN8Polyfish4Tune8instanceEv(%rip)
	je	.L551
.L507:
	movzbl	_ZGVZN8Polyfish4Tune8instanceEvE1t(%rip), %eax
	testb	%al, %al
	je	.L552
.L509:
	movq	8+_ZZN8Polyfish4Tune8instanceEvE1t(%rip), %rdi
	movq	_ZZN8Polyfish4Tune8instanceEvE1t(%rip), %rsi
	leaq	__gcov4._ZN8Polyfish4Tune4initEv(%rip), %rbp
	addq	$1, 8+__gcov0._ZN8Polyfish4Tune4initEv(%rip)
	cmpq	%rsi, %rdi
	je	.L517
	.p2align 4,,10
	.p2align 3
.L516:
	movq	(%rsi), %rcx
	addq	$8, %rsi
	movq	(%rcx), %rax
	movq	%rbp, 8(%rbx)
	movq	16(%rax), %rax
	movq	%rax, (%rbx)
	call	*%rax
	addq	$1, 16+__gcov0._ZN8Polyfish4Tune4initEv(%rip)
	cmpq	%rsi, %rdi
	jne	.L516
.L517:
	movq	(%rbx), %rax
	addq	$1, 24+__gcov0._ZN8Polyfish4Tune4initEv(%rip)
	testq	%rax, %rax
	jne	.L553
	addq	$1, __gcov0._ZN8Polyfish4Tune12read_optionsEv(%rip)
	cmpq	$0, __gcov7._ZN8Polyfish4Tune12read_optionsEv(%rip)
	je	.L529
.L519:
	addq	$1, __gcov0._ZN8Polyfish4Tune8instanceEv(%rip)
	cmpq	$0, __gcov7._ZN8Polyfish4Tune8instanceEv(%rip)
	je	.L554
.L520:
	movzbl	_ZGVZN8Polyfish4Tune8instanceEvE1t(%rip), %eax
	testb	%al, %al
	je	.L555
.L522:
	movq	8+_ZZN8Polyfish4Tune8instanceEvE1t(%rip), %rdi
	movq	_ZZN8Polyfish4Tune8instanceEvE1t(%rip), %rsi
	leaq	__gcov4._ZN8Polyfish4Tune12read_optionsEv(%rip), %rbp
	addq	$1, 8+__gcov0._ZN8Polyfish4Tune12read_optionsEv(%rip)
	cmpq	%rdi, %rsi
	je	.L528
	.p2align 4,,10
	.p2align 3
.L527:
	movq	(%rsi), %rcx
	addq	$8, %rsi
	movq	(%rcx), %rax
	movq	%rbp, 8(%rbx)
	movq	24(%rax), %rax
	movq	%rax, (%rbx)
	call	*%rax
	addq	$1, 16+__gcov0._ZN8Polyfish4Tune12read_optionsEv(%rip)
	cmpq	%rsi, %rdi
	jne	.L527
.L528:
	addq	$1, 24+__gcov0._ZN8Polyfish4Tune12read_optionsEv(%rip)
	addq	$1, 32+__gcov0._ZN8Polyfish4Tune4initEv(%rip)
	addq	$32, %rsp
	popq	%rbx
	popq	%rsi
	popq	%rdi
	popq	%rbp
	popq	%r12
	ret
	.p2align 4,,10
	.p2align 3
.L552:
	leaq	_ZGVZN8Polyfish4Tune8instanceEvE1t(%rip), %r12
	addq	$1, 8+__gcov0._ZN8Polyfish4Tune8instanceEv(%rip)
	movq	%r12, %rcx
	call	__cxa_guard_acquire
	addq	$1, 16+__gcov0._ZN8Polyfish4Tune8instanceEv(%rip)
	testl	%eax, %eax
	je	.L509
	addq	$1, 24+__gcov0._ZN8Polyfish4Tune8instanceEv(%rip)
	vpxor	%xmm0, %xmm0, %xmm0
	cmpq	$0, (%rbx)
	movq	$0, 16+_ZZN8Polyfish4Tune8instanceEvE1t(%rip)
	vmovdqu	%xmm0, _ZZN8Polyfish4Tune8instanceEvE1t(%rip)
	jne	.L556
.L511:
	addq	$1, __gcov0._ZN8Polyfish4Tune12read_resultsEv.lto_priv.0(%rip)
	cmpq	$0, __gcov7._ZN8Polyfish4Tune12read_resultsEv.lto_priv.0(%rip)
	je	.L557
.L512:
	leaq	__tcf_0(%rip), %rcx
	addq	$1, 32+__gcov0._ZN8Polyfish4Tune8instanceEv(%rip)
	call	atexit
	movq	%r12, %rcx
	addq	$1, 40+__gcov0._ZN8Polyfish4Tune8instanceEv(%rip)
	call	__cxa_guard_release
	addq	$1, 48+__gcov0._ZN8Polyfish4Tune8instanceEv(%rip)
	jmp	.L509
	.p2align 4,,10
	.p2align 3
.L555:
	leaq	_ZGVZN8Polyfish4Tune8instanceEvE1t(%rip), %r12
	addq	$1, 8+__gcov0._ZN8Polyfish4Tune8instanceEv(%rip)
	movq	%r12, %rcx
	call	__cxa_guard_acquire
	addq	$1, 16+__gcov0._ZN8Polyfish4Tune8instanceEv(%rip)
	testl	%eax, %eax
	je	.L522
	addq	$1, 24+__gcov0._ZN8Polyfish4Tune8instanceEv(%rip)
	vpxor	%xmm0, %xmm0, %xmm0
	cmpq	$0, (%rbx)
	movq	$0, 16+_ZZN8Polyfish4Tune8instanceEvE1t(%rip)
	vmovdqu	%xmm0, _ZZN8Polyfish4Tune8instanceEvE1t(%rip)
	jne	.L558
.L524:
	addq	$1, __gcov0._ZN8Polyfish4Tune12read_resultsEv.lto_priv.0(%rip)
	cmpq	$0, __gcov7._ZN8Polyfish4Tune12read_resultsEv.lto_priv.0(%rip)
	je	.L559
.L525:
	leaq	__tcf_0(%rip), %rcx
	addq	$1, 32+__gcov0._ZN8Polyfish4Tune8instanceEv(%rip)
	call	atexit
	movq	%r12, %rcx
	addq	$1, 40+__gcov0._ZN8Polyfish4Tune8instanceEv(%rip)
	call	__cxa_guard_release
	addq	$1, 48+__gcov0._ZN8Polyfish4Tune8instanceEv(%rip)
	jmp	.L522
	.p2align 4,,10
	.p2align 3
.L553:
	leaq	_ZN8Polyfish4Tune12read_optionsEv(%rip), %rdx
	movl	$1304833717, %ecx
	call	__gcov_indirect_call_profiler_v4
	addq	$1, __gcov0._ZN8Polyfish4Tune12read_optionsEv(%rip)
	movq	(%rbx), %rax
	cmpq	$0, __gcov7._ZN8Polyfish4Tune12read_optionsEv(%rip)
	je	.L529
.L518:
	testq	%rax, %rax
	je	.L519
	leaq	_ZN8Polyfish4Tune8instanceEv(%rip), %rdx
	movl	$1268758491, %ecx
	call	__gcov_indirect_call_profiler_v4
	jmp	.L519
	.p2align 4,,10
	.p2align 3
.L529:
	movq	.refptr.__gcov_time_profiler_counter(%rip), %rcx
	movq	(%rcx), %rdx
	addq	$1, %rdx
	movq	%rdx, __gcov7._ZN8Polyfish4Tune12read_optionsEv(%rip)
	movq	%rdx, (%rcx)
	jmp	.L518
	.p2align 4,,10
	.p2align 3
.L554:
	movq	.refptr.__gcov_time_profiler_counter(%rip), %rdx
	movq	(%rdx), %rax
	addq	$1, %rax
	movq	%rax, __gcov7._ZN8Polyfish4Tune8instanceEv(%rip)
	movq	%rax, (%rdx)
	jmp	.L520
	.p2align 4,,10
	.p2align 3
.L551:
	movq	.refptr.__gcov_time_profiler_counter(%rip), %rdx
	movq	(%rdx), %rax
	addq	$1, %rax
	movq	%rax, __gcov7._ZN8Polyfish4Tune8instanceEv(%rip)
	movq	%rax, (%rdx)
	jmp	.L507
	.p2align 4,,10
	.p2align 3
.L550:
	leaq	_ZN8Polyfish4Tune4initEv(%rip), %rdx
	movl	$381993374, %ecx
	call	__gcov_indirect_call_profiler_v4
	addq	$1, __gcov0._ZN8Polyfish4Tune4initEv(%rip)
	movq	(%rbx), %rax
	cmpq	$0, __gcov7._ZN8Polyfish4Tune4initEv(%rip)
	je	.L530
.L505:
	testq	%rax, %rax
	je	.L506
	leaq	_ZN8Polyfish4Tune8instanceEv(%rip), %rdx
	movl	$1268758491, %ecx
	call	__gcov_indirect_call_profiler_v4
	jmp	.L506
	.p2align 4,,10
	.p2align 3
.L530:
	movq	.refptr.__gcov_time_profiler_counter(%rip), %rcx
	movq	(%rcx), %rdx
	addq	$1, %rdx
	movq	%rdx, __gcov7._ZN8Polyfish4Tune4initEv(%rip)
	movq	%rdx, (%rcx)
	jmp	.L505
.L558:
	movq	.refptr._ZN8Polyfish4Tune12read_resultsEv(%rip), %rdx
	movl	$104562550, %ecx
	call	__gcov_indirect_call_profiler_v4
	jmp	.L524
.L557:
	movq	.refptr.__gcov_time_profiler_counter(%rip), %rdx
	movq	(%rdx), %rax
	addq	$1, %rax
	movq	%rax, __gcov7._ZN8Polyfish4Tune12read_resultsEv.lto_priv.0(%rip)
	movq	%rax, (%rdx)
	jmp	.L512
.L556:
	movq	.refptr._ZN8Polyfish4Tune12read_resultsEv(%rip), %rdx
	movl	$104562550, %ecx
	call	__gcov_indirect_call_profiler_v4
	jmp	.L511
.L559:
	movq	.refptr.__gcov_time_profiler_counter(%rip), %rdx
	movq	(%rdx), %rax
	addq	$1, %rax
	movq	%rax, __gcov7._ZN8Polyfish4Tune12read_resultsEv.lto_priv.0(%rip)
	movq	%rax, (%rdx)
	jmp	.L525
	.seh_endproc
	.p2align 4
	.def	_ZN8Polyfish4Tune12read_optionsEv;	.scl	3;	.type	32;	.endef
	.seh_proc	_ZN8Polyfish4Tune12read_optionsEv
_ZN8Polyfish4Tune12read_optionsEv:
	pushq	%r12
	.seh_pushreg	%r12
	pushq	%rbp
	.seh_pushreg	%rbp
	pushq	%rdi
	.seh_pushreg	%rdi
	pushq	%rsi
	.seh_pushreg	%rsi
	pushq	%rbx
	.seh_pushreg	%rbx
	subq	$32, %rsp
	.seh_stackalloc	32
	.seh_endprologue
	movq	.refptr.__gcov_indirect_call(%rip), %rsi
	movq	(%rsi), %rax
	testq	%rax, %rax
	jne	.L584
	addq	$1, __gcov0._ZN8Polyfish4Tune12read_optionsEv(%rip)
	cmpq	$0, __gcov7._ZN8Polyfish4Tune12read_optionsEv(%rip)
	je	.L573
.L563:
	addq	$1, __gcov0._ZN8Polyfish4Tune8instanceEv(%rip)
	cmpq	$0, __gcov7._ZN8Polyfish4Tune8instanceEv(%rip)
	je	.L585
.L564:
	movzbl	_ZGVZN8Polyfish4Tune8instanceEvE1t(%rip), %eax
	testb	%al, %al
	je	.L586
.L566:
	movq	8+_ZZN8Polyfish4Tune8instanceEvE1t(%rip), %rdi
	movq	_ZZN8Polyfish4Tune8instanceEvE1t(%rip), %rbx
	leaq	__gcov4._ZN8Polyfish4Tune12read_optionsEv(%rip), %rbp
	addq	$1, 8+__gcov0._ZN8Polyfish4Tune12read_optionsEv(%rip)
	cmpq	%rbx, %rdi
	je	.L572
	.p2align 4,,10
	.p2align 3
.L571:
	movq	(%rbx), %rcx
	addq	$8, %rbx
	movq	(%rcx), %rax
	movq	%rbp, 8(%rsi)
	movq	24(%rax), %rax
	movq	%rax, (%rsi)
	call	*%rax
	addq	$1, 16+__gcov0._ZN8Polyfish4Tune12read_optionsEv(%rip)
	cmpq	%rbx, %rdi
	jne	.L571
.L572:
	addq	$1, 24+__gcov0._ZN8Polyfish4Tune12read_optionsEv(%rip)
	addq	$32, %rsp
	popq	%rbx
	popq	%rsi
	popq	%rdi
	popq	%rbp
	popq	%r12
	ret
	.p2align 4,,10
	.p2align 3
.L586:
	leaq	_ZGVZN8Polyfish4Tune8instanceEvE1t(%rip), %r12
	addq	$1, 8+__gcov0._ZN8Polyfish4Tune8instanceEv(%rip)
	movq	%r12, %rcx
	call	__cxa_guard_acquire
	addq	$1, 16+__gcov0._ZN8Polyfish4Tune8instanceEv(%rip)
	testl	%eax, %eax
	je	.L566
	addq	$1, 24+__gcov0._ZN8Polyfish4Tune8instanceEv(%rip)
	vpxor	%xmm0, %xmm0, %xmm0
	cmpq	$0, (%rsi)
	movq	$0, 16+_ZZN8Polyfish4Tune8instanceEvE1t(%rip)
	vmovdqu	%xmm0, _ZZN8Polyfish4Tune8instanceEvE1t(%rip)
	jne	.L587
.L568:
	addq	$1, __gcov0._ZN8Polyfish4Tune12read_resultsEv.lto_priv.0(%rip)
	cmpq	$0, __gcov7._ZN8Polyfish4Tune12read_resultsEv.lto_priv.0(%rip)
	je	.L588
.L569:
	leaq	__tcf_0(%rip), %rcx
	addq	$1, 32+__gcov0._ZN8Polyfish4Tune8instanceEv(%rip)
	call	atexit
	movq	%r12, %rcx
	addq	$1, 40+__gcov0._ZN8Polyfish4Tune8instanceEv(%rip)
	call	__cxa_guard_release
	addq	$1, 48+__gcov0._ZN8Polyfish4Tune8instanceEv(%rip)
	jmp	.L566
	.p2align 4,,10
	.p2align 3
.L584:
	leaq	_ZN8Polyfish4Tune12read_optionsEv(%rip), %rdx
	movl	$1304833717, %ecx
	call	__gcov_indirect_call_profiler_v4
	addq	$1, __gcov0._ZN8Polyfish4Tune12read_optionsEv(%rip)
	movq	(%rsi), %rax
	cmpq	$0, __gcov7._ZN8Polyfish4Tune12read_optionsEv(%rip)
	je	.L573
.L562:
	testq	%rax, %rax
	je	.L563
	leaq	_ZN8Polyfish4Tune8instanceEv(%rip), %rdx
	movl	$1268758491, %ecx
	call	__gcov_indirect_call_profiler_v4
	jmp	.L563
	.p2align 4,,10
	.p2align 3
.L573:
	movq	.refptr.__gcov_time_profiler_counter(%rip), %rcx
	movq	(%rcx), %rdx
	addq	$1, %rdx
	movq	%rdx, __gcov7._ZN8Polyfish4Tune12read_optionsEv(%rip)
	movq	%rdx, (%rcx)
	jmp	.L562
	.p2align 4,,10
	.p2align 3
.L585:
	movq	.refptr.__gcov_time_profiler_counter(%rip), %rdx
	movq	(%rdx), %rax
	addq	$1, %rax
	movq	%rax, __gcov7._ZN8Polyfish4Tune8instanceEv(%rip)
	movq	%rax, (%rdx)
	jmp	.L564
.L587:
	movq	.refptr._ZN8Polyfish4Tune12read_resultsEv(%rip), %rdx
	movl	$104562550, %ecx
	call	__gcov_indirect_call_profiler_v4
	jmp	.L568
.L588:
	movq	.refptr.__gcov_time_profiler_counter(%rip), %rdx
	movq	(%rdx), %rax
	addq	$1, %rax
	movq	%rax, __gcov7._ZN8Polyfish4Tune12read_resultsEv.lto_priv.0(%rip)
	movq	%rax, (%rdx)
	jmp	.L569
	.seh_endproc
	.p2align 4
	.def	_ZN8Polyfish8Endgames5probeINS_5ValueEEEPKNS_11EndgameBaseIT_EEy;	.scl	3;	.type	32;	.endef
	.seh_proc	_ZN8Polyfish8Endgames5probeINS_5ValueEEEPKNS_11EndgameBaseIT_EEy
_ZN8Polyfish8Endgames5probeINS_5ValueEEEPKNS_11EndgameBaseIT_EEy:
	pushq	%r15
	.seh_pushreg	%r15
	pushq	%r14
	.seh_pushreg	%r14
	pushq	%r13
	.seh_pushreg	%r13
	pushq	%r12
	.seh_pushreg	%r12
	pushq	%rbp
	.seh_pushreg	%rbp
	pushq	%rdi
	.seh_pushreg	%rdi
	pushq	%rsi
	.seh_pushreg	%rsi
	pushq	%rbx
	.seh_pushreg	%rbx
	subq	$40, %rsp
	.seh_stackalloc	40
	.seh_endprologue
	movq	.refptr.__gcov_indirect_call(%rip), %r12
	cmpq	$0, (%r12)
	movq	%rcx, %rsi
	jne	.L603
	cmpq	$0, __gcov7._ZN8Polyfish8Endgames5probeINS_5ValueEEEPKNS_11EndgameBaseIT_EEy(%rip)
	je	.L604
.L591:
	movq	.refptr._ZN8Polyfish8Endgames4mapsE(%rip), %rdi
	leaq	__gcov3._ZN8Polyfish8Endgames5probeINS_5ValueEEEPKNS_11EndgameBaseIT_EEy(%rip), %rcx
	movq	8(%rdi), %rbx
	movq	%rbx, %rdx
	call	__gcov_topn_values_profiler
	movq	%rbx, %rdx
	leaq	__gcov2._ZN8Polyfish8Endgames5probeINS_5ValueEEEPKNS_11EndgameBaseIT_EEy(%rip), %rcx
	call	__gcov_pow2_profiler
	xorl	%edx, %edx
	movq	%rsi, %rax
	xorl	%r8d, %r8d
	divq	%rbx
	movl	$2, %r9d
	leaq	__gcov1._ZN8Polyfish8Endgames5probeINS_5ValueEEEPKNS_11EndgameBaseIT_EEy(%rip), %rcx
	movq	%rdx, %rbp
	movq	%rax, %rdx
	call	__gcov_interval_profiler
	cmpq	$0, (%r12)
	jne	.L605
	movq	.refptr.__gcov7._ZNKSt10_HashtableIySt4pairIKySt10unique_ptrIN8Polyfish11EndgameBaseINS3_5ValueEEESt14default_deleteIS6_EEESaISA_ENSt8__detail10_Select1stESt8equal_toIyESt4hashIyENSC_18_Mod_range_hashingENSC_20_Default_ranged_hashENSC_20_Prime_rehash_policyENSC_17_Hashtable_traitsILb0ELb0ELb1EEEE12_M_find_nodeEyRS1_y.lto_priv.0(%rip), %rax
	cmpq	$0, (%rax)
	je	.L606
.L593:
	movq	(%rdi), %rax
	movq	(%rax,%rbp,8), %rax
	testq	%rax, %rax
	je	.L607
	movq	(%rax), %rbx
	movq	.refptr.__gcov0._ZNKSt10_HashtableIySt4pairIKySt10unique_ptrIN8Polyfish11EndgameBaseINS3_5ValueEEESt14default_deleteIS6_EEESaISA_ENSt8__detail10_Select1stESt8equal_toIyESt4hashIyENSC_18_Mod_range_hashingENSC_20_Default_ranged_hashENSC_20_Prime_rehash_policyENSC_17_Hashtable_traitsILb0ELb0ELb1EEEE12_M_find_nodeEyRS1_y.lto_priv.0(%rip), %r13
	cmpq	%rsi, 8(%rbx)
	je	.L596
.L610:
	movq	(%rbx), %r15
	testq	%r15, %r15
	je	.L608
	addq	$1, 16(%r13)
	movq	8(%rdi), %r14
	movq	.refptr.__gcov3._ZNKSt10_HashtableIySt4pairIKySt10unique_ptrIN8Polyfish11EndgameBaseINS3_5ValueEEESt14default_deleteIS6_EEESaISA_ENSt8__detail10_Select1stESt8equal_toIyESt4hashIyENSC_18_Mod_range_hashingENSC_20_Default_ranged_hashENSC_20_Prime_rehash_policyENSC_17_Hashtable_traitsILb0ELb0ELb1EEEE12_M_find_nodeEyRS1_y.lto_priv.0(%rip), %rcx
	movq	8(%r15), %r12
	movq	%r14, %rdx
	call	__gcov_topn_values_profiler
	movq	.refptr.__gcov2._ZNKSt10_HashtableIySt4pairIKySt10unique_ptrIN8Polyfish11EndgameBaseINS3_5ValueEEESt14default_deleteIS6_EEESaISA_ENSt8__detail10_Select1stESt8equal_toIyESt4hashIyENSC_18_Mod_range_hashingENSC_20_Default_ranged_hashENSC_20_Prime_rehash_policyENSC_17_Hashtable_traitsILb0ELb0ELb1EEEE12_M_find_nodeEyRS1_y.lto_priv.0(%rip), %rcx
	movq	%r14, %rdx
	call	__gcov_pow2_profiler
	movq	%r12, %rax
	xorl	%edx, %edx
	movl	$2, %r9d
	divq	%r14
	movq	.refptr.__gcov1._ZNKSt10_HashtableIySt4pairIKySt10unique_ptrIN8Polyfish11EndgameBaseINS3_5ValueEEESt14default_deleteIS6_EEESaISA_ENSt8__detail10_Select1stESt8equal_toIyESt4hashIyENSC_18_Mod_range_hashingENSC_20_Default_ranged_hashENSC_20_Prime_rehash_policyENSC_17_Hashtable_traitsILb0ELb0ELb1EEEE12_M_find_nodeEyRS1_y.lto_priv.0(%rip), %rcx
	xorl	%r8d, %r8d
	movq	%rdx, %r12
	movq	%rax, %rdx
	call	__gcov_interval_profiler
	movq	%rbx, %rax
	cmpq	%r12, %rbp
	jne	.L609
	movq	%r15, %rbx
	cmpq	%rsi, 8(%rbx)
	jne	.L610
.L596:
	movq	(%rax), %rax
	addq	$1, 32(%r13)
	testq	%rax, %rax
	je	.L595
	addq	$1, __gcov0._ZN8Polyfish8Endgames5probeINS_5ValueEEEPKNS_11EndgameBaseIT_EEy(%rip)
	movq	16(%rax), %rax
.L589:
	addq	$40, %rsp
	popq	%rbx
	popq	%rsi
	popq	%rdi
	popq	%rbp
	popq	%r12
	popq	%r13
	popq	%r14
	popq	%r15
	ret
	.p2align 4,,10
	.p2align 3
.L603:
	leaq	_ZN8Polyfish8Endgames5probeINS_5ValueEEEPKNS_11EndgameBaseIT_EEy(%rip), %rdx
	movl	$1758332711, %ecx
	call	__gcov_indirect_call_profiler_v4
	cmpq	$0, __gcov7._ZN8Polyfish8Endgames5probeINS_5ValueEEEPKNS_11EndgameBaseIT_EEy(%rip)
	jne	.L591
	.p2align 4,,10
	.p2align 3
.L604:
	movq	.refptr.__gcov_time_profiler_counter(%rip), %rdx
	movq	(%rdx), %rax
	addq	$1, %rax
	movq	%rax, __gcov7._ZN8Polyfish8Endgames5probeINS_5ValueEEEPKNS_11EndgameBaseIT_EEy(%rip)
	movq	%rax, (%rdx)
	jmp	.L591
	.p2align 4,,10
	.p2align 3
.L605:
	movq	.refptr._ZNKSt10_HashtableIySt4pairIKySt10unique_ptrIN8Polyfish11EndgameBaseINS3_5ValueEEESt14default_deleteIS6_EEESaISA_ENSt8__detail10_Select1stESt8equal_toIyESt4hashIyENSC_18_Mod_range_hashingENSC_20_Default_ranged_hashENSC_20_Prime_rehash_policyENSC_17_Hashtable_traitsILb0ELb0ELb1EEEE12_M_find_nodeEyRS1_y(%rip), %rdx
	movl	$308226615, %ecx
	call	__gcov_indirect_call_profiler_v4
	movq	.refptr.__gcov7._ZNKSt10_HashtableIySt4pairIKySt10unique_ptrIN8Polyfish11EndgameBaseINS3_5ValueEEESt14default_deleteIS6_EEESaISA_ENSt8__detail10_Select1stESt8equal_toIyESt4hashIyENSC_18_Mod_range_hashingENSC_20_Default_ranged_hashENSC_20_Prime_rehash_policyENSC_17_Hashtable_traitsILb0ELb0ELb1EEEE12_M_find_nodeEyRS1_y.lto_priv.0(%rip), %rax
	cmpq	$0, (%rax)
	jne	.L593
	.p2align 4,,10
	.p2align 3
.L606:
	movq	.refptr.__gcov_time_profiler_counter(%rip), %rcx
	movq	(%rcx), %rbx
	leaq	1(%rbx), %rdx
	movq	%rdx, (%rax)
	movq	%rdx, (%rcx)
	jmp	.L593
	.p2align 4,,10
	.p2align 3
.L608:
	addq	$1, 8(%r13)
.L598:
	addq	$1, 40(%r13)
.L595:
	addq	$1, 8+__gcov0._ZN8Polyfish8Endgames5probeINS_5ValueEEEPKNS_11EndgameBaseIT_EEy(%rip)
	xorl	%eax, %eax
	jmp	.L589
	.p2align 4,,10
	.p2align 3
.L607:
	movq	.refptr.__gcov0._ZNKSt10_HashtableIySt4pairIKySt10unique_ptrIN8Polyfish11EndgameBaseINS3_5ValueEEESt14default_deleteIS6_EEESaISA_ENSt8__detail10_Select1stESt8equal_toIyESt4hashIyENSC_18_Mod_range_hashingENSC_20_Default_ranged_hashENSC_20_Prime_rehash_policyENSC_17_Hashtable_traitsILb0ELb0ELb1EEEE12_M_find_nodeEyRS1_y.lto_priv.0(%rip), %rax
	addq	$1, (%rax)
	jmp	.L595
	.p2align 4,,10
	.p2align 3
.L609:
	addq	$1, 24(%r13)
	jmp	.L598
	.seh_endproc
	.p2align 4
	.def	_ZN8Polyfish8Endgames5probeINS_11ScaleFactorEEEPKNS_11EndgameBaseIT_EEy;	.scl	3;	.type	32;	.endef
	.seh_proc	_ZN8Polyfish8Endgames5probeINS_11ScaleFactorEEEPKNS_11EndgameBaseIT_EEy
_ZN8Polyfish8Endgames5probeINS_11ScaleFactorEEEPKNS_11EndgameBaseIT_EEy:
	pushq	%r15
	.seh_pushreg	%r15
	pushq	%r14
	.seh_pushreg	%r14
	pushq	%r13
	.seh_pushreg	%r13
	pushq	%r12
	.seh_pushreg	%r12
	pushq	%rbp
	.seh_pushreg	%rbp
	pushq	%rdi
	.seh_pushreg	%rdi
	pushq	%rsi
	.seh_pushreg	%rsi
	pushq	%rbx
	.seh_pushreg	%rbx
	subq	$40, %rsp
	.seh_stackalloc	40
	.seh_endprologue
	movq	.refptr.__gcov_indirect_call(%rip), %r12
	cmpq	$0, (%r12)
	movq	%rcx, %rsi
	jne	.L625
	cmpq	$0, __gcov7._ZN8Polyfish8Endgames5probeINS_11ScaleFactorEEEPKNS_11EndgameBaseIT_EEy(%rip)
	je	.L626
.L613:
	movq	.refptr._ZN8Polyfish8Endgames4mapsE(%rip), %rdi
	leaq	__gcov3._ZN8Polyfish8Endgames5probeINS_11ScaleFactorEEEPKNS_11EndgameBaseIT_EEy(%rip), %rcx
	movq	64(%rdi), %rbx
	movq	%rbx, %rdx
	call	__gcov_topn_values_profiler
	movq	%rbx, %rdx
	leaq	__gcov2._ZN8Polyfish8Endgames5probeINS_11ScaleFactorEEEPKNS_11EndgameBaseIT_EEy(%rip), %rcx
	call	__gcov_pow2_profiler
	xorl	%edx, %edx
	movq	%rsi, %rax
	xorl	%r8d, %r8d
	divq	%rbx
	movl	$2, %r9d
	leaq	__gcov1._ZN8Polyfish8Endgames5probeINS_11ScaleFactorEEEPKNS_11EndgameBaseIT_EEy(%rip), %rcx
	movq	%rdx, %rbp
	movq	%rax, %rdx
	call	__gcov_interval_profiler
	cmpq	$0, (%r12)
	jne	.L627
	movq	.refptr.__gcov7._ZNKSt10_HashtableIySt4pairIKySt10unique_ptrIN8Polyfish11EndgameBaseINS3_11ScaleFactorEEESt14default_deleteIS6_EEESaISA_ENSt8__detail10_Select1stESt8equal_toIyESt4hashIyENSC_18_Mod_range_hashingENSC_20_Default_ranged_hashENSC_20_Prime_rehash_policyENSC_17_Hashtable_traitsILb0ELb0ELb1EEEE12_M_find_nodeEyRS1_y.lto_priv.0(%rip), %rax
	cmpq	$0, (%rax)
	je	.L628
.L615:
	movq	56(%rdi), %rax
	movq	(%rax,%rbp,8), %rax
	testq	%rax, %rax
	je	.L629
	movq	(%rax), %rbx
	movq	.refptr.__gcov0._ZNKSt10_HashtableIySt4pairIKySt10unique_ptrIN8Polyfish11EndgameBaseINS3_11ScaleFactorEEESt14default_deleteIS6_EEESaISA_ENSt8__detail10_Select1stESt8equal_toIyESt4hashIyENSC_18_Mod_range_hashingENSC_20_Default_ranged_hashENSC_20_Prime_rehash_policyENSC_17_Hashtable_traitsILb0ELb0ELb1EEEE12_M_find_nodeEyRS1_y.lto_priv.0(%rip), %r13
	cmpq	%rsi, 8(%rbx)
	je	.L618
.L632:
	movq	(%rbx), %r15
	testq	%r15, %r15
	je	.L630
	addq	$1, 16(%r13)
	movq	64(%rdi), %r14
	movq	.refptr.__gcov3._ZNKSt10_HashtableIySt4pairIKySt10unique_ptrIN8Polyfish11EndgameBaseINS3_11ScaleFactorEEESt14default_deleteIS6_EEESaISA_ENSt8__detail10_Select1stESt8equal_toIyESt4hashIyENSC_18_Mod_range_hashingENSC_20_Default_ranged_hashENSC_20_Prime_rehash_policyENSC_17_Hashtable_traitsILb0ELb0ELb1EEEE12_M_find_nodeEyRS1_y.lto_priv.0(%rip), %rcx
	movq	8(%r15), %r12
	movq	%r14, %rdx
	call	__gcov_topn_values_profiler
	movq	.refptr.__gcov2._ZNKSt10_HashtableIySt4pairIKySt10unique_ptrIN8Polyfish11EndgameBaseINS3_11ScaleFactorEEESt14default_deleteIS6_EEESaISA_ENSt8__detail10_Select1stESt8equal_toIyESt4hashIyENSC_18_Mod_range_hashingENSC_20_Default_ranged_hashENSC_20_Prime_rehash_policyENSC_17_Hashtable_traitsILb0ELb0ELb1EEEE12_M_find_nodeEyRS1_y.lto_priv.0(%rip), %rcx
	movq	%r14, %rdx
	call	__gcov_pow2_profiler
	movq	%r12, %rax
	xorl	%edx, %edx
	movl	$2, %r9d
	divq	%r14
	movq	.refptr.__gcov1._ZNKSt10_HashtableIySt4pairIKySt10unique_ptrIN8Polyfish11EndgameBaseINS3_11ScaleFactorEEESt14default_deleteIS6_EEESaISA_ENSt8__detail10_Select1stESt8equal_toIyESt4hashIyENSC_18_Mod_range_hashingENSC_20_Default_ranged_hashENSC_20_Prime_rehash_policyENSC_17_Hashtable_traitsILb0ELb0ELb1EEEE12_M_find_nodeEyRS1_y.lto_priv.0(%rip), %rcx
	xorl	%r8d, %r8d
	movq	%rdx, %r12
	movq	%rax, %rdx
	call	__gcov_interval_profiler
	movq	%rbx, %rax
	cmpq	%r12, %rbp
	jne	.L631
	movq	%r15, %rbx
	cmpq	%rsi, 8(%rbx)
	jne	.L632
.L618:
	movq	(%rax), %rax
	addq	$1, 32(%r13)
	testq	%rax, %rax
	je	.L617
	addq	$1, __gcov0._ZN8Polyfish8Endgames5probeINS_11ScaleFactorEEEPKNS_11EndgameBaseIT_EEy(%rip)
	movq	16(%rax), %rax
.L611:
	addq	$40, %rsp
	popq	%rbx
	popq	%rsi
	popq	%rdi
	popq	%rbp
	popq	%r12
	popq	%r13
	popq	%r14
	popq	%r15
	ret
	.p2align 4,,10
	.p2align 3
.L625:
	leaq	_ZN8Polyfish8Endgames5probeINS_11ScaleFactorEEEPKNS_11EndgameBaseIT_EEy(%rip), %rdx
	movl	$979453126, %ecx
	call	__gcov_indirect_call_profiler_v4
	cmpq	$0, __gcov7._ZN8Polyfish8Endgames5probeINS_11ScaleFactorEEEPKNS_11EndgameBaseIT_EEy(%rip)
	jne	.L613
	.p2align 4,,10
	.p2align 3
.L626:
	movq	.refptr.__gcov_time_profiler_counter(%rip), %rdx
	movq	(%rdx), %rax
	addq	$1, %rax
	movq	%rax, __gcov7._ZN8Polyfish8Endgames5probeINS_11ScaleFactorEEEPKNS_11EndgameBaseIT_EEy(%rip)
	movq	%rax, (%rdx)
	jmp	.L613
	.p2align 4,,10
	.p2align 3
.L627:
	movq	.refptr._ZNKSt10_HashtableIySt4pairIKySt10unique_ptrIN8Polyfish11EndgameBaseINS3_11ScaleFactorEEESt14default_deleteIS6_EEESaISA_ENSt8__detail10_Select1stESt8equal_toIyESt4hashIyENSC_18_Mod_range_hashingENSC_20_Default_ranged_hashENSC_20_Prime_rehash_policyENSC_17_Hashtable_traitsILb0ELb0ELb1EEEE12_M_find_nodeEyRS1_y(%rip), %rdx
	movl	$1144836083, %ecx
	call	__gcov_indirect_call_profiler_v4
	movq	.refptr.__gcov7._ZNKSt10_HashtableIySt4pairIKySt10unique_ptrIN8Polyfish11EndgameBaseINS3_11ScaleFactorEEESt14default_deleteIS6_EEESaISA_ENSt8__detail10_Select1stESt8equal_toIyESt4hashIyENSC_18_Mod_range_hashingENSC_20_Default_ranged_hashENSC_20_Prime_rehash_policyENSC_17_Hashtable_traitsILb0ELb0ELb1EEEE12_M_find_nodeEyRS1_y.lto_priv.0(%rip), %rax
	cmpq	$0, (%rax)
	jne	.L615
	.p2align 4,,10
	.p2align 3
.L628:
	movq	.refptr.__gcov_time_profiler_counter(%rip), %rcx
	movq	(%rcx), %rbx
	leaq	1(%rbx), %rdx
	movq	%rdx, (%rax)
	movq	%rdx, (%rcx)
	jmp	.L615
	.p2align 4,,10
	.p2align 3
.L630:
	addq	$1, 8(%r13)
.L620:
	addq	$1, 40(%r13)
.L617:
	addq	$1, 8+__gcov0._ZN8Polyfish8Endgames5probeINS_11ScaleFactorEEEPKNS_11EndgameBaseIT_EEy(%rip)
	xorl	%eax, %eax
	jmp	.L611
	.p2align 4,,10
	.p2align 3
.L629:
	movq	.refptr.__gcov0._ZNKSt10_HashtableIySt4pairIKySt10unique_ptrIN8Polyfish11EndgameBaseINS3_11ScaleFactorEEESt14default_deleteIS6_EEESaISA_ENSt8__detail10_Select1stESt8equal_toIyESt4hashIyENSC_18_Mod_range_hashingENSC_20_Default_ranged_hashENSC_20_Prime_rehash_policyENSC_17_Hashtable_traitsILb0ELb0ELb1EEEE12_M_find_nodeEyRS1_y.lto_priv.0(%rip), %rax
	addq	$1, (%rax)
	jmp	.L617
	.p2align 4,,10
	.p2align 3
.L631:
	addq	$1, 24(%r13)
	jmp	.L620
	.seh_endproc
	.p2align 4
	.globl	_ZN8Polyfish8Material5probeERKNS_8PositionE
	.def	_ZN8Polyfish8Material5probeERKNS_8PositionE;	.scl	2;	.type	32;	.endef
	.seh_proc	_ZN8Polyfish8Material5probeERKNS_8PositionE
_ZN8Polyfish8Material5probeERKNS_8PositionE:
	pushq	%r15
	.seh_pushreg	%r15
	pushq	%r14
	.seh_pushreg	%r14
	pushq	%r13
	.seh_pushreg	%r13
	pushq	%r12
	.seh_pushreg	%r12
	pushq	%rbp
	.seh_pushreg	%rbp
	pushq	%rdi
	.seh_pushreg	%rdi
	pushq	%rsi
	.seh_pushreg	%rsi
	pushq	%rbx
	.seh_pushreg	%rbx
	subq	$184, %rsp
	.seh_stackalloc	184
	.seh_endprologue
	movq	.refptr.__gcov_indirect_call(%rip), %rax
	cmpq	$0, (%rax)
	movq	%rcx, %rbx
	jne	.L799
.L634:
	cmpq	$0, __gcov7._ZN8Polyfish8Material5probeERKNS_8PositionE(%rip)
	je	.L800
.L635:
	movq	856(%rbx), %rax
	movq	848(%rbx), %rcx
	movq	8(%rax), %r14
	movq	%r14, %rax
	andl	$8191, %eax
	leaq	(%rax,%rax,4), %rdx
	movq	72(%rcx), %rax
	leaq	(%rax,%rdx,8), %r12
	cmpq	%r14, (%r12)
	je	.L801
	movl	$16448, %ecx
	movq	%r14, (%r12)
	xorl	%eax, %eax
	movq	$0, 32(%r12)
	movq	$0, 8(%r12)
	movq	$0, 16(%r12)
	movq	$0, 24(%r12)
	movw	%cx, 38(%r12)
	movq	856(%rbx), %rsi
	addq	$1, 8+__gcov0._ZN8Polyfish8Material5probeERKNS_8PositionE(%rip)
	movl	16(%rsi), %ebp
	movl	20(%rsi), %r13d
	leal	0(%rbp,%r13), %edi
	cmpl	$3914, %edi
	jle	.L638
	addq	$1, 16+__gcov0._ZN8Polyfish8Material5probeERKNS_8PositionE(%rip)
	movl	$128, %eax
	cmpl	$15258, %edi
	jle	.L802
.L638:
	movw	%ax, 36(%r12)
	movq	%r14, %rcx
	call	_ZN8Polyfish8Endgames5probeINS_5ValueEEEPKNS_11EndgameBaseIT_EEy
	movq	%rax, 8(%r12)
	testq	%rax, %rax
	je	.L803
.L633:
	movq	%r12, %rax
	addq	$184, %rsp
	popq	%rbx
	popq	%rsi
	popq	%rdi
	popq	%rbp
	popq	%r12
	popq	%r13
	popq	%r14
	popq	%r15
	ret
	.p2align 4,,10
	.p2align 3
.L803:
	movq	328(%rbx), %rdx
	movq	32+__gcov0._ZN8Polyfish8Material5probeERKNS_8PositionE(%rip), %rax
	movq	48+__gcov0._ZN8Polyfish8Material5probeERKNS_8PositionE(%rip), %rcx
	leaq	-1(%rdx), %r8
	testq	%rdx, %r8
	je	.L804
	movq	320(%rbx), %r8
	leaq	1(%rcx), %rdx
	leaq	-1(%r8), %r9
	testq	%r8, %r9
	je	.L705
	addq	$2, %rcx
	movq	%rcx, 48+__gcov0._ZN8Polyfish8Material5probeERKNS_8PositionE(%rip)
.L707:
	movq	%r14, %rcx
	call	_ZN8Polyfish8Endgames5probeINS_11ScaleFactorEEEPKNS_11EndgameBaseIT_EEy
	testq	%rax, %rax
	je	.L643
	movslq	8(%rax), %rdx
	addq	$1, 56+__gcov0._ZN8Polyfish8Material5probeERKNS_8PositionE(%rip)
	movq	%rax, 16(%r12,%rdx,8)
	jmp	.L633
	.p2align 4,,10
	.p2align 3
.L801:
	addq	$1, __gcov0._ZN8Polyfish8Material5probeERKNS_8PositionE(%rip)
	jmp	.L633
	.p2align 4,,10
	.p2align 3
.L802:
	leal	-3915(%rdi), %eax
	addq	$1, 24+__gcov0._ZN8Polyfish8Material5probeERKNS_8PositionE(%rip)
	sall	$7, %eax
	imulq	$1550928859, %rax, %rax
	shrq	$44, %rax
	jmp	.L638
	.p2align 4,,10
	.p2align 3
.L804:
	addq	$1, %rax
	cmpl	$1275, 16(%rsi)
	jle	.L805
	xorl	%edx, %edx
.L640:
	movq	%rax, 32+__gcov0._ZN8Polyfish8Material5probeERKNS_8PositionE(%rip)
	salq	$4, %rdx
	leaq	_ZN8Polyfish12_GLOBAL__N_111EvaluateKXKE.lto_priv.0(%rip), %rax
	addq	%rax, %rdx
	addq	$1, 40+__gcov0._ZN8Polyfish8Material5probeERKNS_8PositionE(%rip)
	movq	%rdx, 8(%r12)
	jmp	.L633
	.p2align 4,,10
	.p2align 3
.L800:
	movq	.refptr.__gcov_time_profiler_counter(%rip), %rdx
	movq	(%rdx), %rax
	addq	$1, %rax
	movq	%rax, __gcov7._ZN8Polyfish8Material5probeERKNS_8PositionE(%rip)
	movq	%rax, (%rdx)
	jmp	.L635
	.p2align 4,,10
	.p2align 3
.L799:
	leaq	_ZN8Polyfish8Material5probeERKNS_8PositionE(%rip), %rdx
	movl	$1494290944, %ecx
	call	__gcov_indirect_call_profiler_v4
	jmp	.L634
	.p2align 4,,10
	.p2align 3
.L805:
	movq	320(%rbx), %r8
	leaq	1(%rcx), %rdx
	leaq	-1(%r8), %r9
	testq	%r8, %r9
	jne	.L806
.L705:
	addq	$1, %rax
	cmpl	$1275, 20(%rsi)
	jg	.L807
	addq	$1, %rdx
	movq	%rdx, 48+__gcov0._ZN8Polyfish8Material5probeERKNS_8PositionE(%rip)
.L704:
	movq	%rax, 32+__gcov0._ZN8Polyfish8Material5probeERKNS_8PositionE(%rip)
	jmp	.L707
	.p2align 4,,10
	.p2align 3
.L643:
	movq	80+__gcov0._ZN8Polyfish8Material5probeERKNS_8PositionE(%rip), %rax
	addq	$1, 64+__gcov0._ZN8Polyfish8Material5probeERKNS_8PositionE(%rip)
	cmpl	$825, 16(%rsi)
	movq	__gcov0._ZN8Polyfish12_GLOBAL__N_19is_KQKRPsERKNS_8PositionENS_5ColorE(%rip), %rcx
	movq	%rax, 72(%rsp)
	movq	.refptr.__gcov_time_profiler_counter(%rip), %rax
	movq	__gcov7._ZN8Polyfish12_GLOBAL__N_19is_KQKRPsERKNS_8PositionENS_5ColorE(%rip), %r8
	movq	8+__gcov0._ZN8Polyfish12_GLOBAL__N_19is_KQKRPsERKNS_8PositionENS_5ColorE(%rip), %r15
	movq	(%rax), %rax
	movq	96+__gcov0._ZN8Polyfish8Material5probeERKNS_8PositionE(%rip), %r9
	movq	88+__gcov0._ZN8Polyfish8Material5probeERKNS_8PositionE(%rip), %r14
	movq	%rax, 40(%rsp)
	movq	16+__gcov0._ZN8Polyfish12_GLOBAL__N_19is_KQKRPsERKNS_8PositionENS_5ColorE(%rip), %rax
	movq	%rax, 80(%rsp)
	movq	24+__gcov0._ZN8Polyfish12_GLOBAL__N_19is_KQKRPsERKNS_8PositionENS_5ColorE(%rip), %rax
	movq	%rax, 96(%rsp)
	movq	32+__gcov0._ZN8Polyfish12_GLOBAL__N_19is_KQKRPsERKNS_8PositionENS_5ColorE(%rip), %rax
	movq	%rax, 104(%rsp)
	movq	72+__gcov0._ZN8Polyfish8Material5probeERKNS_8PositionE(%rip), %rax
	movq	%rax, 64(%rsp)
	movl	340(%rbx), %eax
	je	.L644
	movb	$0, 95(%rsp)
.L652:
	addq	$1, %rcx
	testq	%r8, %r8
	je	.L645
	movb	$0, 94(%rsp)
.L650:
	testl	%eax, %eax
	je	.L646
	movb	$0, 48(%rsp)
	xorl	%r10d, %r10d
	movb	$0, 88(%rsp)
.L648:
	movb	%r10b, 56(%rsp)
	addq	$1, %r9
	xorl	%r11d, %r11d
	movb	$1, 32(%rsp)
	movb	$1, 92(%rsp)
	movb	$0, 93(%rsp)
.L647:
	cmpl	$825, 20(%rsi)
	movl	372(%rbx), %edx
	je	.L808
.L653:
	addq	$1, %rcx
	testq	%r8, %r8
	je	.L809
.L656:
	testl	%edx, %edx
	jne	.L657
	movq	856(%rbx), %rsi
	addq	$1, %r15
	movb	$1, 88(%rsp)
	cmpl	$2538, 20(%rsi)
	je	.L810
.L657:
	movb	$1, 92(%rsp)
	addq	$1, %r9
.L793:
	movq	%r9, 96+__gcov0._ZN8Polyfish8Material5probeERKNS_8PositionE(%rip)
.L659:
	testb	%r11b, %r11b
	je	.L660
	movq	%r14, 88+__gcov0._ZN8Polyfish8Material5probeERKNS_8PositionE(%rip)
.L660:
	cmpb	$0, 56(%rsp)
	jne	.L811
.L661:
	testb	%r10b, %r10b
	jne	.L812
.L662:
	cmpb	$0, 48(%rsp)
	jne	.L813
.L663:
	cmpb	$0, 88(%rsp)
	je	.L664
	movq	%r15, 8+__gcov0._ZN8Polyfish12_GLOBAL__N_19is_KQKRPsERKNS_8PositionENS_5ColorE(%rip)
.L664:
	cmpb	$0, 94(%rsp)
	jne	.L814
.L665:
	cmpb	$0, 92(%rsp)
	je	.L666
	movq	%rcx, __gcov0._ZN8Polyfish12_GLOBAL__N_19is_KQKRPsERKNS_8PositionENS_5ColorE(%rip)
.L666:
	cmpb	$0, 95(%rsp)
	jne	.L815
.L667:
	cmpb	$0, 93(%rsp)
	je	.L668
	movq	64(%rsp), %rsi
	movq	%rsi, 72+__gcov0._ZN8Polyfish8Material5probeERKNS_8PositionE(%rip)
.L668:
	testl	%edi, %edi
	jne	.L669
	addq	$1, 104+__gcov0._ZN8Polyfish8Material5probeERKNS_8PositionE(%rip)
	cmpq	$0, 264(%rbx)
	je	.L669
	testl	%edx, %edx
	jne	.L670
	leaq	_ZN8Polyfish12_GLOBAL__N_19ScaleKPsKE.lto_priv.0(%rip), %rdi
	addq	$1, 112+__gcov0._ZN8Polyfish8Material5probeERKNS_8PositionE(%rip)
	movq	%rdi, 16(%r12)
	testl	%eax, %eax
	jne	.L672
	movl	%ebp, %eax
	addq	$1, 152+__gcov0._ZN8Polyfish8Material5probeERKNS_8PositionE(%rip)
	subl	%r13d, %eax
	cmpl	$825, %eax
	jg	.L672
	.p2align 4,,10
	.p2align 3
.L674:
	addq	$1, 160+__gcov0._ZN8Polyfish8Material5probeERKNS_8PositionE(%rip)
	xorl	%eax, %eax
	cmpl	$1275, %ebp
	jle	.L679
	addq	$1, 168+__gcov0._ZN8Polyfish8Material5probeERKNS_8PositionE(%rip)
	movl	$4, %eax
	cmpl	$825, %r13d
	jle	.L679
	addq	$1, 176+__gcov0._ZN8Polyfish8Material5probeERKNS_8PositionE(%rip)
	movl	$14, %eax
.L679:
	movb	%al, 38(%r12)
	movl	372(%rbx), %edx
.L678:
	testl	%edx, %edx
	jne	.L798
.L672:
	movl	%r13d, %eax
	addq	$1, 184+__gcov0._ZN8Polyfish8Material5probeERKNS_8PositionE(%rip)
	subl	%ebp, %eax
	cmpl	$825, %eax
	jg	.L720
	addq	$1, 192+__gcov0._ZN8Polyfish8Material5probeERKNS_8PositionE(%rip)
	xorl	%eax, %eax
	cmpl	$1275, %r13d
	jle	.L680
	addq	$1, 200+__gcov0._ZN8Polyfish8Material5probeERKNS_8PositionE(%rip)
	movl	$4, %eax
	cmpl	$825, %ebp
	jle	.L680
	addq	$1, 208+__gcov0._ZN8Polyfish8Material5probeERKNS_8PositionE(%rip)
	movl	$14, %eax
.L680:
	movb	%al, 39(%r12)
	movl	372(%rbx), %edx
	movl	340(%rbx), %eax
.L675:
	movl	348(%rbx), %ecx
	xorl	%edi, %edi
	vmovd	344(%rbx), %xmm4
	movq	$0, 136(%rsp)
	vmovd	376(%rbx), %xmm5
	movq	$0, 168(%rsp)
	cmpl	$1, %ecx
	vpinsrd	$1, %ecx, %xmm4, %xmm0
	setg	%dil
	vmovd	%edi, %xmm2
	xorl	%edi, %edi
	vpinsrd	$1, %eax, %xmm2, %xmm2
	movq	352(%rbx), %rax
	vpunpcklqdq	%xmm0, %xmm2, %xmm2
	movq	%rax, 128(%rsp)
	movl	380(%rbx), %eax
	vmovdqu	%xmm2, 112(%rsp)
	cmpl	$1, %eax
	vpinsrd	$1, %eax, %xmm5, %xmm0
	movq	384(%rbx), %rax
	setg	%dil
	addq	$1, __gcov0._ZN8Polyfish12_GLOBAL__N_19imbalanceILNS_5ColorE1EEENS_5ScoreEPA8_Ki(%rip)
	cmpq	$0, __gcov7._ZN8Polyfish12_GLOBAL__N_19imbalanceILNS_5ColorE1EEENS_5ScoreEPA8_Ki(%rip)
	vmovd	%edi, %xmm1
	movq	%rax, 160(%rsp)
	vpinsrd	$1, %edx, %xmm1, %xmm1
	vpunpcklqdq	%xmm0, %xmm1, %xmm1
	vmovdqu	%xmm1, 144(%rsp)
	je	.L816
.L681:
	leaq	_ZN8Polyfish12_GLOBAL__N_1L13QuadraticOursE(%rip), %rcx
	movq	%r12, 32(%rsp)
	xorl	%edx, %edx
	xorl	%eax, %eax
	movq	16+__gcov0._ZN8Polyfish12_GLOBAL__N_19imbalanceILNS_5ColorE1EEENS_5ScoreEPA8_Ki(%rip), %rdi
	xorl	%r8d, %r8d
	xorl	%r14d, %r14d
	xorl	%r9d, %r9d
	movl	$0, 40(%rsp)
	movq	24+__gcov0._ZN8Polyfish12_GLOBAL__N_19imbalanceILNS_5ColorE1EEENS_5ScoreEPA8_Ki(%rip), %rbp
	movq	%rcx, %r12
	leaq	144(%rsp), %rsi
	movq	8+__gcov0._ZN8Polyfish12_GLOBAL__N_19imbalanceILNS_5ColorE1EEENS_5ScoreEPA8_Ki(%rip), %r11
	jmp	.L689
	.p2align 4,,10
	.p2align 3
.L818:
	addq	$1, %r11
	movl	$1, %r14d
.L683:
	addl	$1, %eax
	addq	$4, %rdx
	cmpl	$6, %eax
	je	.L817
.L689:
	movl	(%rsi,%rdx), %ecx
	testl	%ecx, %ecx
	je	.L818
	leaq	(%rdx,%rdx,8), %r8
	addq	$1, %rdi
	movl	(%r12,%r8), %ebx
	imull	%ecx, %ebx
	movl	%ebx, %r8d
	testl	%eax, %eax
	je	.L684
	leal	-1(%rax), %r10d
	cmpl	$2, %r10d
	jbe	.L685
	leaq	_ZN8Polyfish12_GLOBAL__N_1L15QuadraticTheirsE(%rip), %rbx
	vpmulld	(%r12,%rdx,8), %xmm1, %xmm3
	vpmulld	(%rbx,%rdx,8), %xmm2, %xmm0
	vpaddd	%xmm3, %xmm0, %xmm0
	vpsrldq	$8, %xmm0, %xmm3
	vpaddd	%xmm3, %xmm0, %xmm0
	vpsrldq	$4, %xmm0, %xmm3
	vpaddd	%xmm3, %xmm0, %xmm0
	vmovd	%xmm0, %r9d
	addl	%r9d, %r8d
	cmpl	$4, %eax
	je	.L686
	movslq	%eax, %r9
	leaq	_ZN8Polyfish12_GLOBAL__N_1L15QuadraticTheirsE(%rip), %r15
	movl	128(%rsp), %ebx
	salq	$5, %r9
	imull	16(%r15,%r9), %ebx
	movl	16(%r12,%r9), %r9d
	imull	160(%rsp), %r9d
	addl	%ebx, %r9d
	addl	%r9d, %r8d
	.p2align 4,,10
	.p2align 3
.L686:
	leaq	1(%rbp,%r10), %rbp
	movl	$1, %r9d
.L684:
	imull	%r8d, %ecx
	movl	$1, %r8d
	addl	%ecx, 40(%rsp)
	jmp	.L683
	.p2align 4,,10
	.p2align 3
.L807:
	movq	%rdx, 48+__gcov0._ZN8Polyfish8Material5probeERKNS_8PositionE(%rip)
	movl	$1, %edx
	jmp	.L640
	.p2align 4,,10
	.p2align 3
.L646:
	movq	856(%rbx), %rdx
	addq	$1, %r15
	cmpl	$2538, 16(%rdx)
	je	.L819
	movb	$0, 48(%rsp)
	xorl	%r10d, %r10d
	movb	$1, 88(%rsp)
	jmp	.L648
	.p2align 4,,10
	.p2align 3
.L806:
	addq	$2, %rcx
	movq	%rcx, 48+__gcov0._ZN8Polyfish8Material5probeERKNS_8PositionE(%rip)
	jmp	.L704
	.p2align 4,,10
	.p2align 3
.L685:
	movslq	%eax, %r9
	leaq	_ZN8Polyfish12_GLOBAL__N_1L15QuadraticTheirsE(%rip), %r15
	movl	144(%rsp), %ebx
	salq	$5, %r9
	leaq	(%r12,%r9), %r13
	addq	%r15, %r9
	movl	112(%rsp), %r15d
	imull	0(%r13), %ebx
	imull	(%r9), %r15d
	addl	%r15d, %ebx
	addl	%ebx, %r8d
	cmpl	$1, %eax
	jle	.L686
	movl	4(%r13), %ebx
	movl	4(%r9), %r15d
	imull	148(%rsp), %ebx
	imull	116(%rsp), %r15d
	addl	%r15d, %ebx
	addl	%ebx, %r8d
	cmpl	$2, %eax
	jle	.L686
	movl	120(%rsp), %ebx
	imull	8(%r9), %ebx
	movl	152(%rsp), %r9d
	imull	8(%r13), %r9d
	addl	%r9d, %ebx
	addl	%ebx, %r8d
	jmp	.L686
	.p2align 4,,10
	.p2align 3
.L817:
	movq	32(%rsp), %r12
	testb	%r8b, %r8b
	je	.L690
	movq	%rdi, 16+__gcov0._ZN8Polyfish12_GLOBAL__N_19imbalanceILNS_5ColorE1EEENS_5ScoreEPA8_Ki(%rip)
.L690:
	testb	%r14b, %r14b
	je	.L691
	movq	%r11, 8+__gcov0._ZN8Polyfish12_GLOBAL__N_19imbalanceILNS_5ColorE1EEENS_5ScoreEPA8_Ki(%rip)
.L691:
	testb	%r9b, %r9b
	je	.L692
	movq	%rbp, 24+__gcov0._ZN8Polyfish12_GLOBAL__N_19imbalanceILNS_5ColorE1EEENS_5ScoreEPA8_Ki(%rip)
.L692:
	addq	$1, __gcov0._ZN8Polyfish12_GLOBAL__N_19imbalanceILNS_5ColorE0EEENS_5ScoreEPA8_Ki(%rip)
	cmpq	$0, __gcov7._ZN8Polyfish12_GLOBAL__N_19imbalanceILNS_5ColorE0EEENS_5ScoreEPA8_Ki(%rip)
	je	.L820
.L693:
	movq	16+__gcov0._ZN8Polyfish12_GLOBAL__N_19imbalanceILNS_5ColorE0EEENS_5ScoreEPA8_Ki(%rip), %rax
	movb	$0, 92(%rsp)
	xorl	%ecx, %ecx
	xorl	%ebx, %ebx
	leaq	_ZN8Polyfish12_GLOBAL__N_1L13QuadraticOursE(%rip), %r9
	movl	$0, 88(%rsp)
	movq	8+__gcov0._ZN8Polyfish12_GLOBAL__N_19imbalanceILNS_5ColorE0EEENS_5ScoreEPA8_Ki(%rip), %rdi
	leaq	_ZN8Polyfish12_GLOBAL__N_1L15QuadraticTheirsE(%rip), %r11
	movq	%rax, 48(%rsp)
	movq	24+__gcov0._ZN8Polyfish12_GLOBAL__N_19imbalanceILNS_5ColorE0EEENS_5ScoreEPA8_Ki(%rip), %rax
	movq	%r9, %r10
	leaq	112(%rsp), %r15
	movq	%r9, 56(%rsp)
	movq	%rax, 32(%rsp)
	xorl	%eax, %eax
	jmp	.L700
	.p2align 4,,10
	.p2align 3
.L822:
	movb	$1, 92(%rsp)
	addq	$1, %rdi
.L695:
	addq	$1, %rax
	addq	$36, %r9
	addq	$32, %r11
	addq	$32, %r10
	cmpq	$6, %rax
	je	.L821
.L700:
	movl	(%r15,%rax,4), %edx
	movslq	%eax, %r8
	testl	%edx, %edx
	je	.L822
	movl	(%r9), %ecx
	addq	$1, 48(%rsp)
	imull	%edx, %ecx
	testq	%rax, %rax
	je	.L696
	leal	-1(%r8), %esi
	cmpl	$2, %esi
	jbe	.L697
	vpmulld	(%r11), %xmm1, %xmm3
	vpmulld	(%r10), %xmm2, %xmm0
	vpaddd	%xmm3, %xmm0, %xmm0
	vpsrldq	$8, %xmm0, %xmm3
	vpaddd	%xmm3, %xmm0, %xmm0
	vpsrldq	$4, %xmm0, %xmm3
	vpaddd	%xmm3, %xmm0, %xmm0
	vmovd	%xmm0, %ebx
	addl	%ebx, %ecx
	cmpl	$4, %r8d
	je	.L698
	salq	$5, %r8
	leaq	_ZN8Polyfish12_GLOBAL__N_1L15QuadraticTheirsE(%rip), %r14
	movl	160(%rsp), %ebx
	movl	128(%rsp), %ebp
	imull	16(%r14,%r8), %ebx
	movq	56(%rsp), %r14
	imull	16(%r14,%r8), %ebp
	addl	%ebp, %ebx
	addl	%ebx, %ecx
	.p2align 4,,10
	.p2align 3
.L698:
	movq	32(%rsp), %rbx
	leaq	1(%rbx,%rsi), %rsi
	movl	$1, %ebx
	movq	%rsi, 32(%rsp)
.L696:
	imull	%ecx, %edx
	movl	$1, %ecx
	addl	%edx, 88(%rsp)
	jmp	.L695
	.p2align 4,,10
	.p2align 3
.L697:
	movslq	%r8d, %rbx
	leaq	_ZN8Polyfish12_GLOBAL__N_1L15QuadraticTheirsE(%rip), %r14
	salq	$5, %rbx
	leaq	(%r14,%rbx), %r13
	addq	56(%rsp), %rbx
	movl	112(%rsp), %r14d
	movl	0(%r13), %ebp
	imull	(%rbx), %r14d
	imull	144(%rsp), %ebp
	addl	%r14d, %ebp
	addl	%ebp, %ecx
	cmpl	$1, %r8d
	jle	.L698
	movl	148(%rsp), %ebp
	movl	116(%rsp), %r14d
	imull	4(%r13), %ebp
	imull	4(%rbx), %r14d
	addl	%r14d, %ebp
	addl	%ebp, %ecx
	cmpl	$2, %r8d
	jle	.L698
	movl	8(%r13), %r8d
	movl	8(%rbx), %ebx
	imull	152(%rsp), %r8d
	imull	120(%rsp), %ebx
	addl	%ebx, %r8d
	addl	%r8d, %ecx
	jmp	.L698
	.p2align 4,,10
	.p2align 3
.L821:
	testb	%cl, %cl
	je	.L701
	movq	48(%rsp), %rax
	movq	%rax, 16+__gcov0._ZN8Polyfish12_GLOBAL__N_19imbalanceILNS_5ColorE0EEENS_5ScoreEPA8_Ki(%rip)
.L701:
	cmpb	$0, 92(%rsp)
	je	.L702
	movq	%rdi, 8+__gcov0._ZN8Polyfish12_GLOBAL__N_19imbalanceILNS_5ColorE0EEENS_5ScoreEPA8_Ki(%rip)
.L702:
	testb	%bl, %bl
	je	.L703
	movq	32(%rsp), %rax
	movq	%rax, 24+__gcov0._ZN8Polyfish12_GLOBAL__N_19imbalanceILNS_5ColorE0EEENS_5ScoreEPA8_Ki(%rip)
.L703:
	movl	88(%rsp), %eax
	subl	40(%rsp), %eax
	leal	32768(%rax), %ecx
	cwtl
	sarl	$16, %ecx
	leal	15(%rcx), %edx
	cmovns	%ecx, %edx
	leal	15(%rax), %ecx
	sarl	$4, %edx
	sall	$16, %edx
	testl	%eax, %eax
	cmovs	%ecx, %eax
	sarl	$4, %eax
	addl	%edx, %eax
	movl	%eax, 32(%r12)
	jmp	.L633
	.p2align 4,,10
	.p2align 3
.L669:
	testl	%eax, %eax
	jne	.L678
	movl	%ebp, %eax
	addq	$1, 152+__gcov0._ZN8Polyfish8Material5probeERKNS_8PositionE(%rip)
	subl	%r13d, %eax
	cmpl	$825, %eax
	jg	.L678
	jmp	.L674
	.p2align 4,,10
	.p2align 3
.L720:
	xorl	%edx, %edx
.L798:
	movl	340(%rbx), %eax
	jmp	.L675
	.p2align 4,,10
	.p2align 3
.L644:
	testl	%eax, %eax
	jle	.L823
	leaq	_ZN8Polyfish12_GLOBAL__N_110ScaleKBPsKE.lto_priv.0(%rip), %rdx
	movb	$0, 32(%rsp)
	xorl	%r11d, %r11d
	xorl	%r10d, %r10d
	addq	$1, 64(%rsp)
	movq	%rdx, 16(%r12)
	movb	$0, 56(%rsp)
	movb	$0, 48(%rsp)
	movb	$0, 88(%rsp)
	movb	$0, 94(%rsp)
	movb	$0, 92(%rsp)
	movb	$0, 95(%rsp)
	movb	$1, 93(%rsp)
	jmp	.L647
	.p2align 4,,10
	.p2align 3
.L808:
	testl	%edx, %edx
	jle	.L654
	leaq	16+_ZN8Polyfish12_GLOBAL__N_110ScaleKBPsKE.lto_priv.0(%rip), %rsi
	addq	$1, 64(%rsp)
	movq	%rsi, 24(%r12)
	movb	$1, 93(%rsp)
.L655:
	cmpb	$0, 32(%rsp)
	jne	.L793
	jmp	.L659
	.p2align 4,,10
	.p2align 3
.L820:
	movq	.refptr.__gcov_time_profiler_counter(%rip), %rax
	movq	.refptr.__gcov_time_profiler_counter(%rip), %rdi
	movq	(%rax), %rax
	movq	%rax, 32(%rsp)
	addq	$1, %rax
	movq	%rax, __gcov7._ZN8Polyfish12_GLOBAL__N_19imbalanceILNS_5ColorE0EEENS_5ScoreEPA8_Ki(%rip)
	movq	%rax, (%rdi)
	jmp	.L693
	.p2align 4,,10
	.p2align 3
.L816:
	movq	.refptr.__gcov_time_profiler_counter(%rip), %rax
	movq	.refptr.__gcov_time_profiler_counter(%rip), %rdi
	movq	(%rax), %rax
	movq	%rax, 32(%rsp)
	addq	$1, %rax
	movq	%rax, __gcov7._ZN8Polyfish12_GLOBAL__N_19imbalanceILNS_5ColorE1EEENS_5ScoreEPA8_Ki(%rip)
	movq	%rax, (%rdi)
	jmp	.L681
	.p2align 4,,10
	.p2align 3
.L645:
	movq	40(%rsp), %r8
	movb	$1, 94(%rsp)
	addq	$1, %r8
	movq	%r8, 40(%rsp)
	jmp	.L650
	.p2align 4,,10
	.p2align 3
.L809:
	movq	40(%rsp), %r8
	movb	$1, 94(%rsp)
	addq	$1, %r8
	movq	%r8, 40(%rsp)
	jmp	.L656
.L654:
	addq	$1, 72(%rsp)
	movb	$1, 95(%rsp)
	jmp	.L653
.L823:
	addq	$1, 72(%rsp)
	movb	$1, 95(%rsp)
	jmp	.L652
.L819:
	addq	$1, 80(%rsp)
	cmpl	$1, 384(%rbx)
	je	.L824
	movb	$1, 48(%rsp)
	xorl	%r10d, %r10d
	movb	$1, 88(%rsp)
	jmp	.L648
.L810:
	addq	$1, 80(%rsp)
	cmpl	$1, 352(%rbx)
	movb	$1, 48(%rsp)
	jne	.L657
	addq	$1, 96(%rsp)
	testl	%eax, %eax
	jle	.L825
	leaq	16+_ZN8Polyfish12_GLOBAL__N_111ScaleKQKRPsE.lto_priv.0(%rip), %rsi
	movb	$1, 92(%rsp)
	addq	$1, %r14
	movl	$1, %r11d
	movq	%rsi, 24(%r12)
	movl	$1, %r10d
	jmp	.L655
.L670:
	testl	%eax, %eax
	jne	.L673
	movl	%ebp, %ecx
	leaq	16+_ZN8Polyfish12_GLOBAL__N_19ScaleKPsKE.lto_priv.0(%rip), %rdi
	addq	$1, 120+__gcov0._ZN8Polyfish8Material5probeERKNS_8PositionE(%rip)
	subl	%r13d, %ecx
	addq	$1, 152+__gcov0._ZN8Polyfish8Material5probeERKNS_8PositionE(%rip)
	movq	%rdi, 24(%r12)
	cmpl	$825, %ecx
	jle	.L674
	jmp	.L675
.L673:
	addq	$1, 128+__gcov0._ZN8Polyfish8Material5probeERKNS_8PositionE(%rip)
	cmpl	$1, %eax
	jne	.L675
	addq	$1, 136+__gcov0._ZN8Polyfish8Material5probeERKNS_8PositionE(%rip)
	cmpl	$1, %edx
	jne	.L675
	leaq	16+_ZN8Polyfish12_GLOBAL__N_19ScaleKPKPE.lto_priv.0(%rip), %rcx
	addq	$1, 144+__gcov0._ZN8Polyfish8Material5probeERKNS_8PositionE(%rip)
	leaq	-16(%rcx), %rdi
	vmovq	%rdi, %xmm0
	vpinsrq	$1, %rcx, %xmm0, %xmm0
	vmovdqu	%xmm0, 16(%r12)
	jmp	.L675
.L824:
	movl	372(%rbx), %edx
	addq	$1, 96(%rsp)
	testl	%edx, %edx
	jle	.L649
	leaq	_ZN8Polyfish12_GLOBAL__N_111ScaleKQKRPsE.lto_priv.0(%rip), %rdx
	movb	$0, 32(%rsp)
	addq	$1, %r14
	movl	$1, %r11d
	movq	%rdx, 16(%r12)
	movl	$1, %r10d
	movb	$0, 56(%rsp)
	movb	$1, 48(%rsp)
	movb	$1, 88(%rsp)
	movb	$1, 92(%rsp)
	movb	$0, 93(%rsp)
	jmp	.L647
.L825:
	addq	$1, 104(%rsp)
	movl	$1, %r10d
	movb	$1, 56(%rsp)
	jmp	.L657
.L649:
	addq	$1, 104(%rsp)
	movl	$1, %r10d
	movb	$1, 48(%rsp)
	movb	$1, 88(%rsp)
	jmp	.L648
.L811:
	movq	104(%rsp), %rsi
	movq	%rsi, 32+__gcov0._ZN8Polyfish12_GLOBAL__N_19is_KQKRPsERKNS_8PositionENS_5ColorE(%rip)
	jmp	.L661
.L812:
	movq	96(%rsp), %rsi
	movq	%rsi, 24+__gcov0._ZN8Polyfish12_GLOBAL__N_19is_KQKRPsERKNS_8PositionENS_5ColorE(%rip)
	jmp	.L662
.L813:
	movq	80(%rsp), %rsi
	movq	%rsi, 16+__gcov0._ZN8Polyfish12_GLOBAL__N_19is_KQKRPsERKNS_8PositionENS_5ColorE(%rip)
	jmp	.L663
.L815:
	movq	72(%rsp), %rsi
	movq	%rsi, 80+__gcov0._ZN8Polyfish8Material5probeERKNS_8PositionE(%rip)
	jmp	.L667
.L814:
	movq	.refptr.__gcov_time_profiler_counter(%rip), %rsi
	movq	40(%rsp), %r11
	movq	%r8, __gcov7._ZN8Polyfish12_GLOBAL__N_19is_KQKRPsERKNS_8PositionENS_5ColorE(%rip)
	movq	%r11, (%rsi)
	jmp	.L665
	.seh_endproc
	.align 2
	.p2align 4
	.globl	_ZNSt5mutex4lockEv
	.def	_ZNSt5mutex4lockEv;	.scl	2;	.type	32;	.endef
	.seh_proc	_ZNSt5mutex4lockEv
_ZNSt5mutex4lockEv:
	pushq	%r12
	.seh_pushreg	%r12
	subq	$32, %rsp
	.seh_stackalloc	32
	.seh_endprologue
	movq	.refptr.__gcov_indirect_call(%rip), %rax
	cmpq	$0, (%rax)
	movq	%rcx, %r12
	je	.L827
	leaq	_ZNSt5mutex4lockEv(%rip), %rdx
	movl	$626186866, %ecx
	call	__gcov_indirect_call_profiler_v4
.L827:
	addq	$1, __gcov0._ZNSt5mutex4lockEv.lto_priv.0(%rip)
	cmpq	$0, __gcov7._ZNSt5mutex4lockEv.lto_priv.0(%rip)
	jne	.L828
	movq	.refptr.__gcov_time_profiler_counter(%rip), %rdx
	movq	(%rdx), %rax
	addq	$1, %rax
	movq	%rax, __gcov7._ZNSt5mutex4lockEv.lto_priv.0(%rip)
	movq	%rax, (%rdx)
.L828:
	movq	%r12, %rcx
	call	pthread_mutex_lock
	testl	%eax, %eax
	jne	.L830
	addq	$1, 16+__gcov0._ZNSt5mutex4lockEv.lto_priv.0(%rip)
	addq	$32, %rsp
	popq	%r12
	ret
.L830:
	movl	%eax, %ecx
	addq	$1, 8+__gcov0._ZNSt5mutex4lockEv.lto_priv.0(%rip)
	call	_ZSt20__throw_system_errori
	nop
	.seh_endproc
	.section .rdata,"dr"
.LC6:
	.ascii "\12id author \0"
.LC7:
	.ascii " by \0"
	.align 8
.LC8:
	.ascii "Jan Feb Mar Apr May Jun Jul Aug Sep Oct Nov Dec\0"
.LC9:
	.ascii "Jun 20 2022\0"
.LC10:
	.ascii "Polyfish \0"
.LC11:
	.ascii "basic_string::substr\0"
	.align 8
.LC12:
	.ascii "%s: __pos (which is %zu) > this->size() (which is %zu)\0"
.LC13:
	.ascii "Khalid Omar\0"
	.text
	.p2align 4
	.globl	_ZN8Polyfish11engine_infoB5cxx11Eb
	.def	_ZN8Polyfish11engine_infoB5cxx11Eb;	.scl	2;	.type	32;	.endef
	.seh_proc	_ZN8Polyfish11engine_infoB5cxx11Eb
_ZN8Polyfish11engine_infoB5cxx11Eb:
	pushq	%r15
	.seh_pushreg	%r15
	pushq	%r14
	.seh_pushreg	%r14
	pushq	%r13
	.seh_pushreg	%r13
	pushq	%r12
	.seh_pushreg	%r12
	pushq	%rbp
	.seh_pushreg	%rbp
	pushq	%rdi
	.seh_pushreg	%rdi
	pushq	%rsi
	.seh_pushreg	%rsi
	pushq	%rbx
	.seh_pushreg	%rbx
	subq	$1176, %rsp
	.seh_stackalloc	1176
	vmovups	%xmm6, 1152(%rsp)
	.seh_savexmm	%xmm6, 1152
	.seh_endprologue
	movq	.refptr._ZTVNSt7__cxx1118basic_stringstreamIcSt11char_traitsIcESaIcEEE(%rip), %rbx
	movq	.refptr._ZTVSt15basic_streambufIcSt11char_traitsIcEE(%rip), %rax
	leaq	64(%rbx), %rdi
	addq	$16, %rax
	vmovq	%rdi, %xmm6
	vpinsrq	$1, %rax, %xmm6, %xmm6
	movq	.refptr.__gcov_indirect_call(%rip), %rax
	movq	(%rax), %rax
	movl	%edx, 108(%rsp)
	movq	%rcx, %r13
	testq	%rax, %rax
	jne	.L889
	addq	$1, __gcov0._ZN8Polyfish11engine_infoB5cxx11Eb.lto_priv.0(%rip)
	cmpq	$0, __gcov7._ZN8Polyfish11engine_infoB5cxx11Eb.lto_priv.0(%rip)
	je	.L884
.L834:
	movq	.refptr.__gcov7._ZNSt7__cxx1112basic_stringIcSt11char_traitsIcESaIcEEC1IS3_EEPKcRKS3_.lto_priv.0(%rip), %rax
	cmpq	$0, (%rax)
	je	.L890
.L835:
	movq	.refptr.__gcov0._ZNSt7__cxx1112basic_stringIcSt11char_traitsIcESaIcEEC1IS3_EEPKcRKS3_.lto_priv.0(%rip), %rdi
	leaq	47+.LC8(%rip), %r8
	xorl	%r9d, %r9d
	leaq	304(%rsp), %rax
	leaq	288(%rsp), %rcx
	leaq	-47(%r8), %rdx
	movq	%rax, 112(%rsp)
	addq	$1, (%rdi)
	movq	%rax, 288(%rsp)
	movq	%rcx, 168(%rsp)
	call	_ZNSt7__cxx1112basic_stringIcSt11char_traitsIcESaIcEE12_M_constructIPKcEEvT_S8_St20forward_iterator_tag
	leaq	272(%rsp), %rax
	addq	$1, 16(%rdi)
	movq	.refptr.__gcov0._ZNSt7__cxx1118basic_stringstreamIcSt11char_traitsIcESaIcEEC1Ev.lto_priv.0(%rip), %r15
	movq	.refptr.__gcov7._ZNSt7__cxx1118basic_stringstreamIcSt11char_traitsIcESaIcEEC1Ev.lto_priv.0(%rip), %rdx
	movq	%rax, 160(%rsp)
	movq	%rax, 256(%rsp)
	leaq	240(%rsp), %rax
	addq	$1, 8+__gcov0._ZN8Polyfish11engine_infoB5cxx11Eb.lto_priv.0(%rip)
	addq	$1, (%r15)
	cmpq	$0, (%rdx)
	movq	%rax, 152(%rsp)
	movq	%rax, 224(%rsp)
	leaq	208(%rsp), %rax
	movq	$0, 264(%rsp)
	movb	$0, 272(%rsp)
	movq	$0, 232(%rsp)
	movb	$0, 240(%rsp)
	movq	%rax, 144(%rsp)
	movq	%rax, 192(%rsp)
	movq	$0, 200(%rsp)
	movb	$0, 208(%rsp)
	je	.L891
.L836:
	leaq	880(%rsp), %rax
	movq	%rax, %rcx
	movq	%rax, 80(%rsp)
	call	_ZNSt8ios_baseC2Ev
	movq	.refptr._ZTVSt9basic_iosIcSt11char_traitsIcEE(%rip), %rax
	movq	.refptr.__gcov0._ZNSdC2Ev.lto_priv.0(%rip), %rsi
	vpxor	%xmm0, %xmm0, %xmm0
	addq	$1, 8(%r15)
	leaq	16(%rax), %rdx
	movq	.refptr.__gcov7._ZNSdC2Ev.lto_priv.0(%rip), %rax
	addq	$1, (%rsi)
	movq	%rdx, 880(%rsp)
	xorl	%edx, %edx
	cmpq	$0, (%rax)
	movq	$0, 1096(%rsp)
	movw	%dx, 1104(%rsp)
	vmovdqu	%ymm0, 1112(%rsp)
	je	.L892
.L837:
	movq	.refptr._ZTTNSt7__cxx1118basic_stringstreamIcSt11char_traitsIcESaIcEEE(%rip), %r8
	movq	16(%r8), %rbp
	movq	24(%r8), %rax
	movq	-24(%rbp), %rdx
	movq	%rbp, 752(%rsp)
	movq	%rax, 48(%rsp)
	movq	%rax, 752(%rsp,%rdx)
	movq	$0, 760(%rsp)
	movq	-24(%rbp), %rdx
	leaq	752(%rsp,%rdx), %rcx
	xorl	%edx, %edx
	vzeroupper
	call	_ZNSt9basic_iosIcSt11char_traitsIcEE4initEPSt15basic_streambufIcS1_E
	addq	$1, 8(%rsi)
	xorl	%edx, %edx
	movq	.refptr._ZTTNSt7__cxx1118basic_stringstreamIcSt11char_traitsIcESaIcEEE(%rip), %r8
	leaq	768(%rsp), %r14
	movq	32(%r8), %r12
	movq	40(%r8), %rax
	movq	-24(%r12), %rcx
	movq	%r12, 768(%rsp)
	movq	%rax, 56(%rsp)
	addq	%r14, %rcx
	movq	%rax, (%rcx)
	call	_ZNSt9basic_iosIcSt11char_traitsIcEE4initEPSt15basic_streambufIcS1_E
	movq	.refptr._ZTTNSt7__cxx1118basic_stringstreamIcSt11char_traitsIcESaIcEEE(%rip), %r8
	addq	$1, 16(%rsi)
	vpxor	%xmm0, %xmm0, %xmm0
	addq	$1, 16(%r15)
	movq	8(%r8), %rax
	movq	48(%r8), %rcx
	movq	-24(%rax), %rdx
	movq	%rax, 64(%rsp)
	leaq	832(%rsp), %rax
	movq	%rcx, 72(%rsp)
	movq	%rcx, 752(%rsp,%rdx)
	leaq	24(%rbx), %rdx
	movq	%rax, %rcx
	movq	%rdx, 752(%rsp)
	leaq	104(%rbx), %rdx
	vmovdqu	%ymm0, 784(%rsp)
	vpxor	%xmm0, %xmm0, %xmm0
	movq	%rdx, 880(%rsp)
	movq	%rax, 120(%rsp)
	vmovdqu	%xmm6, 768(%rsp)
	vmovdqu	%xmm0, 816(%rsp)
	vzeroupper
	call	_ZNSt6localeC1Ev
	addq	$1, 24(%r15)
	movq	.refptr._ZTVNSt7__cxx1115basic_stringbufIcSt11char_traitsIcESaIcEEE(%rip), %rax
	movq	80(%rsp), %rcx
	movb	$0, 864(%rsp)
	movl	$24, 840(%rsp)
	leaq	16(%rax), %rdx
	leaq	864(%rsp), %rax
	movq	%rdx, 776(%rsp)
	leaq	776(%rsp), %rdx
	movq	%rax, 128(%rsp)
	movq	%rax, 848(%rsp)
	movq	$0, 856(%rsp)
	call	_ZNSt9basic_iosIcSt11char_traitsIcEE4initEPSt15basic_streambufIcS1_E
	movq	.refptr.__gcov_indirect_call(%rip), %rax
	addq	$1, 32(%r15)
	addq	$1, 16+__gcov0._ZN8Polyfish11engine_infoB5cxx11Eb.lto_priv.0(%rip)
	cmpq	$0, (%rax)
	jne	.L893
	movq	.refptr.__gcov7._ZNSt7__cxx1112basic_stringIcSt11char_traitsIcESaIcEEC1IS3_EEPKcRKS3_.lto_priv.0(%rip), %rax
	cmpq	$0, (%rax)
	je	.L894
.L839:
	addq	$1, (%rdi)
	leaq	11+.LC9(%rip), %r8
	xorl	%r9d, %r9d
	leaq	320(%rsp), %r15
	leaq	336(%rsp), %rax
	leaq	-11(%r8), %rdx
	movq	%r15, %rcx
	movq	%rax, 96(%rsp)
	movq	%rax, 320(%rsp)
	call	_ZNSt7__cxx1112basic_stringIcSt11char_traitsIcESaIcEE12_M_constructIPKcEEvT_S8_St20forward_iterator_tag
	addq	$1, 16(%rdi)
	addq	$1, 24+__gcov0._ZN8Polyfish11engine_infoB5cxx11Eb.lto_priv.0(%rip)
	addq	$1, __gcov0._ZNSt7__cxx1118basic_stringstreamIcSt11char_traitsIcESaIcEEC1ERKNS_12basic_stringIcS2_S3_EESt13_Ios_Openmode.lto_priv.0(%rip)
	cmpq	$0, __gcov7._ZNSt7__cxx1118basic_stringstreamIcSt11char_traitsIcESaIcEEC1ERKNS_12basic_stringIcS2_S3_EESt13_Ios_Openmode.lto_priv.0(%rip)
	je	.L895
.L840:
	leaq	480(%rsp), %rax
	movq	%rax, %rcx
	movq	%rax, 88(%rsp)
	call	_ZNSt8ios_baseC2Ev
	movq	.refptr._ZTVSt9basic_iosIcSt11char_traitsIcEE(%rip), %rax
	addq	$1, (%rsi)
	vpxor	%xmm0, %xmm0, %xmm0
	addq	$1, 8+__gcov0._ZNSt7__cxx1118basic_stringstreamIcSt11char_traitsIcESaIcEEC1ERKNS_12basic_stringIcS2_S3_EESt13_Ios_Openmode.lto_priv.0(%rip)
	movq	$0, 696(%rsp)
	addq	$16, %rax
	movq	%rax, 480(%rsp)
	xorl	%eax, %eax
	movw	%ax, 704(%rsp)
	movq	.refptr.__gcov7._ZNSdC2Ev.lto_priv.0(%rip), %rax
	vmovdqu	%ymm0, 712(%rsp)
	cmpq	$0, (%rax)
	je	.L896
.L841:
	movq	-24(%rbp), %rax
	movq	48(%rsp), %rdi
	movq	%rbp, 352(%rsp)
	xorl	%edx, %edx
	movq	%rdi, 352(%rsp,%rax)
	leaq	352(%rsp), %rax
	movq	$0, 360(%rsp)
	movq	-24(%rbp), %rcx
	movq	%rax, 176(%rsp)
	addq	%rax, %rcx
	vzeroupper
	call	_ZNSt9basic_iosIcSt11char_traitsIcEE4initEPSt15basic_streambufIcS1_E
	movq	-24(%r12), %rax
	addq	$1, 8(%rsi)
	movq	%r12, 368(%rsp)
	xorl	%edx, %edx
	leaq	368(%rsp,%rax), %rcx
	movq	56(%rsp), %rax
	movq	%rax, (%rcx)
	call	_ZNSt9basic_iosIcSt11char_traitsIcEE4initEPSt15basic_streambufIcS1_E
	movq	64(%rsp), %rax
	movq	72(%rsp), %rdi
	addq	$1, 16(%rsi)
	movq	-24(%rax), %rax
	addq	$1, 16+__gcov0._ZNSt7__cxx1118basic_stringstreamIcSt11char_traitsIcESaIcEEC1ERKNS_12basic_stringIcS2_S3_EESt13_Ios_Openmode.lto_priv.0(%rip)
	addq	$1, __gcov0._ZNSt7__cxx1115basic_stringbufIcSt11char_traitsIcESaIcEEC2ERKNS_12basic_stringIcS2_S3_EESt13_Ios_Openmode.lto_priv.0(%rip)
	cmpq	$0, __gcov7._ZNSt7__cxx1115basic_stringbufIcSt11char_traitsIcESaIcEEC2ERKNS_12basic_stringIcS2_S3_EESt13_Ios_Openmode.lto_priv.0(%rip)
	movq	%rdi, 352(%rsp,%rax)
	leaq	24(%rbx), %rax
	movq	%rax, 352(%rsp)
	leaq	104(%rbx), %rax
	movq	%rax, 480(%rsp)
	leaq	64(%rbx), %rax
	movq	%rax, 368(%rsp)
	je	.L897
.L842:
	movq	.refptr._ZTVSt15basic_streambufIcSt11char_traitsIcEE(%rip), %rax
	movq	$0, 384(%rsp)
	leaq	464(%rsp), %rdi
	leaq	376(%rsp), %rsi
	movq	$0, 392(%rsp)
	movq	$0, 400(%rsp)
	addq	$16, %rax
	movq	%rax, 376(%rsp)
	leaq	432(%rsp), %rax
	movq	%rax, %rcx
	movq	%rax, 136(%rsp)
	movq	$0, 408(%rsp)
	movq	$0, 416(%rsp)
	movq	$0, 424(%rsp)
	call	_ZNSt6localeC1Ev
	movq	320(%rsp), %rdx
	xorl	%r9d, %r9d
	movq	.refptr._ZTVNSt7__cxx1115basic_stringbufIcSt11char_traitsIcESaIcEEE(%rip), %rax
	movq	328(%rsp), %r8
	leaq	448(%rsp), %rcx
	addq	$1, 8+__gcov0._ZNSt7__cxx1115basic_stringbufIcSt11char_traitsIcESaIcEEC2ERKNS_12basic_stringIcS2_S3_EESt13_Ios_Openmode.lto_priv.0(%rip)
	addq	$16, %rax
	movq	%rdi, 448(%rsp)
	addq	%rdx, %r8
	movq	%rax, 376(%rsp)
	movl	$0, 440(%rsp)
	call	_ZNSt7__cxx1112basic_stringIcSt11char_traitsIcESaIcEE12_M_constructIPKcEEvT_S8_St20forward_iterator_tag
	xorl	%r9d, %r9d
	xorl	%r8d, %r8d
	movq	%rsi, %rcx
	movq	448(%rsp), %rdx
	addq	$1, 16+__gcov0._ZNSt7__cxx1115basic_stringbufIcSt11char_traitsIcESaIcEEC2ERKNS_12basic_stringIcS2_S3_EESt13_Ios_Openmode.lto_priv.0(%rip)
	movl	$24, 440(%rsp)
	call	_ZNSt7__cxx1115basic_stringbufIcSt11char_traitsIcESaIcEE7_M_syncEPcyy
	movq	88(%rsp), %rcx
	movq	%rsi, %rdx
	addq	$1, 32+__gcov0._ZNSt7__cxx1115basic_stringbufIcSt11char_traitsIcESaIcEEC2ERKNS_12basic_stringIcS2_S3_EESt13_Ios_Openmode.lto_priv.0(%rip)
	addq	$1, 24+__gcov0._ZNSt7__cxx1118basic_stringstreamIcSt11char_traitsIcESaIcEEC1ERKNS_12basic_stringIcS2_S3_EESt13_Ios_Openmode.lto_priv.0(%rip)
	call	_ZNSt9basic_iosIcSt11char_traitsIcEE4initEPSt15basic_streambufIcS1_E
	addq	$1, 32+__gcov0._ZNSt7__cxx1118basic_stringstreamIcSt11char_traitsIcESaIcEEC1ERKNS_12basic_stringIcS2_S3_EESt13_Ios_Openmode.lto_priv.0(%rip)
	movq	320(%rsp), %rcx
	cmpq	96(%rsp), %rcx
	je	.L898
	movq	336(%rsp), %rax
	addq	$1, 32+__gcov0._ZN8Polyfish11engine_infoB5cxx11Eb.lto_priv.0(%rip)
	leaq	1(%rax), %rdx
	call	_ZdlPvy
	addq	$1, 48+__gcov0._ZN8Polyfish11engine_infoB5cxx11Eb.lto_priv.0(%rip)
.L844:
	movl	$9, %r8d
	leaq	.LC10(%rip), %rdx
	movq	%r14, %rcx
	call	_ZSt16__ostream_insertIcSt11char_traitsIcEERSt13basic_ostreamIT_T0_ES6_PKS3_x
	movq	8+_ZN8Polyfish12_GLOBAL__N_1L7VersionE.lto_priv.0(%rip), %r8
	movq	%r14, %rcx
	movq	_ZN8Polyfish12_GLOBAL__N_1L7VersionE.lto_priv.0(%rip), %rdx
	addq	$1, 56+__gcov0._ZN8Polyfish11engine_infoB5cxx11Eb.lto_priv.0(%rip)
	call	_ZSt16__ostream_insertIcSt11char_traitsIcEERSt13basic_ostreamIT_T0_ES6_PKS3_x
	addq	$1, 64+__gcov0._ZN8Polyfish11engine_infoB5cxx11Eb.lto_priv.0(%rip)
	movq	%rax, %rsi
	movq	(%rax), %rax
	addq	$1, __gcov0._ZNKSt9basic_iosIcSt11char_traitsIcEE4fillEv.lto_priv.0(%rip)
	addq	-24(%rax), %rsi
	cmpq	$0, __gcov7._ZNKSt9basic_iosIcSt11char_traitsIcEE4fillEv.lto_priv.0(%rip)
	je	.L899
.L845:
	cmpb	$0, 225(%rsi)
	jne	.L846
	movq	240(%rsi), %r8
	testq	%r8, %r8
	je	.L900
	movq	.refptr.__gcov_indirect_call(%rip), %rax
	addq	$1, 16+__gcov0._ZNKSt9basic_iosIcSt11char_traitsIcEE4fillEv.lto_priv.0(%rip)
	cmpq	$0, (%rax)
	jne	.L901
.L848:
	movq	.refptr.__gcov7._ZNKSt5ctypeIcE5widenEc.lto_priv.0(%rip), %rax
	cmpq	$0, (%rax)
	je	.L902
.L849:
	cmpb	$0, 56(%r8)
	je	.L850
	movq	.refptr.__gcov0._ZNKSt5ctypeIcE5widenEc.lto_priv.0(%rip), %rax
	addq	$1, (%rax)
.L851:
	addq	$1, 24+__gcov0._ZNKSt9basic_iosIcSt11char_traitsIcEE4fillEv.lto_priv.0(%rip)
	movb	$1, 225(%rsi)
.L846:
	addq	$1, 72+__gcov0._ZN8Polyfish11engine_infoB5cxx11Eb.lto_priv.0(%rip)
	cmpq	$0, 8+_ZN8Polyfish12_GLOBAL__N_1L7VersionE.lto_priv.0(%rip)
	movb	$48, 224(%rsi)
	je	.L903
.L852:
	cmpb	$0, 108(%rsp)
	leaq	.LC6(%rip), %rdx
	je	.L904
	movq	.refptr.__gcov7._ZStlsISt11char_traitsIcEERSt13basic_ostreamIcT_ES5_PKc.lto_priv.0(%rip), %rsi
	cmpq	$0, (%rsi)
	je	.L905
.L859:
	movq	.refptr.__gcov0._ZStlsISt11char_traitsIcEERSt13basic_ostreamIcT_ES5_PKc.lto_priv.0(%rip), %r15
	movq	%rdx, %rcx
	movq	%rdx, 96(%rsp)
	addq	$1, 8(%r15)
	call	strlen
	movq	96(%rsp), %rdx
	movq	%r14, %rcx
	movq	%rax, %r8
	call	_ZSt16__ostream_insertIcSt11char_traitsIcEERSt13basic_ostreamIT_T0_ES6_PKS3_x
	addq	$1, 24(%r15)
	addq	$1, 176+__gcov0._ZN8Polyfish11engine_infoB5cxx11Eb.lto_priv.0(%rip)
	cmpq	$0, (%rsi)
	je	.L906
.L883:
	addq	$1, 8(%r15)
	movl	$11, %r8d
	leaq	.LC13(%rip), %rdx
	movq	%r14, %rcx
	call	_ZSt16__ostream_insertIcSt11char_traitsIcEERSt13basic_ostreamIT_T0_ES6_PKS3_x
	movq	.refptr.__gcov7._ZNKSt7__cxx1115basic_stringbufIcSt11char_traitsIcESaIcEE3strEv.lto_priv.0(%rip), %rax
	addq	$1, 24(%r15)
	addq	$1, 184+__gcov0._ZN8Polyfish11engine_infoB5cxx11Eb.lto_priv.0(%rip)
	cmpq	$0, (%rax)
	je	.L907
.L860:
	leaq	16(%r13), %rax
	movq	$0, 8(%r13)
	movq	.refptr.__gcov0._ZNKSt7__cxx1115basic_stringbufIcSt11char_traitsIcESaIcEE3strEv.lto_priv.0(%rip), %rsi
	movq	%rax, 0(%r13)
	movq	816(%rsp), %rax
	movb	$0, 16(%r13)
	testq	%rax, %rax
	je	.L861
	movq	800(%rsp), %rdx
	addq	$1, (%rsi)
	testq	%rdx, %rdx
	je	.L862
	cmpq	%rdx, %rax
	ja	.L862
	addq	$1, 16(%rsi)
	movq	%rdx, %rax
.L862:
	movq	808(%rsp), %r9
	movq	.refptr.__gcov7._ZNSt7__cxx1112basic_stringIcSt11char_traitsIcESaIcEE7replaceEyyPKcy.lto_priv.0(%rip), %rdx
	subq	%r9, %rax
	cmpq	$0, (%rdx)
	je	.L908
.L863:
	movq	.refptr.__gcov0._ZNSt7__cxx1112basic_stringIcSt11char_traitsIcESaIcEE7replaceEyyPKcy.lto_priv.0(%rip), %r14
	xorl	%r8d, %r8d
	xorl	%edx, %edx
	movq	%r13, %rcx
	addq	$1, 8(%r14)
	movq	%rax, 32(%rsp)
	call	_ZNSt7__cxx1112basic_stringIcSt11char_traitsIcESaIcEE10_M_replaceEyyPKcy
	addq	$1, 16(%r14)
	addq	$1, 24(%rsi)
.L864:
	movq	.refptr.__gcov_indirect_call(%rip), %rax
	addq	$1, 192+__gcov0._ZN8Polyfish11engine_infoB5cxx11Eb.lto_priv.0(%rip)
	cmpq	$0, (%rax)
	je	.L865
	movq	.refptr._ZNSt7__cxx1118basic_stringstreamIcSt11char_traitsIcESaIcEED1Ev(%rip), %rdx
	movl	$1483205735, %ecx
	call	__gcov_indirect_call_profiler_v4
.L865:
	movq	.refptr.__gcov0._ZNSt7__cxx1118basic_stringstreamIcSt11char_traitsIcESaIcEED1Ev.lto_priv.0(%rip), %rsi
	movq	.refptr.__gcov7._ZNSt7__cxx1118basic_stringstreamIcSt11char_traitsIcESaIcEED1Ev.lto_priv.0(%rip), %r15
	addq	$1, (%rsi)
	cmpq	$0, (%r15)
	je	.L909
.L866:
	leaq	24(%rbx), %rax
	movq	%rax, 352(%rsp)
	leaq	104(%rbx), %rax
	movq	%rax, 480(%rsp)
	leaq	64(%rbx), %rax
	movq	%rax, 368(%rsp)
	movq	.refptr.__gcov_indirect_call(%rip), %rax
	cmpq	$0, (%rax)
	je	.L867
	leaq	_ZNSt7__cxx1115basic_stringbufIcSt11char_traitsIcESaIcEED1Ev(%rip), %rdx
	movl	$130384771, %ecx
	call	__gcov_indirect_call_profiler_v4
.L867:
	movq	.refptr.__gcov7._ZNSt7__cxx1115basic_stringbufIcSt11char_traitsIcESaIcEED1Ev.lto_priv.0(%rip), %r14
	cmpq	$0, (%r14)
	je	.L910
.L868:
	movq	.refptr._ZTVNSt7__cxx1115basic_stringbufIcSt11char_traitsIcESaIcEEE(%rip), %rax
	movq	448(%rsp), %rcx
	addq	$16, %rax
	cmpq	%rdi, %rcx
	movq	.refptr.__gcov0._ZNSt7__cxx1115basic_stringbufIcSt11char_traitsIcESaIcEED1Ev.lto_priv.0(%rip), %rdi
	movq	%rax, 376(%rsp)
	je	.L911
	addq	$1, (%rdi)
	movq	464(%rsp), %rax
	leaq	1(%rax), %rdx
	call	_ZdlPvy
	addq	$1, 16(%rdi)
.L870:
	movq	.refptr._ZTVSt15basic_streambufIcSt11char_traitsIcEE(%rip), %rax
	movq	136(%rsp), %rcx
	addq	$16, %rax
	movq	%rax, 376(%rsp)
	call	_ZNSt6localeD1Ev
	movq	64(%rsp), %rax
	movq	72(%rsp), %rcx
	movq	56(%rsp), %rdx
	addq	$1, 24(%rdi)
	movq	-24(%rax), %rax
	addq	$1, 8(%rsi)
	movq	%rcx, 352(%rsp,%rax)
	movq	-24(%r12), %rax
	movq	%r12, 368(%rsp)
	movq	48(%rsp), %rcx
	movq	%rdx, 368(%rsp,%rax)
	movq	-24(%rbp), %rax
	movq	%rbp, 352(%rsp)
	movq	%rcx, 352(%rsp,%rax)
	movq	.refptr._ZTVSt9basic_iosIcSt11char_traitsIcEE(%rip), %rax
	movq	88(%rsp), %rcx
	movq	$0, 360(%rsp)
	addq	$16, %rax
	movq	%rax, 480(%rsp)
	call	_ZNSt8ios_baseD2Ev
	movq	.refptr.__gcov_indirect_call(%rip), %rax
	addq	$1, 16(%rsi)
	addq	$1, 200+__gcov0._ZN8Polyfish11engine_infoB5cxx11Eb.lto_priv.0(%rip)
	cmpq	$0, (%rax)
	je	.L871
	movq	.refptr._ZNSt7__cxx1118basic_stringstreamIcSt11char_traitsIcESaIcEED1Ev(%rip), %rdx
	movl	$1483205735, %ecx
	call	__gcov_indirect_call_profiler_v4
.L871:
	addq	$1, (%rsi)
	cmpq	$0, (%r15)
	je	.L912
.L872:
	leaq	24(%rbx), %rax
	movq	%rax, 752(%rsp)
	leaq	104(%rbx), %rax
	addq	$64, %rbx
	movq	%rax, 880(%rsp)
	movq	.refptr.__gcov_indirect_call(%rip), %rax
	movq	%rbx, 768(%rsp)
	cmpq	$0, (%rax)
	je	.L873
	leaq	_ZNSt7__cxx1115basic_stringbufIcSt11char_traitsIcESaIcEED1Ev(%rip), %rdx
	movl	$130384771, %ecx
	call	__gcov_indirect_call_profiler_v4
.L873:
	cmpq	$0, (%r14)
	je	.L913
.L874:
	movq	.refptr._ZTVNSt7__cxx1115basic_stringbufIcSt11char_traitsIcESaIcEEE(%rip), %rax
	movq	848(%rsp), %rcx
	addq	$16, %rax
	movq	%rax, 776(%rsp)
	cmpq	128(%rsp), %rcx
	je	.L914
	addq	$1, (%rdi)
	movq	864(%rsp), %rax
	leaq	1(%rax), %rdx
	call	_ZdlPvy
	addq	$1, 16(%rdi)
.L876:
	movq	.refptr._ZTVSt15basic_streambufIcSt11char_traitsIcEE(%rip), %rax
	movq	120(%rsp), %rcx
	addq	$16, %rax
	movq	%rax, 776(%rsp)
	call	_ZNSt6localeD1Ev
	movq	64(%rsp), %rax
	movq	72(%rsp), %rbx
	addq	$1, 24(%rdi)
	movq	80(%rsp), %rcx
	movq	-24(%rax), %rax
	addq	$1, 8(%rsi)
	movq	%rbx, 752(%rsp,%rax)
	movq	-24(%r12), %rax
	movq	56(%rsp), %rbx
	movq	%r12, 768(%rsp)
	movq	%rbx, 768(%rsp,%rax)
	movq	-24(%rbp), %rax
	movq	48(%rsp), %rbx
	movq	%rbp, 752(%rsp)
	movq	%rbx, 752(%rsp,%rax)
	movq	.refptr._ZTVSt9basic_iosIcSt11char_traitsIcEE(%rip), %rax
	movq	$0, 760(%rsp)
	addq	$16, %rax
	movq	%rax, 880(%rsp)
	call	_ZNSt8ios_baseD2Ev
	addq	$1, 16(%rsi)
	movq	192(%rsp), %rcx
	cmpq	144(%rsp), %rcx
	je	.L877
	movq	208(%rsp), %rax
	addq	$1, 208+__gcov0._ZN8Polyfish11engine_infoB5cxx11Eb.lto_priv.0(%rip)
	leaq	1(%rax), %rdx
	call	_ZdlPvy
	addq	$1, 216+__gcov0._ZN8Polyfish11engine_infoB5cxx11Eb.lto_priv.0(%rip)
.L877:
	movq	224(%rsp), %rcx
	cmpq	152(%rsp), %rcx
	je	.L915
	movq	240(%rsp), %rax
	addq	$1, 224+__gcov0._ZN8Polyfish11engine_infoB5cxx11Eb.lto_priv.0(%rip)
	leaq	1(%rax), %rdx
	call	_ZdlPvy
	addq	$1, 240+__gcov0._ZN8Polyfish11engine_infoB5cxx11Eb.lto_priv.0(%rip)
.L879:
	movq	256(%rsp), %rcx
	cmpq	160(%rsp), %rcx
	je	.L880
	movq	272(%rsp), %rax
	addq	$1, 248+__gcov0._ZN8Polyfish11engine_infoB5cxx11Eb.lto_priv.0(%rip)
	leaq	1(%rax), %rdx
	call	_ZdlPvy
	addq	$1, 256+__gcov0._ZN8Polyfish11engine_infoB5cxx11Eb.lto_priv.0(%rip)
.L880:
	movq	288(%rsp), %rcx
	cmpq	112(%rsp), %rcx
	je	.L831
	movq	304(%rsp), %rax
	addq	$1, 264+__gcov0._ZN8Polyfish11engine_infoB5cxx11Eb.lto_priv.0(%rip)
	leaq	1(%rax), %rdx
	call	_ZdlPvy
	addq	$1, 272+__gcov0._ZN8Polyfish11engine_infoB5cxx11Eb.lto_priv.0(%rip)
.L831:
	vmovups	1152(%rsp), %xmm6
	movq	%r13, %rax
	addq	$1176, %rsp
	popq	%rbx
	popq	%rsi
	popq	%rdi
	popq	%rbp
	popq	%r12
	popq	%r13
	popq	%r14
	popq	%r15
	ret
	.p2align 4,,10
	.p2align 3
.L904:
	movq	.refptr.__gcov7._ZStlsISt11char_traitsIcEERSt13basic_ostreamIcT_ES5_PKc.lto_priv.0(%rip), %rsi
	addq	$1, 168+__gcov0._ZN8Polyfish11engine_infoB5cxx11Eb.lto_priv.0(%rip)
	leaq	.LC7(%rip), %rdx
	cmpq	$0, (%rsi)
	jne	.L859
.L905:
	movq	.refptr.__gcov_time_profiler_counter(%rip), %rcx
	movq	(%rcx), %rax
	addq	$1, %rax
	movq	%rax, (%rsi)
	movq	%rax, (%rcx)
	jmp	.L859
	.p2align 4,,10
	.p2align 3
.L898:
	addq	$1, 40+__gcov0._ZN8Polyfish11engine_infoB5cxx11Eb.lto_priv.0(%rip)
	jmp	.L844
	.p2align 4,,10
	.p2align 3
.L915:
	addq	$1, 232+__gcov0._ZN8Polyfish11engine_infoB5cxx11Eb.lto_priv.0(%rip)
	jmp	.L879
	.p2align 4,,10
	.p2align 3
.L914:
	addq	$1, 8(%rdi)
	jmp	.L876
	.p2align 4,,10
	.p2align 3
.L911:
	addq	$1, 8(%rdi)
	jmp	.L870
	.p2align 4,,10
	.p2align 3
.L903:
	movq	176(%rsp), %rcx
	leaq	256(%rsp), %rdx
	addq	$1, 80+__gcov0._ZN8Polyfish11engine_infoB5cxx11Eb.lto_priv.0(%rip)
	call	_ZStrsIcSt11char_traitsIcESaIcEERSt13basic_istreamIT_T0_ES7_RNSt7__cxx1112basic_stringIS4_S5_T1_EE
	leaq	224(%rsp), %rdx
	addq	$1, 88+__gcov0._ZN8Polyfish11engine_infoB5cxx11Eb.lto_priv.0(%rip)
	movq	%rax, %rcx
	call	_ZStrsIcSt11char_traitsIcESaIcEERSt13basic_istreamIT_T0_ES7_RNSt7__cxx1112basic_stringIS4_S5_T1_EE
	leaq	192(%rsp), %rdx
	addq	$1, 96+__gcov0._ZN8Polyfish11engine_infoB5cxx11Eb.lto_priv.0(%rip)
	movq	%rax, %rcx
	call	_ZStrsIcSt11char_traitsIcESaIcEERSt13basic_istreamIT_T0_ES7_RNSt7__cxx1112basic_stringIS4_S5_T1_EE
	movq	768(%rsp), %rax
	addq	$1, 104+__gcov0._ZN8Polyfish11engine_infoB5cxx11Eb.lto_priv.0(%rip)
	cmpq	$0, __gcov7._ZNKSt7__cxx1112basic_stringIcSt11char_traitsIcESaIcEE6substrEyy.lto_priv.0(%rip)
	movq	-24(%rax), %rax
	movq	$2, 784(%rsp,%rax)
	je	.L916
.L853:
	movq	200(%rsp), %rax
	cmpq	$1, %rax
	jbe	.L917
	addq	$1, 8+__gcov0._ZNKSt7__cxx1112basic_stringIcSt11char_traitsIcESaIcEE6substrEyy.lto_priv.0(%rip)
	cmpq	$0, __gcov7._ZNSt7__cxx1112basic_stringIcSt11char_traitsIcESaIcEEC2ERKS4_yy.lto_priv.0(%rip)
	je	.L918
.L855:
	movq	192(%rsp), %rdx
	movq	96(%rsp), %rsi
	xorl	%r9d, %r9d
	movq	%r15, %rcx
	addq	$1, 8+__gcov0._ZNSt7__cxx1112basic_stringIcSt11char_traitsIcESaIcEEC2ERKS4_yy.lto_priv.0(%rip)
	leaq	2(%rdx), %r10
	leaq	(%rdx,%rax), %r8
	movq	%rsi, 320(%rsp)
	movq	%r10, %rdx
	call	_ZNSt7__cxx1112basic_stringIcSt11char_traitsIcESaIcEE12_M_constructIPKcEEvT_S8_St20forward_iterator_tag
	movq	328(%rsp), %r8
	movq	%r14, %rcx
	movq	320(%rsp), %rdx
	addq	$1, 16+__gcov0._ZNSt7__cxx1112basic_stringIcSt11char_traitsIcESaIcEEC2ERKS4_yy.lto_priv.0(%rip)
	addq	$1, 16+__gcov0._ZNKSt7__cxx1112basic_stringIcSt11char_traitsIcESaIcEE6substrEyy.lto_priv.0(%rip)
	addq	$1, 112+__gcov0._ZN8Polyfish11engine_infoB5cxx11Eb.lto_priv.0(%rip)
	call	_ZSt16__ostream_insertIcSt11char_traitsIcEERSt13basic_ostreamIT_T0_ES6_PKS3_x
	movq	264(%rsp), %r9
	movq	256(%rsp), %rdx
	xorl	%r8d, %r8d
	movq	%rax, %r15
	movq	(%rax), %rax
	movq	168(%rsp), %rcx
	addq	$1, 120+__gcov0._ZN8Polyfish11engine_infoB5cxx11Eb.lto_priv.0(%rip)
	movq	-24(%rax), %rax
	movq	$2, 16(%r15,%rax)
	call	_ZNKSt7__cxx1112basic_stringIcSt11char_traitsIcESaIcEE4findEPKcyy
	movq	%r15, %rcx
	addq	$1, 128+__gcov0._ZN8Polyfish11engine_infoB5cxx11Eb.lto_priv.0(%rip)
	shrq	$2, %rax
	leaq	1(%rax), %rdx
	call	_ZNSo9_M_insertIyEERSoT_
	movq	232(%rsp), %r8
	movq	224(%rsp), %rdx
	movq	%rax, %rcx
	addq	$1, 136+__gcov0._ZN8Polyfish11engine_infoB5cxx11Eb.lto_priv.0(%rip)
	call	_ZSt16__ostream_insertIcSt11char_traitsIcEERSt13basic_ostreamIT_T0_ES6_PKS3_x
	movq	320(%rsp), %rcx
	cmpq	%rsi, %rcx
	je	.L919
	movq	336(%rsp), %rax
	addq	$1, 144+__gcov0._ZN8Polyfish11engine_infoB5cxx11Eb.lto_priv.0(%rip)
	leaq	1(%rax), %rdx
	call	_ZdlPvy
	addq	$1, 160+__gcov0._ZN8Polyfish11engine_infoB5cxx11Eb.lto_priv.0(%rip)
	jmp	.L852
	.p2align 4,,10
	.p2align 3
.L850:
	movq	.refptr.__gcov0._ZNKSt5ctypeIcE5widenEc.lto_priv.0(%rip), %r9
	movq	%r8, %rcx
	movq	%r8, 184(%rsp)
	addq	$1, 8(%r9)
	call	_ZNKSt5ctypeIcE13_M_widen_initEv
	movq	184(%rsp), %r8
	movq	.refptr.__gcov_indirect_call(%rip), %rcx
	movq	.refptr.__gcov0._ZNKSt5ctypeIcE5widenEc.lto_priv.0(%rip), %r9
	movq	.refptr.__gcov4._ZNKSt5ctypeIcE5widenEc.lto_priv.0(%rip), %rdx
	movq	(%r8), %rax
	addq	$1, 16(%r9)
	movq	48(%rax), %rax
	movq	%rdx, 8(%rcx)
	movl	$32, %edx
	movq	%rax, (%rcx)
	movq	%r8, %rcx
	call	*%rax
	movq	.refptr.__gcov0._ZNKSt5ctypeIcE5widenEc.lto_priv.0(%rip), %r9
	addq	$1, 24(%r9)
	jmp	.L851
	.p2align 4,,10
	.p2align 3
.L919:
	addq	$1, 152+__gcov0._ZN8Polyfish11engine_infoB5cxx11Eb.lto_priv.0(%rip)
	jmp	.L852
	.p2align 4,,10
	.p2align 3
.L897:
	movq	.refptr.__gcov_time_profiler_counter(%rip), %rdx
	movq	(%rdx), %rax
	addq	$1, %rax
	movq	%rax, __gcov7._ZNSt7__cxx1115basic_stringbufIcSt11char_traitsIcESaIcEEC2ERKNS_12basic_stringIcS2_S3_EESt13_Ios_Openmode.lto_priv.0(%rip)
	movq	%rax, (%rdx)
	jmp	.L842
	.p2align 4,,10
	.p2align 3
.L890:
	movq	.refptr.__gcov_time_profiler_counter(%rip), %rdx
	movq	%rax, %rdi
	movq	(%rdx), %rax
	addq	$1, %rax
	movq	%rax, (%rdi)
	movq	%rax, (%rdx)
	jmp	.L835
	.p2align 4,,10
	.p2align 3
.L889:
	leaq	_ZN8Polyfish11engine_infoB5cxx11Eb(%rip), %rdx
	movl	$1950809392, %ecx
	call	__gcov_indirect_call_profiler_v4
	movq	.refptr.__gcov_indirect_call(%rip), %rax
	addq	$1, __gcov0._ZN8Polyfish11engine_infoB5cxx11Eb.lto_priv.0(%rip)
	cmpq	$0, __gcov7._ZN8Polyfish11engine_infoB5cxx11Eb.lto_priv.0(%rip)
	movq	(%rax), %rax
	je	.L884
.L833:
	testq	%rax, %rax
	je	.L834
	movq	.refptr._ZNSt7__cxx1112basic_stringIcSt11char_traitsIcESaIcEEC1IS3_EEPKcRKS3_(%rip), %rdx
	movl	$337037418, %ecx
	call	__gcov_indirect_call_profiler_v4
	jmp	.L834
	.p2align 4,,10
	.p2align 3
.L895:
	movq	.refptr.__gcov_time_profiler_counter(%rip), %rdx
	movq	(%rdx), %rax
	addq	$1, %rax
	movq	%rax, __gcov7._ZNSt7__cxx1118basic_stringstreamIcSt11char_traitsIcESaIcEEC1ERKNS_12basic_stringIcS2_S3_EESt13_Ios_Openmode.lto_priv.0(%rip)
	movq	%rax, (%rdx)
	jmp	.L840
	.p2align 4,,10
	.p2align 3
.L896:
	movq	.refptr.__gcov_time_profiler_counter(%rip), %rdx
	movq	%rax, %rdi
	movq	(%rdx), %rax
	addq	$1, %rax
	movq	%rax, (%rdi)
	movq	%rax, (%rdx)
	jmp	.L841
	.p2align 4,,10
	.p2align 3
.L899:
	movq	.refptr.__gcov_time_profiler_counter(%rip), %rdx
	movq	(%rdx), %rax
	addq	$1, %rax
	movq	%rax, __gcov7._ZNKSt9basic_iosIcSt11char_traitsIcEE4fillEv.lto_priv.0(%rip)
	movq	%rax, (%rdx)
	jmp	.L845
	.p2align 4,,10
	.p2align 3
.L884:
	movq	.refptr.__gcov_time_profiler_counter(%rip), %rcx
	movq	(%rcx), %rdi
	leaq	1(%rdi), %rdx
	movq	%rdx, __gcov7._ZN8Polyfish11engine_infoB5cxx11Eb.lto_priv.0(%rip)
	movq	%rdx, (%rcx)
	jmp	.L833
	.p2align 4,,10
	.p2align 3
.L891:
	movq	.refptr.__gcov_time_profiler_counter(%rip), %r8
	movq	(%r8), %rax
	leaq	1(%rax), %rcx
	movq	%rcx, (%rdx)
	movq	%rcx, (%r8)
	jmp	.L836
	.p2align 4,,10
	.p2align 3
.L892:
	movq	.refptr.__gcov_time_profiler_counter(%rip), %rcx
	movq	(%rcx), %rax
	leaq	1(%rax), %rdx
	movq	.refptr.__gcov7._ZNSdC2Ev.lto_priv.0(%rip), %rax
	movq	%rdx, (%rcx)
	movq	%rdx, (%rax)
	jmp	.L837
	.p2align 4,,10
	.p2align 3
.L893:
	movq	.refptr._ZNSt7__cxx1112basic_stringIcSt11char_traitsIcESaIcEEC1IS3_EEPKcRKS3_(%rip), %rdx
	movl	$337037418, %ecx
	call	__gcov_indirect_call_profiler_v4
	movq	.refptr.__gcov7._ZNSt7__cxx1112basic_stringIcSt11char_traitsIcESaIcEEC1IS3_EEPKcRKS3_.lto_priv.0(%rip), %rax
	cmpq	$0, (%rax)
	jne	.L839
	.p2align 4,,10
	.p2align 3
.L894:
	movq	.refptr.__gcov_time_profiler_counter(%rip), %rdx
	movq	%rax, %rcx
	movq	(%rdx), %rax
	addq	$1, %rax
	movq	%rax, (%rcx)
	movq	%rax, (%rdx)
	jmp	.L839
	.p2align 4,,10
	.p2align 3
.L910:
	movq	.refptr.__gcov_time_profiler_counter(%rip), %rdx
	movq	(%rdx), %rax
	addq	$1, %rax
	movq	%rax, (%r14)
	movq	%rax, (%rdx)
	jmp	.L868
	.p2align 4,,10
	.p2align 3
.L906:
	movq	.refptr.__gcov_time_profiler_counter(%rip), %rdx
	movq	(%rdx), %rax
	addq	$1, %rax
	movq	%rax, (%rsi)
	movq	%rax, (%rdx)
	jmp	.L883
	.p2align 4,,10
	.p2align 3
.L907:
	movq	.refptr.__gcov_time_profiler_counter(%rip), %rcx
	movq	(%rcx), %rsi
	leaq	1(%rsi), %rdx
	movq	%rdx, (%rax)
	movq	%rdx, (%rcx)
	jmp	.L860
	.p2align 4,,10
	.p2align 3
.L912:
	movq	.refptr.__gcov_time_profiler_counter(%rip), %rdx
	movq	(%rdx), %rax
	addq	$1, %rax
	movq	%rax, (%r15)
	movq	%rax, (%rdx)
	jmp	.L872
	.p2align 4,,10
	.p2align 3
.L913:
	movq	.refptr.__gcov_time_profiler_counter(%rip), %rdx
	movq	(%rdx), %rax
	addq	$1, %rax
	movq	%rax, (%r14)
	movq	%rax, (%rdx)
	jmp	.L874
	.p2align 4,,10
	.p2align 3
.L909:
	movq	.refptr.__gcov_time_profiler_counter(%rip), %rdx
	movq	(%rdx), %rax
	addq	$1, %rax
	movq	%rax, (%r15)
	movq	%rax, (%rdx)
	jmp	.L866
	.p2align 4,,10
	.p2align 3
.L908:
	movq	.refptr.__gcov_time_profiler_counter(%rip), %r8
	movq	(%r8), %rcx
	addq	$1, %rcx
	movq	%rcx, (%rdx)
	movq	%rcx, (%r8)
	jmp	.L863
	.p2align 4,,10
	.p2align 3
.L861:
	addq	$1, 8(%rsi)
	leaq	848(%rsp), %rdx
	movq	%r13, %rcx
	call	_ZNSt7__cxx1112basic_stringIcSt11char_traitsIcESaIcEE9_M_assignERKS4_
	addq	$1, 32(%rsi)
	jmp	.L864
	.p2align 4,,10
	.p2align 3
.L901:
	movq	.refptr._ZNKSt5ctypeIcE5widenEc(%rip), %rdx
	movl	$1827960770, %ecx
	movq	%r8, 184(%rsp)
	call	__gcov_indirect_call_profiler_v4
	movq	184(%rsp), %r8
	jmp	.L848
	.p2align 4,,10
	.p2align 3
.L902:
	movq	.refptr.__gcov_time_profiler_counter(%rip), %rcx
	movq	(%rcx), %rdx
	addq	$1, %rdx
	movq	%rdx, (%rax)
	movq	%rdx, (%rcx)
	jmp	.L849
	.p2align 4,,10
	.p2align 3
.L918:
	movq	.refptr.__gcov_time_profiler_counter(%rip), %rcx
	movq	(%rcx), %rsi
	leaq	1(%rsi), %rdx
	movq	%rdx, __gcov7._ZNSt7__cxx1112basic_stringIcSt11char_traitsIcESaIcEEC2ERKS4_yy.lto_priv.0(%rip)
	movq	%rdx, (%rcx)
	jmp	.L855
	.p2align 4,,10
	.p2align 3
.L916:
	movq	.refptr.__gcov_time_profiler_counter(%rip), %rdx
	movq	(%rdx), %rax
	addq	$1, %rax
	movq	%rax, __gcov7._ZNKSt7__cxx1112basic_stringIcSt11char_traitsIcESaIcEE6substrEyy.lto_priv.0(%rip)
	movq	%rax, (%rdx)
	jmp	.L853
.L900:
	addq	$1, 8+__gcov0._ZNKSt9basic_iosIcSt11char_traitsIcEE4fillEv.lto_priv.0(%rip)
	call	_ZSt16__throw_bad_castv
.L917:
	movq	%rax, %r9
	movl	$2, %r8d
	leaq	.LC11(%rip), %rdx
	addq	$1, __gcov0._ZNKSt7__cxx1112basic_stringIcSt11char_traitsIcESaIcEE6substrEyy.lto_priv.0(%rip)
	leaq	.LC12(%rip), %rcx
	call	_ZSt24__throw_out_of_range_fmtPKcz
	nop
	.seh_endproc
	.def	__main;	.scl	2;	.type	32;	.endef
	.section .rdata,"dr"
.LC14:
	.ascii "Threads\0"
	.section	.text.startup,"x"
	.p2align 4
	.globl	main
	.def	main;	.scl	2;	.type	32;	.endef
	.seh_proc	main
main:
	pushq	%r14
	.seh_pushreg	%r14
	pushq	%r13
	.seh_pushreg	%r13
	pushq	%r12
	.seh_pushreg	%r12
	pushq	%rbx
	.seh_pushreg	%rbx
	subq	$72, %rsp
	.seh_stackalloc	72
	.seh_endprologue
	movl	%ecx, %r12d
	movq	%rdx, %r13
	call	__main
	movq	.refptr.__gcov_indirect_call(%rip), %rax
	cmpq	$0, (%rax)
	je	.L921
	leaq	main(%rip), %rdx
	movl	$108032747, %ecx
	call	__gcov_indirect_call_profiler_v4
.L921:
	addq	$1, __gcov0.main(%rip)
	cmpq	$0, __gcov7.main(%rip)
	jne	.L922
	movq	.refptr.__gcov_time_profiler_counter(%rip), %rdx
	movq	(%rdx), %rax
	addq	$1, %rax
	movq	%rax, __gcov7.main(%rip)
	movq	%rax, (%rdx)
.L922:
	leaq	32(%rsp), %r14
	xorl	%edx, %edx
	leaq	48(%rsp), %rbx
	movq	%r14, %rcx
	call	_ZN8Polyfish11engine_infoB5cxx11Eb
	movq	40(%rsp), %r8
	movq	32(%rsp), %rdx
	movq	.refptr._ZSt4cout(%rip), %rcx
	addq	$1, 8+__gcov0.main(%rip)
	call	_ZSt16__ostream_insertIcSt11char_traitsIcEERSt13basic_ostreamIT_T0_ES6_PKS3_x
	addq	$1, 16+__gcov0.main(%rip)
	movq	%rax, %rcx
	call	_ZSt4endlIcSt11char_traitsIcEERSt13basic_ostreamIT_T0_ES6_
	movq	32(%rsp), %rcx
	cmpq	%rbx, %rcx
	je	.L929
	movq	48(%rsp), %rax
	addq	$1, 24+__gcov0.main(%rip)
	leaq	1(%rax), %rdx
	call	_ZdlPvy
	addq	$1, 40+__gcov0.main(%rip)
.L924:
	movq	%r13, %rdx
	movl	%r12d, %ecx
	call	_ZN8Polyfish11CommandLine4initEiPPc
	movq	.refptr._ZN8Polyfish7OptionsB5cxx11E(%rip), %rcx
	addq	$1, 48+__gcov0.main(%rip)
	call	_ZN8Polyfish3UCI4initERSt3mapINSt7__cxx1112basic_stringIcSt11char_traitsIcESaIcEEENS0_6OptionENS0_19CaseInsensitiveLessESaISt4pairIKS7_S8_EEE
	addq	$1, 56+__gcov0.main(%rip)
	call	_ZN8Polyfish4Tune4initEv
	addq	$1, 64+__gcov0.main(%rip)
	call	_ZN8Polyfish4PSQT4initEv
	addq	$1, 72+__gcov0.main(%rip)
	call	_ZN8Polyfish9Bitboards4initEv
	addq	$1, 80+__gcov0.main(%rip)
	call	_ZN8Polyfish8Position4initEv
	addq	$1, 88+__gcov0.main(%rip)
	call	_ZN8Polyfish8Bitbases4initEv
	addq	$1, 96+__gcov0.main(%rip)
	call	_ZN8Polyfish8Endgames4initEv
	leaq	.LC14(%rip), %rdx
	movq	%r14, %rcx
	addq	$1, 104+__gcov0.main(%rip)
	call	_ZNSt7__cxx1112basic_stringIcSt11char_traitsIcESaIcEEC1IS3_EEPKcRKS3_.constprop.0
	movq	%r14, %rcx
	addq	$1, 112+__gcov0.main(%rip)
	call	_ZNSt3mapINSt7__cxx1112basic_stringIcSt11char_traitsIcESaIcEEEN8Polyfish3UCI6OptionENS7_19CaseInsensitiveLessESaISt4pairIKS5_S8_EEEixEOS5_.constprop.0
	addq	$1, 120+__gcov0.main(%rip)
	movq	%rax, %rcx
	call	_ZNK8Polyfish3UCI6OptioncvdEv
	vmovsd	.LC15(%rip), %xmm1
	addq	$1, 128+__gcov0.main(%rip)
	vcomisd	%xmm1, %xmm0
	jnb	.L925
	vcvttsd2siq	%xmm0, %rdx
.L926:
	leaq	_ZN8Polyfish7ThreadsE(%rip), %r14
	movq	%r14, %rcx
	call	_ZN8Polyfish10ThreadPool3setEy
	movq	32(%rsp), %rcx
	cmpq	%rbx, %rcx
	je	.L930
	movq	48(%rsp), %rax
	addq	$1, 136+__gcov0.main(%rip)
	leaq	1(%rax), %rdx
	call	_ZdlPvy
	addq	$1, 152+__gcov0.main(%rip)
.L928:
	call	_ZN8Polyfish6Search5clearEv
	addq	$1, 160+__gcov0.main(%rip)
	call	_ZN8Polyfish4Eval4NNUE4initEv
	movq	%r13, %rdx
	movl	%r12d, %ecx
	addq	$1, 168+__gcov0.main(%rip)
	call	_ZN8Polyfish3UCI4loopEiPPc
	xorl	%edx, %edx
	movq	%r14, %rcx
	addq	$1, 176+__gcov0.main(%rip)
	call	_ZN8Polyfish10ThreadPool3setEy
	addq	$1, 184+__gcov0.main(%rip)
	xorl	%eax, %eax
	addq	$72, %rsp
	popq	%rbx
	popq	%r12
	popq	%r13
	popq	%r14
	ret
.L925:
	vsubsd	%xmm1, %xmm0, %xmm0
	vcvttsd2siq	%xmm0, %rdx
	btcq	$63, %rdx
	jmp	.L926
.L929:
	addq	$1, 32+__gcov0.main(%rip)
	jmp	.L924
.L930:
	addq	$1, 144+__gcov0.main(%rip)
	jmp	.L928
	.seh_endproc
	.section .rdata,"dr"
.LC16:
	.ascii "\12Compiled by \0"
.LC17:
	.ascii "basic_string::append\0"
.LC18:
	.ascii "g++ (GNUC) \0"
.LC19:
	.ascii "11.3.0\0"
.LC20:
	.ascii " on MinGW64\0"
	.align 8
.LC21:
	.ascii "\12Compilation settings include: \0"
.LC22:
	.ascii " 64bit\0"
.LC23:
	.ascii "\0"
.LC24:
	.ascii " AVX2\0"
.LC25:
	.ascii " SSE41\0"
.LC26:
	.ascii " SSSE3\0"
.LC27:
	.ascii " SSE2\0"
.LC28:
	.ascii " POPCNT\0"
	.align 8
.LC29:
	.ascii "\12__VERSION__ macro expands to: \0"
.LC30:
	.ascii "\12\0"
	.text
	.p2align 4
	.globl	_ZN8Polyfish13compiler_infoB5cxx11Ev
	.def	_ZN8Polyfish13compiler_infoB5cxx11Ev;	.scl	2;	.type	32;	.endef
	.seh_proc	_ZN8Polyfish13compiler_infoB5cxx11Ev
_ZN8Polyfish13compiler_infoB5cxx11Ev:
	pushq	%r13
	.seh_pushreg	%r13
	pushq	%r12
	.seh_pushreg	%r12
	pushq	%rsi
	.seh_pushreg	%rsi
	pushq	%rbx
	.seh_pushreg	%rbx
	subq	$40, %rsp
	.seh_stackalloc	40
	.seh_endprologue
	movq	.refptr.__gcov_indirect_call(%rip), %rbx
	movq	(%rbx), %rax
	movq	%rcx, %r12
	testq	%rax, %rax
	jne	.L970
	addq	$1, __gcov0._ZN8Polyfish13compiler_infoB5cxx11Ev.lto_priv.0(%rip)
	cmpq	$0, __gcov7._ZN8Polyfish13compiler_infoB5cxx11Ev.lto_priv.0(%rip)
	je	.L963
.L934:
	movq	.refptr.__gcov7._ZNSt7__cxx1112basic_stringIcSt11char_traitsIcESaIcEEC1IS3_EEPKcRKS3_.lto_priv.0(%rip), %rax
	cmpq	$0, (%rax)
	je	.L971
.L935:
	movq	.refptr.__gcov0._ZNSt7__cxx1112basic_stringIcSt11char_traitsIcESaIcEEC1IS3_EEPKcRKS3_.lto_priv.0(%rip), %rbx
	leaq	16(%r12), %rax
	xorl	%r9d, %r9d
	movq	%r12, %rcx
	movq	%rax, (%r12)
	leaq	13+.LC16(%rip), %r8
	addq	$1, (%rbx)
	leaq	-13(%r8), %rdx
	call	_ZNSt7__cxx1112basic_stringIcSt11char_traitsIcESaIcEE12_M_constructIPKcEEvT_S8_St20forward_iterator_tag
	movq	.refptr.__gcov7._ZNSt7__cxx1112basic_stringIcSt11char_traitsIcESaIcEE6appendEPKc.lto_priv.0(%rip), %rsi
	addq	$1, 16(%rbx)
	addq	$1, 8+__gcov0._ZN8Polyfish13compiler_infoB5cxx11Ev.lto_priv.0(%rip)
	cmpq	$0, (%rsi)
	je	.L972
.L936:
	movabsq	$4611686018427387903, %rax
	subq	8(%r12), %rax
	cmpq	$10, %rax
	jbe	.L973
	movq	.refptr.__gcov0._ZNSt7__cxx1112basic_stringIcSt11char_traitsIcESaIcEE6appendEPKc.lto_priv.0(%rip), %rbx
	movl	$11, %r8d
	leaq	.LC18(%rip), %rdx
	movq	%r12, %rcx
	addq	$1, 8(%rbx)
	call	_ZNSt7__cxx1112basic_stringIcSt11char_traitsIcESaIcEE9_M_appendEPKcy
	addq	$1, 16(%rbx)
	addq	$1, 16+__gcov0._ZN8Polyfish13compiler_infoB5cxx11Ev.lto_priv.0(%rip)
	cmpq	$0, (%rsi)
	je	.L974
.L938:
	movabsq	$4611686018427387903, %rax
	subq	8(%r12), %rax
	cmpq	$5, %rax
	jbe	.L969
	addq	$1, 8(%rbx)
	leaq	.LC19(%rip), %r13
	movl	$6, %r8d
	movq	%r12, %rcx
	movq	%r13, %rdx
	call	_ZNSt7__cxx1112basic_stringIcSt11char_traitsIcESaIcEE9_M_appendEPKcy
	addq	$1, 16(%rbx)
	addq	$1, 24+__gcov0._ZN8Polyfish13compiler_infoB5cxx11Ev.lto_priv.0(%rip)
	cmpq	$0, (%rsi)
	je	.L975
.L940:
	movabsq	$4611686018427387903, %rax
	subq	8(%r12), %rax
	cmpq	$10, %rax
	jbe	.L969
	addq	$1, 8(%rbx)
	movl	$11, %r8d
	leaq	.LC20(%rip), %rdx
	movq	%r12, %rcx
	call	_ZNSt7__cxx1112basic_stringIcSt11char_traitsIcESaIcEE9_M_appendEPKcy
	addq	$1, 16(%rbx)
	addq	$1, 32+__gcov0._ZN8Polyfish13compiler_infoB5cxx11Ev.lto_priv.0(%rip)
	cmpq	$0, (%rsi)
	je	.L976
.L942:
	movabsq	$4611686018427387903, %rax
	subq	8(%r12), %rax
	cmpq	$30, %rax
	jbe	.L969
	addq	$1, 8(%rbx)
	movl	$31, %r8d
	leaq	.LC21(%rip), %rdx
	movq	%r12, %rcx
	call	_ZNSt7__cxx1112basic_stringIcSt11char_traitsIcESaIcEE9_M_appendEPKcy
	addq	$1, 16(%rbx)
	addq	$1, 40+__gcov0._ZN8Polyfish13compiler_infoB5cxx11Ev.lto_priv.0(%rip)
	cmpq	$0, (%rsi)
	je	.L977
.L944:
	movabsq	$4611686018427387903, %rax
	subq	8(%r12), %rax
	cmpq	$5, %rax
	jbe	.L969
	addq	$1, 8(%rbx)
	movl	$6, %r8d
	leaq	.LC22(%rip), %rdx
	movq	%r12, %rcx
	call	_ZNSt7__cxx1112basic_stringIcSt11char_traitsIcESaIcEE9_M_appendEPKcy
	addq	$1, 16(%rbx)
	addq	$1, 48+__gcov0._ZN8Polyfish13compiler_infoB5cxx11Ev.lto_priv.0(%rip)
	cmpq	$0, (%rsi)
	je	.L978
.L946:
	addq	$1, 8(%rbx)
	xorl	%r8d, %r8d
	leaq	.LC23(%rip), %rdx
	movq	%r12, %rcx
	call	_ZNSt7__cxx1112basic_stringIcSt11char_traitsIcESaIcEE9_M_appendEPKcy
	addq	$1, 16(%rbx)
	addq	$1, 56+__gcov0._ZN8Polyfish13compiler_infoB5cxx11Ev.lto_priv.0(%rip)
	cmpq	$0, (%rsi)
	je	.L979
.L947:
	movabsq	$4611686018427387903, %rax
	subq	8(%r12), %rax
	cmpq	$4, %rax
	jbe	.L969
	addq	$1, 8(%rbx)
	movl	$5, %r8d
	leaq	.LC24(%rip), %rdx
	movq	%r12, %rcx
	call	_ZNSt7__cxx1112basic_stringIcSt11char_traitsIcESaIcEE9_M_appendEPKcy
	addq	$1, 16(%rbx)
	addq	$1, 64+__gcov0._ZN8Polyfish13compiler_infoB5cxx11Ev.lto_priv.0(%rip)
	cmpq	$0, (%rsi)
	je	.L980
.L949:
	movabsq	$4611686018427387903, %rax
	subq	8(%r12), %rax
	cmpq	$5, %rax
	jbe	.L969
	addq	$1, 8(%rbx)
	movl	$6, %r8d
	leaq	.LC25(%rip), %rdx
	movq	%r12, %rcx
	call	_ZNSt7__cxx1112basic_stringIcSt11char_traitsIcESaIcEE9_M_appendEPKcy
	addq	$1, 16(%rbx)
	addq	$1, 72+__gcov0._ZN8Polyfish13compiler_infoB5cxx11Ev.lto_priv.0(%rip)
	cmpq	$0, (%rsi)
	je	.L981
.L951:
	movabsq	$4611686018427387903, %rax
	subq	8(%r12), %rax
	cmpq	$5, %rax
	jbe	.L969
	addq	$1, 8(%rbx)
	movl	$6, %r8d
	leaq	.LC26(%rip), %rdx
	movq	%r12, %rcx
	call	_ZNSt7__cxx1112basic_stringIcSt11char_traitsIcESaIcEE9_M_appendEPKcy
	addq	$1, 16(%rbx)
	addq	$1, 80+__gcov0._ZN8Polyfish13compiler_infoB5cxx11Ev.lto_priv.0(%rip)
	cmpq	$0, (%rsi)
	je	.L982
.L953:
	movabsq	$4611686018427387903, %rax
	subq	8(%r12), %rax
	cmpq	$4, %rax
	jbe	.L969
	addq	$1, 8(%rbx)
	movl	$5, %r8d
	leaq	.LC27(%rip), %rdx
	movq	%r12, %rcx
	call	_ZNSt7__cxx1112basic_stringIcSt11char_traitsIcESaIcEE9_M_appendEPKcy
	addq	$1, 16(%rbx)
	addq	$1, 88+__gcov0._ZN8Polyfish13compiler_infoB5cxx11Ev.lto_priv.0(%rip)
	cmpq	$0, (%rsi)
	je	.L983
.L955:
	movabsq	$4611686018427387903, %rax
	subq	8(%r12), %rax
	cmpq	$6, %rax
	jbe	.L969
	addq	$1, 8(%rbx)
	movl	$7, %r8d
	leaq	.LC28(%rip), %rdx
	movq	%r12, %rcx
	call	_ZNSt7__cxx1112basic_stringIcSt11char_traitsIcESaIcEE9_M_appendEPKcy
	addq	$1, 16(%rbx)
	addq	$1, 96+__gcov0._ZN8Polyfish13compiler_infoB5cxx11Ev.lto_priv.0(%rip)
	cmpq	$0, (%rsi)
	je	.L984
.L957:
	movabsq	$4611686018427387903, %rax
	subq	8(%r12), %rax
	cmpq	$30, %rax
	jbe	.L969
	addq	$1, 8(%rbx)
	movl	$31, %r8d
	leaq	.LC29(%rip), %rdx
	movq	%r12, %rcx
	call	_ZNSt7__cxx1112basic_stringIcSt11char_traitsIcESaIcEE9_M_appendEPKcy
	addq	$1, 16(%rbx)
	addq	$1, 104+__gcov0._ZN8Polyfish13compiler_infoB5cxx11Ev.lto_priv.0(%rip)
	cmpq	$0, (%rsi)
	je	.L985
.L959:
	movabsq	$4611686018427387903, %rax
	subq	8(%r12), %rax
	cmpq	$5, %rax
	jbe	.L969
	addq	$1, 8(%rbx)
	movl	$6, %r8d
	movq	%r13, %rdx
	movq	%r12, %rcx
	call	_ZNSt7__cxx1112basic_stringIcSt11char_traitsIcESaIcEE9_M_appendEPKcy
	addq	$1, 16(%rbx)
	addq	$1, 112+__gcov0._ZN8Polyfish13compiler_infoB5cxx11Ev.lto_priv.0(%rip)
	cmpq	$0, (%rsi)
	je	.L986
.L961:
	movabsq	$4611686018427387903, %rax
	cmpq	%rax, 8(%r12)
	je	.L969
	addq	$1, 8(%rbx)
	movl	$1, %r8d
	leaq	.LC30(%rip), %rdx
	movq	%r12, %rcx
	call	_ZNSt7__cxx1112basic_stringIcSt11char_traitsIcESaIcEE9_M_appendEPKcy
	addq	$1, 16(%rbx)
	movq	%r12, %rax
	addq	$1, 120+__gcov0._ZN8Polyfish13compiler_infoB5cxx11Ev.lto_priv.0(%rip)
	addq	$40, %rsp
	popq	%rbx
	popq	%rsi
	popq	%r12
	popq	%r13
	ret
	.p2align 4,,10
	.p2align 3
.L970:
	leaq	_ZN8Polyfish13compiler_infoB5cxx11Ev(%rip), %rdx
	movl	$987981426, %ecx
	call	__gcov_indirect_call_profiler_v4
	addq	$1, __gcov0._ZN8Polyfish13compiler_infoB5cxx11Ev.lto_priv.0(%rip)
	movq	(%rbx), %rax
	cmpq	$0, __gcov7._ZN8Polyfish13compiler_infoB5cxx11Ev.lto_priv.0(%rip)
	je	.L963
.L933:
	testq	%rax, %rax
	je	.L934
	movq	.refptr._ZNSt7__cxx1112basic_stringIcSt11char_traitsIcESaIcEEC1IS3_EEPKcRKS3_(%rip), %rdx
	movl	$337037418, %ecx
	call	__gcov_indirect_call_profiler_v4
	movq	.refptr.__gcov7._ZNSt7__cxx1112basic_stringIcSt11char_traitsIcESaIcEEC1IS3_EEPKcRKS3_.lto_priv.0(%rip), %rax
	cmpq	$0, (%rax)
	jne	.L935
	.p2align 4,,10
	.p2align 3
.L971:
	movq	.refptr.__gcov_time_profiler_counter(%rip), %rcx
	movq	(%rcx), %rsi
	leaq	1(%rsi), %rdx
	movq	%rdx, (%rax)
	movq	%rdx, (%rcx)
	jmp	.L935
	.p2align 4,,10
	.p2align 3
.L963:
	movq	.refptr.__gcov_time_profiler_counter(%rip), %rcx
	movq	(%rcx), %rsi
	leaq	1(%rsi), %rdx
	movq	%rdx, __gcov7._ZN8Polyfish13compiler_infoB5cxx11Ev.lto_priv.0(%rip)
	movq	%rdx, (%rcx)
	jmp	.L933
	.p2align 4,,10
	.p2align 3
.L972:
	movq	.refptr.__gcov_time_profiler_counter(%rip), %rdx
	movq	(%rdx), %rax
	addq	$1, %rax
	movq	%rax, (%rsi)
	movq	%rax, (%rdx)
	jmp	.L936
	.p2align 4,,10
	.p2align 3
.L974:
	movq	.refptr.__gcov_time_profiler_counter(%rip), %rdx
	movq	(%rdx), %rax
	addq	$1, %rax
	movq	%rax, (%rsi)
	movq	%rax, (%rdx)
	jmp	.L938
	.p2align 4,,10
	.p2align 3
.L975:
	movq	.refptr.__gcov_time_profiler_counter(%rip), %rdx
	movq	(%rdx), %rax
	addq	$1, %rax
	movq	%rax, (%rsi)
	movq	%rax, (%rdx)
	jmp	.L940
	.p2align 4,,10
	.p2align 3
.L976:
	movq	.refptr.__gcov_time_profiler_counter(%rip), %rdx
	movq	(%rdx), %rax
	addq	$1, %rax
	movq	%rax, (%rsi)
	movq	%rax, (%rdx)
	jmp	.L942
	.p2align 4,,10
	.p2align 3
.L977:
	movq	.refptr.__gcov_time_profiler_counter(%rip), %rdx
	movq	(%rdx), %rax
	addq	$1, %rax
	movq	%rax, (%rsi)
	movq	%rax, (%rdx)
	jmp	.L944
	.p2align 4,,10
	.p2align 3
.L978:
	movq	.refptr.__gcov_time_profiler_counter(%rip), %rdx
	movq	(%rdx), %rax
	addq	$1, %rax
	movq	%rax, (%rsi)
	movq	%rax, (%rdx)
	jmp	.L946
	.p2align 4,,10
	.p2align 3
.L979:
	movq	.refptr.__gcov_time_profiler_counter(%rip), %rdx
	movq	(%rdx), %rax
	addq	$1, %rax
	movq	%rax, (%rsi)
	movq	%rax, (%rdx)
	jmp	.L947
	.p2align 4,,10
	.p2align 3
.L980:
	movq	.refptr.__gcov_time_profiler_counter(%rip), %rdx
	movq	(%rdx), %rax
	addq	$1, %rax
	movq	%rax, (%rsi)
	movq	%rax, (%rdx)
	jmp	.L949
	.p2align 4,,10
	.p2align 3
.L981:
	movq	.refptr.__gcov_time_profiler_counter(%rip), %rdx
	movq	(%rdx), %rax
	addq	$1, %rax
	movq	%rax, (%rsi)
	movq	%rax, (%rdx)
	jmp	.L951
	.p2align 4,,10
	.p2align 3
.L982:
	movq	.refptr.__gcov_time_profiler_counter(%rip), %rdx
	movq	(%rdx), %rax
	addq	$1, %rax
	movq	%rax, (%rsi)
	movq	%rax, (%rdx)
	jmp	.L953
	.p2align 4,,10
	.p2align 3
.L983:
	movq	.refptr.__gcov_time_profiler_counter(%rip), %rdx
	movq	(%rdx), %rax
	addq	$1, %rax
	movq	%rax, (%rsi)
	movq	%rax, (%rdx)
	jmp	.L955
	.p2align 4,,10
	.p2align 3
.L984:
	movq	.refptr.__gcov_time_profiler_counter(%rip), %rdx
	movq	(%rdx), %rax
	addq	$1, %rax
	movq	%rax, (%rsi)
	movq	%rax, (%rdx)
	jmp	.L957
	.p2align 4,,10
	.p2align 3
.L985:
	movq	.refptr.__gcov_time_profiler_counter(%rip), %rdx
	movq	(%rdx), %rax
	addq	$1, %rax
	movq	%rax, (%rsi)
	movq	%rax, (%rdx)
	jmp	.L959
	.p2align 4,,10
	.p2align 3
.L986:
	movq	.refptr.__gcov_time_profiler_counter(%rip), %rdx
	movq	(%rdx), %rax
	addq	$1, %rax
	movq	%rax, (%rsi)
	movq	%rax, (%rdx)
	jmp	.L961
.L969:
	addq	$1, (%rbx)
	leaq	.LC17(%rip), %rcx
	call	_ZSt20__throw_length_errorPKc
.L973:
	movq	.refptr.__gcov0._ZNSt7__cxx1112basic_stringIcSt11char_traitsIcESaIcEE6appendEPKc.lto_priv.0(%rip), %rax
	leaq	.LC17(%rip), %rcx
	addq	$1, (%rax)
	call	_ZSt20__throw_length_errorPKc
	nop
	.seh_endproc
	.section .rdata,"dr"
.LC31:
	.ascii "Total \0"
.LC32:
	.ascii " Hits \0"
.LC33:
	.ascii " hit rate (%) \0"
.LC34:
	.ascii " Mean \0"
	.text
	.p2align 4
	.globl	_ZN8Polyfish9dbg_printEv
	.def	_ZN8Polyfish9dbg_printEv;	.scl	2;	.type	32;	.endef
	.seh_proc	_ZN8Polyfish9dbg_printEv
_ZN8Polyfish9dbg_printEv:
	pushq	%r13
	.seh_pushreg	%r13
	pushq	%r12
	.seh_pushreg	%r12
	pushq	%rdi
	.seh_pushreg	%rdi
	pushq	%rsi
	.seh_pushreg	%rsi
	pushq	%rbx
	.seh_pushreg	%rbx
	subq	$48, %rsp
	.seh_stackalloc	48
	vmovups	%xmm6, 32(%rsp)
	.seh_savexmm	%xmm6, 32
	.seh_endprologue
	movq	.refptr.__gcov_indirect_call(%rip), %rsi
	cmpq	$0, (%rsi)
	jne	.L1012
.L988:
	addq	$1, __gcov0._ZN8Polyfish9dbg_printEv.lto_priv.0(%rip)
	cmpq	$0, __gcov7._ZN8Polyfish9dbg_printEv.lto_priv.0(%rip)
	je	.L1013
.L989:
	movq	_ZN8PolyfishL4hitsE(%rip), %rax
	testq	%rax, %rax
	jne	.L1014
	movq	_ZN8PolyfishL5meansE(%rip), %rax
	testq	%rax, %rax
	jne	.L1015
.L1010:
	vmovups	32(%rsp), %xmm6
	addq	$48, %rsp
	popq	%rbx
	popq	%rsi
	popq	%rdi
	popq	%r12
	popq	%r13
	ret
	.p2align 4,,10
	.p2align 3
.L1014:
	movq	.refptr._ZSt4cerr(%rip), %r12
	movl	$6, %r8d
	leaq	.LC31(%rip), %rdx
	addq	$1, 8+__gcov0._ZN8Polyfish9dbg_printEv.lto_priv.0(%rip)
	movq	%r12, %rcx
	call	_ZSt16__ostream_insertIcSt11char_traitsIcEERSt13basic_ostreamIT_T0_ES6_PKS3_x
	addq	$1, 16+__gcov0._ZN8Polyfish9dbg_printEv.lto_priv.0(%rip)
	movq	%r12, %rcx
	movq	_ZN8PolyfishL4hitsE(%rip), %rdx
	call	_ZNSo9_M_insertIxEERSoT_
	movl	$6, %r8d
	leaq	.LC32(%rip), %rdx
	addq	$1, 24+__gcov0._ZN8Polyfish9dbg_printEv.lto_priv.0(%rip)
	movq	%rax, %rcx
	movq	%rax, %r12
	call	_ZSt16__ostream_insertIcSt11char_traitsIcEERSt13basic_ostreamIT_T0_ES6_PKS3_x
	addq	$1, 32+__gcov0._ZN8Polyfish9dbg_printEv.lto_priv.0(%rip)
	movq	%r12, %rcx
	movq	8+_ZN8PolyfishL4hitsE(%rip), %rdx
	call	_ZNSo9_M_insertIxEERSoT_
	movl	$14, %r8d
	leaq	.LC33(%rip), %rdx
	addq	$1, 40+__gcov0._ZN8Polyfish9dbg_printEv.lto_priv.0(%rip)
	movq	%rax, %rcx
	movq	%rax, %r12
	call	_ZSt16__ostream_insertIcSt11char_traitsIcEERSt13basic_ostreamIT_T0_ES6_PKS3_x
	addq	$1, 48+__gcov0._ZN8Polyfish9dbg_printEv.lto_priv.0(%rip)
	leaq	__gcov3._ZN8Polyfish9dbg_printEv.lto_priv.0(%rip), %rcx
	movq	8+_ZN8PolyfishL4hitsE(%rip), %rdi
	movq	_ZN8PolyfishL4hitsE(%rip), %rbx
	movq	%rbx, %rdx
	call	__gcov_topn_values_profiler
	leaq	(%rdi,%rdi,4), %rax
	movq	%r12, %rcx
	leaq	(%rax,%rax,4), %rax
	salq	$2, %rax
	cqto
	idivq	%rbx
	movq	%rax, %rdx
	call	_ZNSo9_M_insertIxEERSoT_
	addq	$1, 56+__gcov0._ZN8Polyfish9dbg_printEv.lto_priv.0(%rip)
	movq	%rax, %r12
	movq	.refptr.__gcov7._ZSt4endlIcSt11char_traitsIcEERSt13basic_ostreamIT_T0_ES6_.lto_priv.0(%rip), %rax
	cmpq	$0, (%rax)
	je	.L1016
.L991:
	movq	(%r12), %rax
	movq	-24(%rax), %rax
	movq	240(%r12,%rax), %r13
	testq	%r13, %r13
	je	.L1011
	movq	.refptr.__gcov0._ZSt4endlIcSt11char_traitsIcEERSt13basic_ostreamIT_T0_ES6_.lto_priv.0(%rip), %rbx
	addq	$1, 8(%rbx)
	cmpq	$0, (%rsi)
	jne	.L1017
.L993:
	movq	.refptr.__gcov7._ZNKSt5ctypeIcE5widenEc.lto_priv.0(%rip), %rax
	cmpq	$0, (%rax)
	je	.L1018
.L994:
	cmpb	$0, 56(%r13)
	je	.L995
	movq	.refptr.__gcov0._ZNKSt5ctypeIcE5widenEc.lto_priv.0(%rip), %rax
	movsbl	67(%r13), %edx
	addq	$1, (%rax)
.L996:
	addq	$1, 16(%rbx)
	movq	%r12, %rcx
	call	_ZNSo3putEc
	addq	$1, 24(%rbx)
	movq	%rax, %rcx
	call	_ZNSo5flushEv
	addq	$1, 32(%rbx)
	addq	$1, 64+__gcov0._ZN8Polyfish9dbg_printEv.lto_priv.0(%rip)
	movq	_ZN8PolyfishL5meansE(%rip), %rax
	testq	%rax, %rax
	je	.L1010
.L1015:
	movq	.refptr._ZSt4cerr(%rip), %r12
	movl	$6, %r8d
	vxorps	%xmm6, %xmm6, %xmm6
	leaq	.LC31(%rip), %rdx
	addq	$1, 72+__gcov0._ZN8Polyfish9dbg_printEv.lto_priv.0(%rip)
	movq	%r12, %rcx
	call	_ZSt16__ostream_insertIcSt11char_traitsIcEERSt13basic_ostreamIT_T0_ES6_PKS3_x
	addq	$1, 80+__gcov0._ZN8Polyfish9dbg_printEv.lto_priv.0(%rip)
	movq	%r12, %rcx
	movq	_ZN8PolyfishL5meansE(%rip), %rdx
	call	_ZNSo9_M_insertIxEERSoT_
	movl	$6, %r8d
	leaq	.LC34(%rip), %rdx
	addq	$1, 88+__gcov0._ZN8Polyfish9dbg_printEv.lto_priv.0(%rip)
	movq	%rax, %rcx
	movq	%rax, %r12
	call	_ZSt16__ostream_insertIcSt11char_traitsIcEERSt13basic_ostreamIT_T0_ES6_PKS3_x
	addq	$1, 96+__gcov0._ZN8Polyfish9dbg_printEv.lto_priv.0(%rip)
	movq	%r12, %rcx
	movq	8+_ZN8PolyfishL5meansE(%rip), %rdx
	vcvtsi2sdq	%rdx, %xmm6, %xmm1
	movq	_ZN8PolyfishL5meansE(%rip), %rax
	vcvtsi2sdq	%rax, %xmm6, %xmm6
	vdivsd	%xmm6, %xmm1, %xmm1
	call	_ZNSo9_M_insertIdEERSoT_
	addq	$1, 104+__gcov0._ZN8Polyfish9dbg_printEv.lto_priv.0(%rip)
	movq	%rax, %r12
	movq	.refptr.__gcov7._ZSt4endlIcSt11char_traitsIcEERSt13basic_ostreamIT_T0_ES6_.lto_priv.0(%rip), %rax
	cmpq	$0, (%rax)
	je	.L1019
.L998:
	movq	(%r12), %rax
	movq	-24(%rax), %rax
	movq	240(%r12,%rax), %r13
	testq	%r13, %r13
	je	.L1011
	movq	.refptr.__gcov0._ZSt4endlIcSt11char_traitsIcEERSt13basic_ostreamIT_T0_ES6_.lto_priv.0(%rip), %rbx
	addq	$1, 8(%rbx)
	cmpq	$0, (%rsi)
	jne	.L1020
.L1000:
	movq	.refptr.__gcov7._ZNKSt5ctypeIcE5widenEc.lto_priv.0(%rip), %rax
	cmpq	$0, (%rax)
	je	.L1021
.L1001:
	cmpb	$0, 56(%r13)
	je	.L1002
	movq	.refptr.__gcov0._ZNKSt5ctypeIcE5widenEc.lto_priv.0(%rip), %rax
	movsbl	67(%r13), %edx
	addq	$1, (%rax)
.L1003:
	addq	$1, 16(%rbx)
	movq	%r12, %rcx
	call	_ZNSo3putEc
	addq	$1, 24(%rbx)
	movq	%rax, %rcx
	call	_ZNSo5flushEv
	addq	$1, 32(%rbx)
	addq	$1, 112+__gcov0._ZN8Polyfish9dbg_printEv.lto_priv.0(%rip)
	jmp	.L1010
	.p2align 4,,10
	.p2align 3
.L995:
	movq	.refptr.__gcov0._ZNKSt5ctypeIcE5widenEc.lto_priv.0(%rip), %rdi
	movq	%r13, %rcx
	addq	$1, 8(%rdi)
	call	_ZNKSt5ctypeIcE13_M_widen_initEv
	movq	0(%r13), %rax
	addq	$1, 16(%rdi)
	movq	%r13, %rcx
	movq	.refptr.__gcov4._ZNKSt5ctypeIcE5widenEc.lto_priv.0(%rip), %rdx
	movq	48(%rax), %rax
	movq	%rdx, 8(%rsi)
	movl	$10, %edx
	movq	%rax, (%rsi)
	call	*%rax
	addq	$1, 24(%rdi)
	movsbl	%al, %edx
	jmp	.L996
	.p2align 4,,10
	.p2align 3
.L1002:
	movq	.refptr.__gcov0._ZNKSt5ctypeIcE5widenEc.lto_priv.0(%rip), %rdi
	movq	%r13, %rcx
	addq	$1, 8(%rdi)
	call	_ZNKSt5ctypeIcE13_M_widen_initEv
	movq	0(%r13), %rax
	addq	$1, 16(%rdi)
	movq	%r13, %rcx
	movq	.refptr.__gcov4._ZNKSt5ctypeIcE5widenEc.lto_priv.0(%rip), %rdx
	movq	48(%rax), %rax
	movq	%rdx, 8(%rsi)
	movl	$10, %edx
	movq	%rax, (%rsi)
	call	*%rax
	addq	$1, 24(%rdi)
	movsbl	%al, %edx
	jmp	.L1003
	.p2align 4,,10
	.p2align 3
.L1013:
	movq	.refptr.__gcov_time_profiler_counter(%rip), %rdx
	movq	(%rdx), %rax
	addq	$1, %rax
	movq	%rax, __gcov7._ZN8Polyfish9dbg_printEv.lto_priv.0(%rip)
	movq	%rax, (%rdx)
	jmp	.L989
	.p2align 4,,10
	.p2align 3
.L1012:
	leaq	_ZN8Polyfish9dbg_printEv(%rip), %rdx
	movl	$928281200, %ecx
	call	__gcov_indirect_call_profiler_v4
	jmp	.L988
	.p2align 4,,10
	.p2align 3
.L1016:
	movq	.refptr.__gcov_time_profiler_counter(%rip), %rcx
	movq	(%rcx), %rdi
	leaq	1(%rdi), %rdx
	movq	%rdx, (%rax)
	movq	%rdx, (%rcx)
	jmp	.L991
	.p2align 4,,10
	.p2align 3
.L1017:
	movq	.refptr._ZNKSt5ctypeIcE5widenEc(%rip), %rdx
	movl	$1827960770, %ecx
	call	__gcov_indirect_call_profiler_v4
	jmp	.L993
	.p2align 4,,10
	.p2align 3
.L1018:
	movq	.refptr.__gcov_time_profiler_counter(%rip), %rcx
	movq	(%rcx), %rdi
	leaq	1(%rdi), %rdx
	movq	%rdx, (%rax)
	movq	%rdx, (%rcx)
	jmp	.L994
	.p2align 4,,10
	.p2align 3
.L1019:
	movq	.refptr.__gcov_time_profiler_counter(%rip), %rcx
	movq	(%rcx), %rdi
	leaq	1(%rdi), %rdx
	movq	%rdx, (%rax)
	movq	%rdx, (%rcx)
	jmp	.L998
	.p2align 4,,10
	.p2align 3
.L1021:
	movq	.refptr.__gcov_time_profiler_counter(%rip), %rcx
	movq	(%rcx), %rdi
	leaq	1(%rdi), %rdx
	movq	%rdx, (%rax)
	movq	%rdx, (%rcx)
	jmp	.L1001
	.p2align 4,,10
	.p2align 3
.L1020:
	movq	.refptr._ZNKSt5ctypeIcE5widenEc(%rip), %rdx
	movl	$1827960770, %ecx
	call	__gcov_indirect_call_profiler_v4
	jmp	.L1000
.L1011:
	movq	.refptr.__gcov0._ZSt4endlIcSt11char_traitsIcEERSt13basic_ostreamIT_T0_ES6_.lto_priv.0(%rip), %rax
	addq	$1, (%rax)
	call	_ZSt16__throw_bad_castv
	nop
	.seh_endproc
	.p2align 4
	.globl	__tcf_2.lto_priv.2
	.def	__tcf_2.lto_priv.2;	.scl	2;	.type	32;	.endef
	.seh_proc	__tcf_2.lto_priv.2
__tcf_2.lto_priv.2:
	subq	$40, %rsp
	.seh_stackalloc	40
	.seh_endprologue
	movq	.refptr.__gcov_indirect_call(%rip), %rax
	cmpq	$0, (%rax)
	je	.L1023
	leaq	__tcf_2.lto_priv.2(%rip), %rdx
	movl	$2008517052, %ecx
	call	__gcov_indirect_call_profiler_v4
.L1023:
	addq	$1, __gcov0.__tcf_2.lto_priv.2(%rip)
	cmpq	$0, __gcov7.__tcf_2.lto_priv.2(%rip)
	jne	.L1024
	movq	.refptr.__gcov_time_profiler_counter(%rip), %rdx
	movq	(%rdx), %rax
	addq	$1, %rax
	movq	%rax, __gcov7.__tcf_2.lto_priv.2(%rip)
	movq	%rax, (%rdx)
.L1024:
	leaq	_ZZN8PolyfishlsERSoNS_8SyncCoutEE1m.lto_priv.0(%rip), %rcx
	call	pthread_mutex_destroy
	addq	$1, 8+__gcov0.__tcf_2.lto_priv.2(%rip)
	addq	$40, %rsp
	ret
	.seh_endproc
	.p2align 4
	.globl	_ZN8PolyfishlsERSoNS_8SyncCoutE
	.def	_ZN8PolyfishlsERSoNS_8SyncCoutE;	.scl	2;	.type	32;	.endef
	.seh_proc	_ZN8PolyfishlsERSoNS_8SyncCoutE
_ZN8PolyfishlsERSoNS_8SyncCoutE:
	pushq	%r13
	.seh_pushreg	%r13
	pushq	%r12
	.seh_pushreg	%r12
	pushq	%rsi
	.seh_pushreg	%rsi
	pushq	%rbx
	.seh_pushreg	%rbx
	subq	$40, %rsp
	.seh_stackalloc	40
	.seh_endprologue
	movq	.refptr.__gcov_indirect_call(%rip), %rsi
	cmpq	$0, (%rsi)
	movq	%rcx, %r12
	movl	%edx, %ebx
	jne	.L1039
.L1026:
	addq	$1, __gcov0._ZN8PolyfishlsERSoNS_8SyncCoutE.lto_priv.0(%rip)
	cmpq	$0, __gcov7._ZN8PolyfishlsERSoNS_8SyncCoutE.lto_priv.0(%rip)
	je	.L1040
.L1027:
	movzbl	_ZGVZN8PolyfishlsERSoNS_8SyncCoutEE1m.lto_priv.0(%rip), %eax
	testb	%al, %al
	je	.L1041
.L1029:
	testl	%ebx, %ebx
	je	.L1042
	cmpl	$1, %ebx
	je	.L1043
	movq	%r12, %rax
	addq	$40, %rsp
	popq	%rbx
	popq	%rsi
	popq	%r12
	popq	%r13
	ret
	.p2align 4,,10
	.p2align 3
.L1043:
	leaq	_ZZN8PolyfishlsERSoNS_8SyncCoutEE1m.lto_priv.0(%rip), %rcx
	addq	$1, 72+__gcov0._ZN8PolyfishlsERSoNS_8SyncCoutE.lto_priv.0(%rip)
	call	pthread_mutex_unlock
	addq	$1, 80+__gcov0._ZN8PolyfishlsERSoNS_8SyncCoutE.lto_priv.0(%rip)
	movq	%r12, %rax
	addq	$40, %rsp
	popq	%rbx
	popq	%rsi
	popq	%r12
	popq	%r13
	ret
	.p2align 4,,10
	.p2align 3
.L1042:
	addq	$1, 56+__gcov0._ZN8PolyfishlsERSoNS_8SyncCoutE.lto_priv.0(%rip)
	cmpq	$0, (%rsi)
	jne	.L1044
.L1032:
	addq	$1, __gcov0._ZNSt5mutex4lockEv.lto_priv.0(%rip)
	cmpq	$0, __gcov7._ZNSt5mutex4lockEv.lto_priv.0(%rip)
	je	.L1045
.L1033:
	leaq	_ZZN8PolyfishlsERSoNS_8SyncCoutEE1m.lto_priv.0(%rip), %rcx
	call	pthread_mutex_lock
	testl	%eax, %eax
	jne	.L1046
	addq	$1, 16+__gcov0._ZNSt5mutex4lockEv.lto_priv.0(%rip)
	movq	%r12, %rax
	addq	$1, 64+__gcov0._ZN8PolyfishlsERSoNS_8SyncCoutE.lto_priv.0(%rip)
	addq	$40, %rsp
	popq	%rbx
	popq	%rsi
	popq	%r12
	popq	%r13
	ret
	.p2align 4,,10
	.p2align 3
.L1041:
	leaq	_ZGVZN8PolyfishlsERSoNS_8SyncCoutEE1m.lto_priv.0(%rip), %r13
	addq	$1, 8+__gcov0._ZN8PolyfishlsERSoNS_8SyncCoutE.lto_priv.0(%rip)
	movq	%r13, %rcx
	call	__cxa_guard_acquire
	addq	$1, 16+__gcov0._ZN8PolyfishlsERSoNS_8SyncCoutE.lto_priv.0(%rip)
	testl	%eax, %eax
	je	.L1029
	xorl	%edx, %edx
	leaq	_ZZN8PolyfishlsERSoNS_8SyncCoutEE1m.lto_priv.0(%rip), %rcx
	addq	$1, 24+__gcov0._ZN8PolyfishlsERSoNS_8SyncCoutE.lto_priv.0(%rip)
	call	pthread_mutex_init
	leaq	__tcf_2.lto_priv.2(%rip), %rcx
	addq	$1, 32+__gcov0._ZN8PolyfishlsERSoNS_8SyncCoutE.lto_priv.0(%rip)
	call	atexit
	movq	%r13, %rcx
	addq	$1, 40+__gcov0._ZN8PolyfishlsERSoNS_8SyncCoutE.lto_priv.0(%rip)
	call	__cxa_guard_release
	addq	$1, 48+__gcov0._ZN8PolyfishlsERSoNS_8SyncCoutE.lto_priv.0(%rip)
	jmp	.L1029
	.p2align 4,,10
	.p2align 3
.L1039:
	leaq	_ZN8PolyfishlsERSoNS_8SyncCoutE(%rip), %rdx
	movl	$990193921, %ecx
	call	__gcov_indirect_call_profiler_v4
	jmp	.L1026
	.p2align 4,,10
	.p2align 3
.L1040:
	movq	.refptr.__gcov_time_profiler_counter(%rip), %rdx
	movq	(%rdx), %rax
	addq	$1, %rax
	movq	%rax, __gcov7._ZN8PolyfishlsERSoNS_8SyncCoutE.lto_priv.0(%rip)
	movq	%rax, (%rdx)
	jmp	.L1027
	.p2align 4,,10
	.p2align 3
.L1045:
	movq	.refptr.__gcov_time_profiler_counter(%rip), %rdx
	movq	(%rdx), %rax
	addq	$1, %rax
	movq	%rax, __gcov7._ZNSt5mutex4lockEv.lto_priv.0(%rip)
	movq	%rax, (%rdx)
	jmp	.L1033
	.p2align 4,,10
	.p2align 3
.L1044:
	leaq	_ZNSt5mutex4lockEv(%rip), %rdx
	movl	$626186866, %ecx
	call	__gcov_indirect_call_profiler_v4
	jmp	.L1032
.L1046:
	movl	%eax, %ecx
	addq	$1, 8+__gcov0._ZNSt5mutex4lockEv.lto_priv.0(%rip)
	call	_ZSt20__throw_system_errori
	nop
	.seh_endproc
	.align 2
	.p2align 4
	.globl	_ZN8Polyfish12_GLOBAL__N_110EvaluationILNS_5Trace7TracingE0EE6piecesILNS_5ColorE1ELNS_9PieceTypeE3EEENS_5ScoreEv.lto_priv.0
	.def	_ZN8Polyfish12_GLOBAL__N_110EvaluationILNS_5Trace7TracingE0EE6piecesILNS_5ColorE1ELNS_9PieceTypeE3EEENS_5ScoreEv.lto_priv.0;	.scl	2;	.type	32;	.endef
	.seh_proc	_ZN8Polyfish12_GLOBAL__N_110EvaluationILNS_5Trace7TracingE0EE6piecesILNS_5ColorE1ELNS_9PieceTypeE3EEENS_5ScoreEv.lto_priv.0
_ZN8Polyfish12_GLOBAL__N_110EvaluationILNS_5Trace7TracingE0EE6piecesILNS_5ColorE1ELNS_9PieceTypeE3EEENS_5ScoreEv.lto_priv.0:
	pushq	%r15
	.seh_pushreg	%r15
	pushq	%r14
	.seh_pushreg	%r14
	pushq	%r13
	.seh_pushreg	%r13
	pushq	%r12
	.seh_pushreg	%r12
	pushq	%rbp
	.seh_pushreg	%rbp
	pushq	%rdi
	.seh_pushreg	%rdi
	pushq	%rsi
	.seh_pushreg	%rsi
	pushq	%rbx
	.seh_pushreg	%rbx
	subq	$264, %rsp
	.seh_stackalloc	264
	.seh_endprologue
	addq	$1, __gcov0._ZN8Polyfish12_GLOBAL__N_110EvaluationILNS_5Trace7TracingE0EE6piecesILNS_5ColorE1ELNS_9PieceTypeE3EEENS_5ScoreEv(%rip)
	cmpq	$0, __gcov7._ZN8Polyfish12_GLOBAL__N_110EvaluationILNS_5Trace7TracingE0EE6piecesILNS_5ColorE1ELNS_9PieceTypeE3EEENS_5ScoreEv(%rip)
	movq	%rcx, %r9
	jne	.L1048
	movq	.refptr.__gcov_time_profiler_counter(%rip), %rdx
	movq	(%rdx), %rax
	addq	$1, %rax
	movq	%rax, __gcov7._ZN8Polyfish12_GLOBAL__N_110EvaluationILNS_5Trace7TracingE0EE6piecesILNS_5ColorE1ELNS_9PieceTypeE3EEENS_5ScoreEv(%rip)
	movq	%rax, (%rdx)
.L1048:
	movq	(%r9), %rsi
	movq	328(%rsi), %rdx
	movq	%rsi, 192(%rsp)
	movq	%rdx, %r11
	andq	280(%rsi), %r11
	movq	$0, 136(%r9)
	je	.L1076
	movq	192(%r9), %rcx
	movq	264(%rsi), %r8
	movq	256(%rsi), %rax
	movq	296(%rsi), %rbx
	movq	%rcx, 8(%rsp)
	movq	32(%r9), %rcx
	movq	%r8, %rdi
	salq	$8, %rdi
	xorq	%rax, %rbx
	salq	$8, %rax
	movq	%r8, 40(%rsp)
	movq	184(%r9), %r14
	movl	44(%r9), %ebp
	movq	%rcx, 24(%rsp)
	movq	120(%r9), %rcx
	movq	%rdi, 48(%rsp)
	movq	%rbx, 16(%rsp)
	movq	112(%r9), %rbx
	movq	%rcx, 32(%rsp)
	orq	%rdi, %rcx
	movq	%r8, %rdi
	andq	320(%rsi), %r8
	movq	%rcx, 56(%rsp)
	movq	16(%r9), %rcx
	andq	%rdx, %rdi
	andq	304(%rsi), %rdx
	andq	%rdi, %rax
	movq	%rdi, 72(%rsp)
	xorl	%edi, %edi
	movq	48(%rcx), %rcx
	movq	%r8, 88(%rsp)
	xorl	%r8d, %r8d
	notq	%rcx
	movq	%rcx, 64(%rsp)
	xorl	%ecx, %ecx
	rep bsfq	%rdx, %rcx
	movq	856(%rsi), %rdx
	movslq	%ecx, %rcx
	movq	72(%rdx), %rdx
	salq	$6, %rcx
	movq	%rdx, 80(%rsp)
	movabsq	$4340410370284600380, %rdx
	andq	%rdx, %rax
	popcntq	%rax, %rax
	movq	%rax, 96(%rsp)
	movzbl	876(%rsi), %eax
	movb	%al, 153(%rsp)
	movq	8+__gcov0._ZN8Polyfish12_GLOBAL__N_110EvaluationILNS_5Trace7TracingE0EE6piecesILNS_5ColorE1ELNS_9PieceTypeE3EEENS_5ScoreEv(%rip), %rax
	movq	%rax, 168(%rsp)
	movq	24+__gcov0._ZN8Polyfish12_GLOBAL__N_110EvaluationILNS_5Trace7TracingE0EE6piecesILNS_5ColorE1ELNS_9PieceTypeE3EEENS_5ScoreEv(%rip), %rax
	movq	%rax, 160(%rsp)
	movq	32+__gcov0._ZN8Polyfish12_GLOBAL__N_110EvaluationILNS_5Trace7TracingE0EE6piecesILNS_5ColorE1ELNS_9PieceTypeE3EEENS_5ScoreEv(%rip), %rax
	movb	$0, 237(%rsp)
	movq	%rax, 216(%rsp)
	movq	16+__gcov0._ZN8Polyfish12_GLOBAL__N_110EvaluationILNS_5Trace7TracingE0EE6piecesILNS_5ColorE1ELNS_9PieceTypeE3EEENS_5ScoreEv(%rip), %rax
	movb	$0, 238(%rsp)
	movq	%rax, 176(%rsp)
	movq	40+__gcov0._ZN8Polyfish12_GLOBAL__N_110EvaluationILNS_5Trace7TracingE0EE6piecesILNS_5ColorE1ELNS_9PieceTypeE3EEENS_5ScoreEv(%rip), %rax
	movb	$0, 239(%rsp)
	movq	%rax, 144(%rsp)
	movq	48+__gcov0._ZN8Polyfish12_GLOBAL__N_110EvaluationILNS_5Trace7TracingE0EE6piecesILNS_5ColorE1ELNS_9PieceTypeE3EEENS_5ScoreEv(%rip), %rax
	movb	$0, 234(%rsp)
	movq	%rax, 136(%rsp)
	movq	56+__gcov0._ZN8Polyfish12_GLOBAL__N_110EvaluationILNS_5Trace7TracingE0EE6piecesILNS_5ColorE1ELNS_9PieceTypeE3EEENS_5ScoreEv(%rip), %rax
	movb	$0, 154(%rsp)
	movq	%rax, 128(%rsp)
	movq	64+__gcov0._ZN8Polyfish12_GLOBAL__N_110EvaluationILNS_5Trace7TracingE0EE6piecesILNS_5ColorE1ELNS_9PieceTypeE3EEENS_5ScoreEv(%rip), %rax
	movb	$0, 155(%rsp)
	movq	%rax, 200(%rsp)
	movq	72+__gcov0._ZN8Polyfish12_GLOBAL__N_110EvaluationILNS_5Trace7TracingE0EE6piecesILNS_5ColorE1ELNS_9PieceTypeE3EEENS_5ScoreEv(%rip), %rax
	movb	$0, 235(%rsp)
	movq	%rax, 120(%rsp)
	movq	80+__gcov0._ZN8Polyfish12_GLOBAL__N_110EvaluationILNS_5Trace7TracingE0EE6piecesILNS_5ColorE1ELNS_9PieceTypeE3EEENS_5ScoreEv(%rip), %rax
	movb	$0, 156(%rsp)
	movq	%rax, 112(%rsp)
	movq	88+__gcov0._ZN8Polyfish12_GLOBAL__N_110EvaluationILNS_5Trace7TracingE0EE6piecesILNS_5ColorE1ELNS_9PieceTypeE3EEENS_5ScoreEv(%rip), %rax
	movq	%rax, 208(%rsp)
	movq	96+__gcov0._ZN8Polyfish12_GLOBAL__N_110EvaluationILNS_5Trace7TracingE0EE6piecesILNS_5ColorE1ELNS_9PieceTypeE3EEENS_5ScoreEv(%rip), %rax
	movq	%rax, 224(%rsp)
	movq	104+__gcov0._ZN8Polyfish12_GLOBAL__N_110EvaluationILNS_5Trace7TracingE0EE6piecesILNS_5ColorE1ELNS_9PieceTypeE3EEENS_5ScoreEv(%rip), %rax
	movq	%rax, 240(%rsp)
	movq	112+__gcov0._ZN8Polyfish12_GLOBAL__N_110EvaluationILNS_5Trace7TracingE0EE6piecesILNS_5ColorE1ELNS_9PieceTypeE3EEENS_5ScoreEv(%rip), %rax
	movq	%rax, 248(%rsp)
	movb	$0, 157(%rsp)
	movq	%rcx, 184(%rsp)
	addq	.refptr._ZN8Polyfish14SquareDistanceE(%rip), %rcx
	movb	$0, 158(%rsp)
	movb	$0, 233(%rsp)
	movb	$0, 236(%rsp)
	movb	$0, 159(%rsp)
	movb	$0, 232(%rsp)
	movq	%rcx, 104(%rsp)
	movq	%rdi, (%rsp)
	jmp	.L1061
	.p2align 4,,10
	.p2align 3
.L1148:
	movq	96(%r9), %rcx
	addl	$1, 212(%r9)
	addq	$1, 176(%rsp)
	addl	$46, 220(%r9)
	andq	%rax, %rcx
	movb	$1, 233(%rsp)
	popcntq	%rcx, %rcx
	addl	%ecx, 228(%r9)
	movq	(%rdx), %rcx
.L1052:
	movq	.refptr._ZN8Polyfish12_GLOBAL__N_1L13MobilityBonusE.lto_priv.0(%rip), %rdi
	andq	24(%rsp), %rax
	popcntq	%rax, %rax
	addl	128(%rdi,%rax,4), %ebp
	movq	.refptr._ZN8Polyfish8SquareBBE(%rip), %rax
	movabsq	$1099511562240, %rdi
	movl	%ebp, 44(%r9)
	movq	(%rax,%r10,8), %rdx
	movq	64(%rsp), %rax
	andq	%rdx, %rax
	andq	56(%rsp), %rax
	testq	%rdi, %rax
	je	.L1053
	addq	$1, 144(%rsp)
	addl	$1638431, %r8d
	movb	$1, 158(%rsp)
.L1053:
	testq	%rdx, 48(%rsp)
	je	.L1054
	addq	$1, 136(%rsp)
	addl	$196626, %r8d
	movb	$1, 157(%rsp)
.L1054:
	movq	104(%rsp), %rax
	movl	96(%rsp), %r13d
	movzbl	(%rax,%r10), %eax
	imull	$589831, %eax, %eax
	subl	%eax, %r8d
	movq	32(%rsp), %rax
	andq	%rdx, %rax
	cmpq	$1, %rax
	movabsq	$-6172840429334713771, %rax
	adcl	$0, %r13d
	testq	%rax, %rdx
	jne	.L1055
	addq	$1, 128(%rsp)
	movabsq	$6172840429334713770, %rax
	movb	$1, 156(%rsp)
.L1055:
	movl	%esi, %r12d
	movl	$7, %edx
	andq	72(%rsp), %rax
	andl	$7, %r12d
	popcntq	%rax, %rax
	subl	%r12d, %edx
	cmpl	%edx, %r12d
	jg	.L1145
	movl	%r12d, %edx
.L1056:
	movq	.refptr._ZN8Polyfish13PseudoAttacksE(%rip), %rdi
	movq	88(%rsp), %r15
	movslq	%edx, %rdx
	andq	1536(%rdi,%r10,8), %r15
	movq	.refptr._ZN8Polyfish12_GLOBAL__N_1L11BishopPawnsE.lto_priv.0(%rip), %rdi
	xorl	%r10d, %r10d
	popcntq	%r15, %r10
	imull	$327684, %r10d, %r10d
	imull	(%rdi,%rdx,4), %eax
	imull	%r13d, %eax
	subl	%eax, %r8d
	movabsq	$103481868288, %rax
	andq	%rax, %rcx
	subl	%r10d, %r8d
	leaq	-1(%rcx), %rax
	testq	%rcx, %rax
	je	.L1057
	addq	$1, 120(%rsp)
	addl	$45, %r8d
	movb	$1, 155(%rsp)
.L1057:
	movzbl	153(%rsp), %ecx
	testb	%cl, %cl
	je	.L1058
	movabsq	$-9151314442816847872, %rax
	addq	$1, 112(%rsp)
	btq	%rsi, %rax
	movb	%cl, 154(%rsp)
	jnc	.L1058
	addq	$1, 208(%rsp)
	movl	$-7, %eax
	testl	%r12d, %r12d
	je	.L1059
	addq	$1, 224(%rsp)
	movl	$-9, %eax
	movb	%cl, 237(%rsp)
.L1059:
	addl	%esi, %eax
	movzbl	153(%rsp), %esi
	movslq	%eax, %rdx
	movb	%sil, 234(%rsp)
	movb	%sil, 154(%rsp)
	movq	192(%rsp), %rsi
	cmpl	$9, (%rsi,%rdx,4)
	je	.L1146
	.p2align 4,,10
	.p2align 3
.L1058:
	testq	%r11, %r11
	je	.L1147
.L1061:
	xorl	%esi, %esi
	leaq	-1(%r11), %rax
	movq	80(%rsp), %r15
	movq	.refptr._ZN8Polyfish8SquareBBE(%rip), %rdi
	rep bsfq	%r11, %rsi
	andq	%rax, %r11
	movslq	%esi, %r10
	movq	%r10, %rax
	salq	$5, %rax
	addq	.refptr._ZN8Polyfish12BishopMagicsE(%rip), %rax
	movq	16(%rax), %r12
	movq	(%rax), %rdx
	movq	8(%rax), %r13
	movl	24(%rax), %ecx
	movq	16(%rsp), %rax
	andq	%rdx, %rax
	imulq	%r13, %rax
	shrq	%cl, %rax
	andq	(%rdi,%r10,8), %r15
	movl	%eax, %eax
	movq	(%r12,%rax,8), %rax
	je	.L1050
	movq	184(%rsp), %rdi
	movb	$1, 232(%rsp)
	addq	$1, 168(%rsp)
	leaq	(%rdi,%r10), %r15
	movq	.refptr._ZN8Polyfish6LineBBE(%rip), %rdi
	andq	(%rdi,%r15,8), %rax
.L1050:
	andq	40(%rsp), %rdx
	movq	%rax, %r15
	orq	%rax, (%rsp)
	imulq	%r13, %rdx
	andq	%rbx, %r15
	movq	(%rsp), %rdi
	orq	%rax, %rbx
	orq	%r15, %r14
	movq	%rbx, 112(%r9)
	movq	%r14, 184(%r9)
	shrq	%cl, %rdx
	movq	%rdi, 136(%r9)
	movl	%edx, %edx
	leaq	(%r12,%rdx,8), %rdx
	testq	%rax, 8(%rsp)
	jne	.L1148
	addq	$1, 160(%rsp)
	movq	(%rdx), %rcx
	movb	$1, 159(%rsp)
	testq	%rcx, 8(%rsp)
	je	.L1052
	addq	$1, 216(%rsp)
	addl	$24, %r8d
	movb	$1, 236(%rsp)
	jmp	.L1052
	.p2align 4,,10
	.p2align 3
.L1145:
	addq	$1, 200(%rsp)
	movb	$1, 235(%rsp)
	jmp	.L1056
	.p2align 4,,10
	.p2align 3
.L1147:
	cmpb	$0, 237(%rsp)
	je	.L1062
	movq	224(%rsp), %rax
	movq	%rax, 96+__gcov0._ZN8Polyfish12_GLOBAL__N_110EvaluationILNS_5Trace7TracingE0EE6piecesILNS_5ColorE1ELNS_9PieceTypeE3EEENS_5ScoreEv(%rip)
.L1062:
	cmpb	$0, 238(%rsp)
	jne	.L1149
	cmpb	$0, 239(%rsp)
	je	.L1064
	.p2align 4,,10
	.p2align 3
.L1151:
	movq	240(%rsp), %rax
	movq	%rax, 104+__gcov0._ZN8Polyfish12_GLOBAL__N_110EvaluationILNS_5Trace7TracingE0EE6piecesILNS_5ColorE1ELNS_9PieceTypeE3EEENS_5ScoreEv(%rip)
.L1064:
	cmpb	$0, 234(%rsp)
	je	.L1065
	movq	208(%rsp), %rax
	movq	%rax, 88+__gcov0._ZN8Polyfish12_GLOBAL__N_110EvaluationILNS_5Trace7TracingE0EE6piecesILNS_5ColorE1ELNS_9PieceTypeE3EEENS_5ScoreEv(%rip)
.L1065:
	cmpb	$0, 154(%rsp)
	je	.L1066
	movq	112(%rsp), %rax
	movq	%rax, 80+__gcov0._ZN8Polyfish12_GLOBAL__N_110EvaluationILNS_5Trace7TracingE0EE6piecesILNS_5ColorE1ELNS_9PieceTypeE3EEENS_5ScoreEv(%rip)
.L1066:
	cmpb	$0, 155(%rsp)
	je	.L1067
	movq	120(%rsp), %rax
	movq	%rax, 72+__gcov0._ZN8Polyfish12_GLOBAL__N_110EvaluationILNS_5Trace7TracingE0EE6piecesILNS_5ColorE1ELNS_9PieceTypeE3EEENS_5ScoreEv(%rip)
.L1067:
	cmpb	$0, 235(%rsp)
	je	.L1068
	movq	200(%rsp), %rax
	movq	%rax, 64+__gcov0._ZN8Polyfish12_GLOBAL__N_110EvaluationILNS_5Trace7TracingE0EE6piecesILNS_5ColorE1ELNS_9PieceTypeE3EEENS_5ScoreEv(%rip)
.L1068:
	cmpb	$0, 156(%rsp)
	je	.L1069
	movq	128(%rsp), %rax
	movq	%rax, 56+__gcov0._ZN8Polyfish12_GLOBAL__N_110EvaluationILNS_5Trace7TracingE0EE6piecesILNS_5ColorE1ELNS_9PieceTypeE3EEENS_5ScoreEv(%rip)
.L1069:
	cmpb	$0, 157(%rsp)
	je	.L1070
	movq	136(%rsp), %rax
	movq	%rax, 48+__gcov0._ZN8Polyfish12_GLOBAL__N_110EvaluationILNS_5Trace7TracingE0EE6piecesILNS_5ColorE1ELNS_9PieceTypeE3EEENS_5ScoreEv(%rip)
.L1070:
	cmpb	$0, 158(%rsp)
	je	.L1071
	movq	144(%rsp), %rax
	movq	%rax, 40+__gcov0._ZN8Polyfish12_GLOBAL__N_110EvaluationILNS_5Trace7TracingE0EE6piecesILNS_5ColorE1ELNS_9PieceTypeE3EEENS_5ScoreEv(%rip)
.L1071:
	cmpb	$0, 233(%rsp)
	je	.L1072
	movq	176(%rsp), %rax
	movq	%rax, 16+__gcov0._ZN8Polyfish12_GLOBAL__N_110EvaluationILNS_5Trace7TracingE0EE6piecesILNS_5ColorE1ELNS_9PieceTypeE3EEENS_5ScoreEv(%rip)
.L1072:
	cmpb	$0, 236(%rsp)
	je	.L1073
	movq	216(%rsp), %rax
	movq	%rax, 32+__gcov0._ZN8Polyfish12_GLOBAL__N_110EvaluationILNS_5Trace7TracingE0EE6piecesILNS_5ColorE1ELNS_9PieceTypeE3EEENS_5ScoreEv(%rip)
.L1073:
	cmpb	$0, 159(%rsp)
	je	.L1074
	movq	160(%rsp), %rax
	movq	%rax, 24+__gcov0._ZN8Polyfish12_GLOBAL__N_110EvaluationILNS_5Trace7TracingE0EE6piecesILNS_5ColorE1ELNS_9PieceTypeE3EEENS_5ScoreEv(%rip)
.L1074:
	cmpb	$0, 232(%rsp)
	je	.L1047
	movq	168(%rsp), %rax
	movq	%rax, 8+__gcov0._ZN8Polyfish12_GLOBAL__N_110EvaluationILNS_5Trace7TracingE0EE6piecesILNS_5ColorE1ELNS_9PieceTypeE3EEENS_5ScoreEv(%rip)
	jmp	.L1047
	.p2align 4,,10
	.p2align 3
.L1146:
	subl	$8, %eax
	movl	$13107400, %edx
	addq	$1, 240(%rsp)
	cltq
	movl	(%rsi,%rax,4), %eax
	testl	%eax, %eax
	je	.L1150
.L1060:
	movzbl	153(%rsp), %eax
	subl	%edx, %r8d
	movb	%al, 239(%rsp)
	movb	%al, 234(%rsp)
	movb	%al, 154(%rsp)
	jmp	.L1058
	.p2align 4,,10
	.p2align 3
.L1150:
	movzbl	153(%rsp), %eax
	movl	$9830550, %edx
	addq	$1, 248(%rsp)
	movb	%al, 238(%rsp)
	jmp	.L1060
	.p2align 4,,10
	.p2align 3
.L1149:
	movq	248(%rsp), %rax
	cmpb	$0, 239(%rsp)
	movq	%rax, 112+__gcov0._ZN8Polyfish12_GLOBAL__N_110EvaluationILNS_5Trace7TracingE0EE6piecesILNS_5ColorE1ELNS_9PieceTypeE3EEENS_5ScoreEv(%rip)
	jne	.L1151
	jmp	.L1064
	.p2align 4,,10
	.p2align 3
.L1076:
	xorl	%r8d, %r8d
.L1047:
	movl	%r8d, %eax
	addq	$264, %rsp
	popq	%rbx
	popq	%rsi
	popq	%rdi
	popq	%rbp
	popq	%r12
	popq	%r13
	popq	%r14
	popq	%r15
	ret
	.seh_endproc
	.align 2
	.p2align 4
	.globl	_ZNK8Polyfish12_GLOBAL__N_110EvaluationILNS_5Trace7TracingE0EE4kingILNS_5ColorE1EEENS_5ScoreEv.lto_priv.0
	.def	_ZNK8Polyfish12_GLOBAL__N_110EvaluationILNS_5Trace7TracingE0EE4kingILNS_5ColorE1EEENS_5ScoreEv.lto_priv.0;	.scl	2;	.type	32;	.endef
	.seh_proc	_ZNK8Polyfish12_GLOBAL__N_110EvaluationILNS_5Trace7TracingE0EE4kingILNS_5ColorE1EEENS_5ScoreEv.lto_priv.0
_ZNK8Polyfish12_GLOBAL__N_110EvaluationILNS_5Trace7TracingE0EE4kingILNS_5ColorE1EEENS_5ScoreEv.lto_priv.0:
	pushq	%r15
	.seh_pushreg	%r15
	pushq	%r14
	.seh_pushreg	%r14
	pushq	%r13
	.seh_pushreg	%r13
	pushq	%r12
	.seh_pushreg	%r12
	pushq	%rbp
	.seh_pushreg	%rbp
	pushq	%rdi
	.seh_pushreg	%rdi
	pushq	%rsi
	.seh_pushreg	%rsi
	pushq	%rbx
	.seh_pushreg	%rbx
	subq	$72, %rsp
	.seh_stackalloc	72
	.seh_endprologue
	addq	$1, __gcov0._ZNK8Polyfish12_GLOBAL__N_110EvaluationILNS_5Trace7TracingE0EE4kingILNS_5ColorE1EEENS_5ScoreEv(%rip)
	cmpq	$0, __gcov7._ZNK8Polyfish12_GLOBAL__N_110EvaluationILNS_5Trace7TracingE0EE4kingILNS_5ColorE1EEENS_5ScoreEv(%rip)
	movq	%rcx, %rbx
	je	.L1177
.L1153:
	movq	(%rbx), %r12
	movq	.refptr.__gcov_indirect_call(%rip), %rdx
	movq	16(%rbx), %rdi
	movq	328(%r12), %rsi
	andq	304(%r12), %rsi
	rep bsfq	%rsi, %rsi
	cmpq	$0, (%rdx)
	movl	%esi, %eax
	jne	.L1178
	cmpq	$0, __gcov7._ZN8Polyfish5Pawns5Entry11king_safetyILNS_5ColorE1EEENS_5ScoreERKNS_8PositionE(%rip)
	je	.L1179
.L1155:
	cmpl	%eax, 68(%rdi)
	jne	.L1156
	movq	856(%r12), %rax
	addq	$1, __gcov0._ZN8Polyfish5Pawns5Entry11king_safetyILNS_5ColorE1EEENS_5ScoreERKNS_8PositionE(%rip)
	movl	24(%rax), %eax
	andl	$12, %eax
	cmpl	%eax, 84(%rdi)
	je	.L1180
.L1157:
	movq	%r12, %rdx
	movq	%rdi, %rcx
	call	_ZN8Polyfish5Pawns5Entry14do_king_safetyILNS_5ColorE1EEENS_5ScoreERKNS_8PositionE
	addq	$1, 24+__gcov0._ZN8Polyfish5Pawns5Entry11king_safetyILNS_5ColorE1EEENS_5ScoreERKNS_8PositionE(%rip)
	movl	%eax, 76(%rdi)
.L1158:
	movq	112(%rbx), %rdi
	movq	160(%rbx), %rbp
	movq	184(%rbx), %rcx
	movq	48(%rbx), %r10
	movq	152(%rbx), %rdx
	movq	%rdi, %r11
	movq	%rbp, %r8
	movq	(%rbx), %r9
	notq	%rcx
	movq	176(%rbx), %r14
	notq	%r11
	movq	%rdi, 40(%rsp)
	andq	%r10, %rcx
	orq	%rdx, %r8
	movq	.refptr._ZN8Polyfish10RookMagicsE(%rip), %r13
	orq	%r11, %r8
	movq	%rcx, %rdi
	movq	%r14, 48(%rsp)
	movq	320(%r9), %rcx
	andq	%r8, %rdi
	movq	%r14, %r8
	movslq	%esi, %r14
	andq	%rdi, %r8
