	.file	"<artificial>"
	.text
/APP
	.section .rodata
.global gEmbeddedNNUEData
.balign 32
gEmbeddedNNUEData:
.incbin "nn-3c0aa92af1da.nnue"
.global gEmbeddedNNUEEnd
.balign 1
gEmbeddedNNUEEnd:
.byte 1
.global gEmbeddedNNUESize
.balign 32
gEmbeddedNNUESize:
.int gEmbeddedNNUEEnd - gEmbeddedNNUEData
.balign 32
.text

/NO_APP
	.section	.text.startup,"x"
	.p2align 4
	.globl	_GLOBAL__sub_I__ZN8Polyfish11setup_benchB5cxx11ERKNS_8PositionERSi.lto_priv.0
	.def	_GLOBAL__sub_I__ZN8Polyfish11setup_benchB5cxx11ERKNS_8PositionERSi.lto_priv.0;	.scl	2;	.type	32;	.endef
	.seh_proc	_GLOBAL__sub_I__ZN8Polyfish11setup_benchB5cxx11ERKNS_8PositionERSi.lto_priv.0
_GLOBAL__sub_I__ZN8Polyfish11setup_benchB5cxx11ERKNS_8PositionERSi.lto_priv.0:
	subq	$40, %rsp
	.seh_stackalloc	40
	.seh_endprologue
	movq	.refptr.__gcov_indirect_call(%rip), %rax
	cmpq	$0, (%rax)
	je	.L2
	leaq	_GLOBAL__sub_I__ZN8Polyfish11setup_benchB5cxx11ERKNS_8PositionERSi.lto_priv.0(%rip), %rdx
	movl	$1013279428, %ecx
	call	__gcov_indirect_call_profiler_v4
.L2:
	addq	$1, __gcov0._GLOBAL__sub_I__ZN8Polyfish11setup_benchB5cxx11ERKNS_8PositionERSi.lto_priv.0(%rip)
	cmpq	$0, __gcov7._GLOBAL__sub_I__ZN8Polyfish11setup_benchB5cxx11ERKNS_8PositionERSi.lto_priv.0(%rip)
	jne	.L3
	movq	.refptr.__gcov_time_profiler_counter(%rip), %rdx
	movq	(%rdx), %rax
	addq	$1, %rax
	movq	%rax, __gcov7._GLOBAL__sub_I__ZN8Polyfish11setup_benchB5cxx11ERKNS_8PositionERSi.lto_priv.0(%rip)
	movq	%rax, (%rdx)
.L3:
	call	_Z41__static_initialization_and_destruction_0ii.constprop.13
	addq	$1, 8+__gcov0._GLOBAL__sub_I__ZN8Polyfish11setup_benchB5cxx11ERKNS_8PositionERSi.lto_priv.0(%rip)
	addq	$40, %rsp
	ret
	.seh_endproc
	.p2align 4
	.globl	_GLOBAL__sub_I__ZN8Polyfish8PopCnt16E.lto_priv.0
	.def	_GLOBAL__sub_I__ZN8Polyfish8PopCnt16E.lto_priv.0;	.scl	2;	.type	32;	.endef
	.seh_proc	_GLOBAL__sub_I__ZN8Polyfish8PopCnt16E.lto_priv.0
_GLOBAL__sub_I__ZN8Polyfish8PopCnt16E.lto_priv.0:
	subq	$40, %rsp
	.seh_stackalloc	40
	.seh_endprologue
	movq	.refptr.__gcov_indirect_call(%rip), %rax
	cmpq	$0, (%rax)
	je	.L6
	leaq	_GLOBAL__sub_I__ZN8Polyfish8PopCnt16E.lto_priv.0(%rip), %rdx
	movl	$1180038410, %ecx
	call	__gcov_indirect_call_profiler_v4
.L6:
	addq	$1, __gcov0._GLOBAL__sub_I__ZN8Polyfish8PopCnt16E.lto_priv.0(%rip)
	cmpq	$0, __gcov7._GLOBAL__sub_I__ZN8Polyfish8PopCnt16E.lto_priv.0(%rip)
	jne	.L7
	movq	.refptr.__gcov_time_profiler_counter(%rip), %rdx
	movq	(%rdx), %rax
	addq	$1, %rax
	movq	%rax, __gcov7._GLOBAL__sub_I__ZN8Polyfish8PopCnt16E.lto_priv.0(%rip)
	movq	%rax, (%rdx)
.L7:
	leaq	_ZStL8__ioinit.lto_priv.1(%rip), %rcx
	call	_ZNSt8ios_base4InitC1Ev
	leaq	__tcf_1.lto_priv.1(%rip), %rcx
	addq	$1, 8+__gcov0._GLOBAL__sub_I__ZN8Polyfish8PopCnt16E.lto_priv.0(%rip)
	call	atexit
	addq	$1, 16+__gcov0._GLOBAL__sub_I__ZN8Polyfish8PopCnt16E.lto_priv.0(%rip)
	addq	$40, %rsp
	ret
	.seh_endproc
	.text
	.align 2
	.p2align 4
	.globl	_ZNKSt5ctypeIcE5widenEc
	.def	_ZNKSt5ctypeIcE5widenEc;	.scl	2;	.type	32;	.endef
	.seh_proc	_ZNKSt5ctypeIcE5widenEc
_ZNKSt5ctypeIcE5widenEc:
	pushq	%r12
	.seh_pushreg	%r12
	pushq	%rsi
	.seh_pushreg	%rsi
	pushq	%rbx
	.seh_pushreg	%rbx
	subq	$32, %rsp
	.seh_stackalloc	32
	.seh_endprologue
	movq	.refptr.__gcov_indirect_call(%rip), %rsi
	cmpq	$0, (%rsi)
	movq	%rcx, %r12
	movl	%edx, %ebx
	je	.L9
	leaq	_ZNKSt5ctypeIcE5widenEc(%rip), %rdx
	movl	$1827960770, %ecx
	call	__gcov_indirect_call_profiler_v4
.L9:
	cmpq	$0, __gcov7._ZNKSt5ctypeIcE5widenEc.lto_priv.0(%rip)
	jne	.L10
	movq	.refptr.__gcov_time_profiler_counter(%rip), %rdx
	movq	(%rdx), %rax
	addq	$1, %rax
	movq	%rax, __gcov7._ZNKSt5ctypeIcE5widenEc.lto_priv.0(%rip)
	movq	%rax, (%rdx)
.L10:
	cmpb	$0, 56(%r12)
	je	.L11
	addq	$1, __gcov0._ZNKSt5ctypeIcE5widenEc.lto_priv.0(%rip)
	movzbl	%bl, %edx
	movzbl	57(%r12,%rdx), %eax
	addq	$32, %rsp
	popq	%rbx
	popq	%rsi
	popq	%r12
	ret
	.p2align 4,,10
	.p2align 3
.L11:
	movq	%r12, %rcx
	addq	$1, 8+__gcov0._ZNKSt5ctypeIcE5widenEc.lto_priv.0(%rip)
	call	_ZNKSt5ctypeIcE13_M_widen_initEv
	movq	(%r12), %rax
	leaq	__gcov4._ZNKSt5ctypeIcE5widenEc.lto_priv.0(%rip), %rcx
	movsbl	%bl, %edx
	movq	%rcx, 8(%rsi)
	movq	%r12, %rcx
	movq	48(%rax), %rax
	addq	$1, 16+__gcov0._ZNKSt5ctypeIcE5widenEc.lto_priv.0(%rip)
	movq	%rax, (%rsi)
	call	*%rax
	addq	$1, 24+__gcov0._ZNKSt5ctypeIcE5widenEc.lto_priv.0(%rip)
	addq	$32, %rsp
	popq	%rbx
	popq	%rsi
	popq	%r12
	ret
	.seh_endproc
	.align 2
	.p2align 4
	.globl	_ZNKSt5ctypeIcE8do_widenEc
	.def	_ZNKSt5ctypeIcE8do_widenEc;	.scl	2;	.type	32;	.endef
	.seh_proc	_ZNKSt5ctypeIcE8do_widenEc
_ZNKSt5ctypeIcE8do_widenEc:
	pushq	%r12
	.seh_pushreg	%r12
	subq	$32, %rsp
	.seh_stackalloc	32
	.seh_endprologue
	movq	.refptr.__gcov_indirect_call(%rip), %rax
	cmpq	$0, (%rax)
	movl	%edx, %r12d
	je	.L14
	leaq	_ZNKSt5ctypeIcE8do_widenEc(%rip), %rdx
	movl	$1098815531, %ecx
	call	__gcov_indirect_call_profiler_v4
.L14:
	addq	$1, __gcov0._ZNKSt5ctypeIcE8do_widenEc(%rip)
	cmpq	$0, __gcov7._ZNKSt5ctypeIcE8do_widenEc(%rip)
	jne	.L15
	movq	.refptr.__gcov_time_profiler_counter(%rip), %rax
	movq	(%rax), %rcx
	addq	$1, %rcx
	movq	%rcx, __gcov7._ZNKSt5ctypeIcE8do_widenEc(%rip)
	movq	%rcx, (%rax)
.L15:
	movl	%r12d, %eax
	addq	$32, %rsp
	popq	%r12
	ret
	.seh_endproc
	.p2align 4
	.def	_ZN8Polyfish8Bitbases5probeENS_6SquareES1_S1_NS_5ColorE;	.scl	3;	.type	32;	.endef
	.seh_proc	_ZN8Polyfish8Bitbases5probeENS_6SquareES1_S1_NS_5ColorE
_ZN8Polyfish8Bitbases5probeENS_6SquareES1_S1_NS_5ColorE:
	pushq	%rbp
	.seh_pushreg	%rbp
	pushq	%rdi
	.seh_pushreg	%rdi
	pushq	%rsi
	.seh_pushreg	%rsi
	pushq	%rbx
	.seh_pushreg	%rbx
	subq	$40, %rsp
	.seh_stackalloc	40
	.seh_endprologue
	movq	.refptr.__gcov_indirect_call(%rip), %rax
	cmpq	$0, (%rax)
	movl	%ecx, %ebp
	movl	%edx, %ebx
	movl	%r8d, %edi
	movl	%r9d, %esi
	je	.L17
	leaq	_ZN8Polyfish8Bitbases5probeENS_6SquareES1_S1_NS_5ColorE(%rip), %rdx
	movl	$629721908, %ecx
	call	__gcov_indirect_call_profiler_v4
.L17:
	addq	$1, __gcov0._ZN8Polyfish8Bitbases5probeENS_6SquareES1_S1_NS_5ColorE(%rip)
	cmpq	$0, __gcov7._ZN8Polyfish8Bitbases5probeENS_6SquareES1_S1_NS_5ColorE(%rip)
	jne	.L18
	movq	.refptr.__gcov_time_profiler_counter(%rip), %rdx
	movq	(%rdx), %rax
	addq	$1, %rax
	movq	%rax, __gcov7._ZN8Polyfish8Bitbases5probeENS_6SquareES1_S1_NS_5ColorE(%rip)
	movq	%rax, (%rdx)
.L18:
	sall	$6, %edi
	movl	%ebx, %ecx
	movl	$6, %eax
	sarl	$3, %ebx
	sall	$13, %ecx
	subl	%ebx, %eax
	sall	$12, %esi
	movzwl	%cx, %ecx
	sall	$15, %eax
	orl	%ebp, %ecx
	orl	%edi, %ecx
	orl	%eax, %ecx
	movl	$1, %eax
	orl	%esi, %ecx
	movl	%ecx, %edx
	sall	%cl, %eax
	leaq	_ZN8Polyfish12_GLOBAL__N_110KPKBitbaseE(%rip), %rcx
	shrq	$5, %rdx
	andl	(%rcx,%rdx,4), %eax
	setne	%al
	addq	$40, %rsp
	popq	%rbx
	popq	%rsi
	popq	%rdi
	popq	%rbp
	ret
	.seh_endproc
	.p2align 4
	.globl	_ZN8Polyfish10attacks_bbENS_9PieceTypeENS_6SquareEy
	.def	_ZN8Polyfish10attacks_bbENS_9PieceTypeENS_6SquareEy;	.scl	2;	.type	32;	.endef
	.seh_proc	_ZN8Polyfish10attacks_bbENS_9PieceTypeENS_6SquareEy
_ZN8Polyfish10attacks_bbENS_9PieceTypeENS_6SquareEy:
	pushq	%rdi
	.seh_pushreg	%rdi
	pushq	%rsi
	.seh_pushreg	%rsi
	pushq	%rbx
	.seh_pushreg	%rbx
	subq	$32, %rsp
	.seh_stackalloc	32
	.seh_endprologue
	movq	.refptr.__gcov_indirect_call(%rip), %rax
	cmpq	$0, (%rax)
	movslq	%ecx, %rsi
	movslq	%edx, %rdi
	movq	%r8, %rbx
	je	.L20
	leaq	_ZN8Polyfish10attacks_bbENS_9PieceTypeENS_6SquareEy(%rip), %rdx
	movl	$1814978979, %ecx
	call	__gcov_indirect_call_profiler_v4
.L20:
	cmpq	$0, __gcov7._ZN8Polyfish10attacks_bbENS_9PieceTypeENS_6SquareEy.lto_priv.0(%rip)
	jne	.L21
	movq	.refptr.__gcov_time_profiler_counter(%rip), %rdx
	movq	(%rdx), %rax
	addq	$1, %rax
	movq	%rax, __gcov7._ZN8Polyfish10attacks_bbENS_9PieceTypeENS_6SquareEy.lto_priv.0(%rip)
	movq	%rax, (%rdx)
.L21:
	cmpl	$4, %esi
	je	.L22
	cmpl	$5, %esi
	je	.L23
	cmpl	$3, %esi
	je	.L27
	salq	$6, %rsi
	addq	$1, __gcov0._ZN8Polyfish10attacks_bbENS_9PieceTypeENS_6SquareEy.lto_priv.0(%rip)
	leaq	_ZN8Polyfish13PseudoAttacksE(%rip), %rax
	addq	%rdi, %rsi
	movq	(%rax,%rsi,8), %rax
	addq	$32, %rsp
	popq	%rbx
	popq	%rsi
	popq	%rdi
	ret
	.p2align 4,,10
	.p2align 3
.L22:
	addq	$1, 16+__gcov0._ZN8Polyfish10attacks_bbENS_9PieceTypeENS_6SquareEy.lto_priv.0(%rip)
	salq	$5, %rdi
	leaq	_ZN8Polyfish10RookMagicsE(%rip), %rax
.L26:
	addq	%rdi, %rax
	andq	(%rax), %rbx
	imulq	8(%rax), %rbx
	movl	24(%rax), %ecx
	movq	16(%rax), %rax
	shrq	%cl, %rbx
	movl	%ebx, %ebx
	movq	(%rax,%rbx,8), %rax
	addq	$32, %rsp
	popq	%rbx
	popq	%rsi
	popq	%rdi
	ret
	.p2align 4,,10
	.p2align 3
.L27:
	addq	$1, 8+__gcov0._ZN8Polyfish10attacks_bbENS_9PieceTypeENS_6SquareEy.lto_priv.0(%rip)
	salq	$5, %rdi
	leaq	_ZN8Polyfish12BishopMagicsE(%rip), %rax
	jmp	.L26
	.p2align 4,,10
	.p2align 3
.L23:
	salq	$5, %rdi
	leaq	_ZN8Polyfish10RookMagicsE(%rip), %rdx
	addq	$1, 24+__gcov0._ZN8Polyfish10attacks_bbENS_9PieceTypeENS_6SquareEy.lto_priv.0(%rip)
	addq	%rdi, %rdx
	movq	(%rdx), %rax
	movl	24(%rdx), %ecx
	movq	16(%rdx), %r8
	andq	%rbx, %rax
	imulq	8(%rdx), %rax
	leaq	_ZN8Polyfish12BishopMagicsE(%rip), %rdx
	addq	%rdi, %rdx
	andq	(%rdx), %rbx
	imulq	8(%rdx), %rbx
	shrq	%cl, %rax
	movl	24(%rdx), %ecx
	movq	16(%rdx), %rdx
	movl	%eax, %eax
	shrq	%cl, %rbx
	movq	(%r8,%rax,8), %rax
	movl	%ebx, %ebx
	orq	(%rdx,%rbx,8), %rax
	addq	$32, %rsp
	popq	%rbx
	popq	%rsi
	popq	%rdi
	ret
	.seh_endproc
	.align 2
	.p2align 4
	.globl	_ZN8Polyfish4PRNG11sparse_randIyEET_v
	.def	_ZN8Polyfish4PRNG11sparse_randIyEET_v;	.scl	2;	.type	32;	.endef
	.seh_proc	_ZN8Polyfish4PRNG11sparse_randIyEET_v
_ZN8Polyfish4PRNG11sparse_randIyEET_v:
	pushq	%rbx
	.seh_pushreg	%rbx
	subq	$32, %rsp
	.seh_stackalloc	32
	.seh_endprologue
	movq	.refptr.__gcov_indirect_call(%rip), %rax
	cmpq	$0, (%rax)
	movq	%rcx, %rbx
	je	.L29
	leaq	_ZN8Polyfish4PRNG11sparse_randIyEET_v(%rip), %rdx
	movl	$2068219729, %ecx
	call	__gcov_indirect_call_profiler_v4
.L29:
	addq	$1, __gcov0._ZN8Polyfish4PRNG11sparse_randIyEET_v.lto_priv.0(%rip)
	cmpq	$0, __gcov7._ZN8Polyfish4PRNG11sparse_randIyEET_v.lto_priv.0(%rip)
	jne	.L30
	movq	.refptr.__gcov_time_profiler_counter(%rip), %rdx
	movq	(%rdx), %rax
	addq	$1, %rax
	movq	%rax, __gcov7._ZN8Polyfish4PRNG11sparse_randIyEET_v.lto_priv.0(%rip)
	movq	%rax, (%rdx)
.L30:
	movq	(%rbx), %rax
	movq	%rax, %rdx
	shrq	$12, %rdx
	xorq	%rax, %rdx
	movq	%rdx, %rax
	salq	$25, %rax
	xorq	%rdx, %rax
	movq	%rax, %rdx
	shrq	$27, %rdx
	xorq	%rax, %rdx
	movq	%rdx, %rax
	shrq	$12, %rax
	xorq	%rdx, %rax
	movq	%rax, %rcx
	salq	$25, %rcx
	xorq	%rax, %rcx
	movq	%rcx, %rax
	shrq	$27, %rax
	xorq	%rcx, %rax
	movq	%rax, %rcx
	shrq	$12, %rcx
	xorq	%rax, %rcx
	movq	%rcx, %r8
	salq	$25, %r8
	xorq	%rcx, %r8
	movq	%r8, %rcx
	shrq	$27, %rcx
	xorq	%r8, %rcx
	movabsq	$2685821657736338717, %r8
	imulq	%r8, %rax
	movq	%rcx, (%rbx)
	imulq	%r8, %rdx
	imulq	%r8, %rcx
	andq	%rdx, %rax
	andq	%rcx, %rax
	addq	$32, %rsp
	popq	%rbx
	ret
	.seh_endproc
	.p2align 4
	.def	_ZN8Polyfish16passed_pawn_spanENS_5ColorENS_6SquareE;	.scl	3;	.type	32;	.endef
	.seh_proc	_ZN8Polyfish16passed_pawn_spanENS_5ColorENS_6SquareE
_ZN8Polyfish16passed_pawn_spanENS_5ColorENS_6SquareE:
	pushq	%rsi
	.seh_pushreg	%rsi
	pushq	%rbx
	.seh_pushreg	%rbx
	subq	$40, %rsp
	.seh_stackalloc	40
	.seh_endprologue
	movq	.refptr.__gcov_indirect_call(%rip), %rax
	cmpq	$0, (%rax)
	movl	%ecx, %esi
	movl	%edx, %ebx
	je	.L32
	leaq	_ZN8Polyfish16passed_pawn_spanENS_5ColorENS_6SquareE(%rip), %rdx
	movl	$1902745045, %ecx
	call	__gcov_indirect_call_profiler_v4
.L32:
	cmpq	$0, __gcov7._ZN8Polyfish16passed_pawn_spanENS_5ColorENS_6SquareE.lto_priv.0(%rip)
	jne	.L33
	movq	.refptr.__gcov_time_profiler_counter(%rip), %rdx
	movq	(%rdx), %rax
	addq	$1, %rax
	movq	%rax, __gcov7._ZN8Polyfish16passed_pawn_spanENS_5ColorENS_6SquareE.lto_priv.0(%rip)
	movq	%rax, (%rdx)
.L33:
	movl	%ebx, %ecx
	sarl	$3, %ecx
	testl	%esi, %esi
	jne	.L34
	addq	$1, __gcov0._ZN8Polyfish16passed_pawn_spanENS_5ColorENS_6SquareE.lto_priv.0(%rip)
	sall	$3, %ecx
	movq	$-256, %r8
	salq	%cl, %r8
.L35:
	movabsq	$72340172838076673, %rdx
	andl	$7, %ebx
	movabsq	$9187201950435737471, %r9
	movl	%ebx, %ecx
	salq	%cl, %rdx
	movabsq	$-72340172838076674, %rcx
	leaq	(%rdx,%rdx), %rax
	andq	%rcx, %rax
	movq	%rdx, %rcx
	shrq	%rcx
	andq	%r9, %rcx
	orq	%rcx, %rax
	orq	%rdx, %rax
	andq	%r8, %rax
	addq	$40, %rsp
	popq	%rbx
	popq	%rsi
	ret
	.p2align 4,,10
	.p2align 3
.L34:
	xorl	$7, %ecx
	addq	$1, 8+__gcov0._ZN8Polyfish16passed_pawn_spanENS_5ColorENS_6SquareE.lto_priv.0(%rip)
	movabsq	$72057594037927935, %r8
	sall	$3, %ecx
	shrq	%cl, %r8
	jmp	.L35
	.seh_endproc
	.align 2
	.p2align 4
	.def	_ZNK8Polyfish7EndgameILNS_11EndgameCodeE1ENS_5ValueEEclERKNS_8PositionE;	.scl	3;	.type	32;	.endef
	.seh_proc	_ZNK8Polyfish7EndgameILNS_11EndgameCodeE1ENS_5ValueEEclERKNS_8PositionE
_ZNK8Polyfish7EndgameILNS_11EndgameCodeE1ENS_5ValueEEclERKNS_8PositionE:
	subq	$40, %rsp
	.seh_stackalloc	40
	.seh_endprologue
	movq	.refptr.__gcov_indirect_call(%rip), %rax
	cmpq	$0, (%rax)
	je	.L37
	leaq	_ZNK8Polyfish7EndgameILNS_11EndgameCodeE1ENS_5ValueEEclERKNS_8PositionE(%rip), %rdx
	movl	$1121485557, %ecx
	call	__gcov_indirect_call_profiler_v4
.L37:
	addq	$1, __gcov0._ZNK8Polyfish7EndgameILNS_11EndgameCodeE1ENS_5ValueEEclERKNS_8PositionE.lto_priv.0(%rip)
	cmpq	$0, __gcov7._ZNK8Polyfish7EndgameILNS_11EndgameCodeE1ENS_5ValueEEclERKNS_8PositionE.lto_priv.0(%rip)
	jne	.L38
	movq	.refptr.__gcov_time_profiler_counter(%rip), %rdx
	movq	(%rdx), %rax
	addq	$1, %rax
	movq	%rax, __gcov7._ZNK8Polyfish7EndgameILNS_11EndgameCodeE1ENS_5ValueEEclERKNS_8PositionE.lto_priv.0(%rip)
	movq	%rax, (%rdx)
.L38:
	xorl	%eax, %eax
	addq	$40, %rsp
	ret
	.seh_endproc
	.p2align 4
	.globl	_ZNSt12_Destroy_auxILb0EE9__destroyIPNSt7__cxx1112basic_stringIcSt11char_traitsIcESaIcEEEEEvT_S9_
	.def	_ZNSt12_Destroy_auxILb0EE9__destroyIPNSt7__cxx1112basic_stringIcSt11char_traitsIcESaIcEEEEEvT_S9_;	.scl	2;	.type	32;	.endef
	.seh_proc	_ZNSt12_Destroy_auxILb0EE9__destroyIPNSt7__cxx1112basic_stringIcSt11char_traitsIcESaIcEEEEEvT_S9_
_ZNSt12_Destroy_auxILb0EE9__destroyIPNSt7__cxx1112basic_stringIcSt11char_traitsIcESaIcEEEEEvT_S9_:
	pushq	%rsi
	.seh_pushreg	%rsi
	pushq	%rbx
	.seh_pushreg	%rbx
	subq	$40, %rsp
	.seh_stackalloc	40
	.seh_endprologue
	movq	.refptr.__gcov_indirect_call(%rip), %rax
	cmpq	$0, (%rax)
	movq	%rcx, %rbx
	movq	%rdx, %rsi
	je	.L40
	leaq	_ZNSt12_Destroy_auxILb0EE9__destroyIPNSt7__cxx1112basic_stringIcSt11char_traitsIcESaIcEEEEEvT_S9_(%rip), %rdx
	movl	$32020916, %ecx
	call	__gcov_indirect_call_profiler_v4
.L40:
	addq	$1, __gcov0._ZNSt12_Destroy_auxILb0EE9__destroyIPNSt7__cxx1112basic_stringIcSt11char_traitsIcESaIcEEEEEvT_S9_.lto_priv.0(%rip)
	cmpq	$0, __gcov7._ZNSt12_Destroy_auxILb0EE9__destroyIPNSt7__cxx1112basic_stringIcSt11char_traitsIcESaIcEEEEEvT_S9_.lto_priv.0(%rip)
	jne	.L41
	movq	.refptr.__gcov_time_profiler_counter(%rip), %rdx
	movq	(%rdx), %rax
	addq	$1, %rax
	movq	%rax, __gcov7._ZNSt12_Destroy_auxILb0EE9__destroyIPNSt7__cxx1112basic_stringIcSt11char_traitsIcESaIcEEEEEvT_S9_.lto_priv.0(%rip)
	movq	%rax, (%rdx)
.L41:
	cmpq	%rsi, %rbx
	je	.L42
	.p2align 4,,10
	.p2align 3
.L45:
	movq	(%rbx), %rcx
	leaq	16(%rbx), %rax
	cmpq	%rax, %rcx
	je	.L46
	movq	16(%rbx), %rax
	addq	$32, %rbx
	addq	$1, 8+__gcov0._ZNSt12_Destroy_auxILb0EE9__destroyIPNSt7__cxx1112basic_stringIcSt11char_traitsIcESaIcEEEEEvT_S9_.lto_priv.0(%rip)
	leaq	1(%rax), %rdx
	call	_ZdlPvy
	cmpq	%rbx, %rsi
	jne	.L45
.L42:
	addq	$1, 24+__gcov0._ZNSt12_Destroy_auxILb0EE9__destroyIPNSt7__cxx1112basic_stringIcSt11char_traitsIcESaIcEEEEEvT_S9_.lto_priv.0(%rip)
	addq	$40, %rsp
	popq	%rbx
	popq	%rsi
	ret
	.p2align 4,,10
	.p2align 3
.L46:
	addq	$32, %rbx
	addq	$1, 16+__gcov0._ZNSt12_Destroy_auxILb0EE9__destroyIPNSt7__cxx1112basic_stringIcSt11char_traitsIcESaIcEEEEEvT_S9_.lto_priv.0(%rip)
	cmpq	%rbx, %rsi
	jne	.L45
	addq	$1, 24+__gcov0._ZNSt12_Destroy_auxILb0EE9__destroyIPNSt7__cxx1112basic_stringIcSt11char_traitsIcESaIcEEEEEvT_S9_.lto_priv.0(%rip)
	addq	$40, %rsp
	popq	%rbx
	popq	%rsi
	ret
	.seh_endproc
	.align 2
	.p2align 4
	.globl	_ZNSt6vectorINSt7__cxx1112basic_stringIcSt11char_traitsIcESaIcEEESaIS5_EED1Ev
	.def	_ZNSt6vectorINSt7__cxx1112basic_stringIcSt11char_traitsIcESaIcEEESaIS5_EED1Ev;	.scl	2;	.type	32;	.endef
	.seh_proc	_ZNSt6vectorINSt7__cxx1112basic_stringIcSt11char_traitsIcESaIcEEESaIS5_EED1Ev
_ZNSt6vectorINSt7__cxx1112basic_stringIcSt11char_traitsIcESaIcEEESaIS5_EED1Ev:
	pushq	%rdi
	.seh_pushreg	%rdi
	pushq	%rsi
	.seh_pushreg	%rsi
	pushq	%rbx
	.seh_pushreg	%rbx
	subq	$32, %rsp
	.seh_stackalloc	32
	.seh_endprologue
	movq	.refptr.__gcov_indirect_call(%rip), %rbx
	movq	(%rbx), %rax
	movq	%rcx, %rdi
	testq	%rax, %rax
	jne	.L69
	addq	$1, __gcov0._ZNSt6vectorINSt7__cxx1112basic_stringIcSt11char_traitsIcESaIcEEESaIS5_EED1Ev.lto_priv.0(%rip)
	cmpq	$0, __gcov7._ZNSt6vectorINSt7__cxx1112basic_stringIcSt11char_traitsIcESaIcEEESaIS5_EED1Ev.lto_priv.0(%rip)
	je	.L59
	movq	8(%rdi), %rsi
	movq	(%rdi), %rbx
.L50:
	addq	$1, __gcov0._ZNSt12_Destroy_auxILb0EE9__destroyIPNSt7__cxx1112basic_stringIcSt11char_traitsIcESaIcEEEEEvT_S9_.lto_priv.0(%rip)
	cmpq	$0, __gcov7._ZNSt12_Destroy_auxILb0EE9__destroyIPNSt7__cxx1112basic_stringIcSt11char_traitsIcESaIcEEEEEvT_S9_.lto_priv.0(%rip)
	jne	.L68
	jmp	.L70
	.p2align 4,,10
	.p2align 3
.L55:
	movq	16(%rbx), %rax
	addq	$1, 8+__gcov0._ZNSt12_Destroy_auxILb0EE9__destroyIPNSt7__cxx1112basic_stringIcSt11char_traitsIcESaIcEEEEEvT_S9_.lto_priv.0(%rip)
	addq	$32, %rbx
	leaq	1(%rax), %rdx
	call	_ZdlPvy
.L68:
	cmpq	%rsi, %rbx
	je	.L57
.L52:
	movq	(%rbx), %rcx
	leaq	16(%rbx), %rax
	cmpq	%rax, %rcx
	jne	.L55
	addq	$32, %rbx
	addq	$1, 16+__gcov0._ZNSt12_Destroy_auxILb0EE9__destroyIPNSt7__cxx1112basic_stringIcSt11char_traitsIcESaIcEEEEEvT_S9_.lto_priv.0(%rip)
	cmpq	%rbx, %rsi
	jne	.L52
.L57:
	movq	(%rdi), %rcx
	addq	$1, 24+__gcov0._ZNSt12_Destroy_auxILb0EE9__destroyIPNSt7__cxx1112basic_stringIcSt11char_traitsIcESaIcEEEEEvT_S9_.lto_priv.0(%rip)
	movq	16(%rdi), %rdx
	testq	%rcx, %rcx
	je	.L71
	subq	%rcx, %rdx
	addq	$1, 8+__gcov0._ZNSt6vectorINSt7__cxx1112basic_stringIcSt11char_traitsIcESaIcEEESaIS5_EED1Ev.lto_priv.0(%rip)
	call	_ZdlPvy
	addq	$1, 24+__gcov0._ZNSt6vectorINSt7__cxx1112basic_stringIcSt11char_traitsIcESaIcEEESaIS5_EED1Ev.lto_priv.0(%rip)
	addq	$32, %rsp
	popq	%rbx
	popq	%rsi
	popq	%rdi
	ret
	.p2align 4,,10
	.p2align 3
.L71:
	addq	$1, 16+__gcov0._ZNSt6vectorINSt7__cxx1112basic_stringIcSt11char_traitsIcESaIcEEESaIS5_EED1Ev.lto_priv.0(%rip)
	addq	$32, %rsp
	popq	%rbx
	popq	%rsi
	popq	%rdi
	ret
	.p2align 4,,10
	.p2align 3
.L70:
	movq	.refptr.__gcov_time_profiler_counter(%rip), %rdx
	movq	(%rdx), %rax
	addq	$1, %rax
	movq	%rax, __gcov7._ZNSt12_Destroy_auxILb0EE9__destroyIPNSt7__cxx1112basic_stringIcSt11char_traitsIcESaIcEEEEEvT_S9_.lto_priv.0(%rip)
	movq	%rax, (%rdx)
	jmp	.L68
	.p2align 4,,10
	.p2align 3
.L69:
	leaq	_ZNSt6vectorINSt7__cxx1112basic_stringIcSt11char_traitsIcESaIcEEESaIS5_EED1Ev(%rip), %rdx
	movl	$890895920, %ecx
	call	__gcov_indirect_call_profiler_v4
	addq	$1, __gcov0._ZNSt6vectorINSt7__cxx1112basic_stringIcSt11char_traitsIcESaIcEEESaIS5_EED1Ev.lto_priv.0(%rip)
	movq	(%rbx), %rax
	cmpq	$0, __gcov7._ZNSt6vectorINSt7__cxx1112basic_stringIcSt11char_traitsIcESaIcEEESaIS5_EED1Ev.lto_priv.0(%rip)
	je	.L59
.L49:
	movq	8(%rdi), %rsi
	movq	(%rdi), %rbx
	testq	%rax, %rax
	je	.L50
	leaq	_ZNSt12_Destroy_auxILb0EE9__destroyIPNSt7__cxx1112basic_stringIcSt11char_traitsIcESaIcEEEEEvT_S9_(%rip), %rdx
	movl	$32020916, %ecx
	call	__gcov_indirect_call_profiler_v4
	jmp	.L50
	.p2align 4,,10
	.p2align 3
.L59:
	movq	.refptr.__gcov_time_profiler_counter(%rip), %rcx
	movq	(%rcx), %rsi
	leaq	1(%rsi), %rdx
	movq	%rdx, __gcov7._ZNSt6vectorINSt7__cxx1112basic_stringIcSt11char_traitsIcESaIcEEESaIS5_EED1Ev.lto_priv.0(%rip)
	movq	%rdx, (%rcx)
	jmp	.L49
	.seh_endproc
	.p2align 4
	.def	_ZNSt12_Destroy_auxILb0EE9__destroyIN9__gnu_cxx17__normal_iteratorIPNSt7__cxx1112basic_stringIcSt11char_traitsIcESaIcEEESt6vectorIS9_SaIS9_EEEEEEvT_SF_;	.scl	3;	.type	32;	.endef
	.seh_proc	_ZNSt12_Destroy_auxILb0EE9__destroyIN9__gnu_cxx17__normal_iteratorIPNSt7__cxx1112basic_stringIcSt11char_traitsIcESaIcEEESt6vectorIS9_SaIS9_EEEEEEvT_SF_
_ZNSt12_Destroy_auxILb0EE9__destroyIN9__gnu_cxx17__normal_iteratorIPNSt7__cxx1112basic_stringIcSt11char_traitsIcESaIcEEESt6vectorIS9_SaIS9_EEEEEEvT_SF_:
	pushq	%rsi
	.seh_pushreg	%rsi
	pushq	%rbx
	.seh_pushreg	%rbx
	subq	$40, %rsp
	.seh_stackalloc	40
	.seh_endprologue
	movq	.refptr.__gcov_indirect_call(%rip), %rax
	cmpq	$0, (%rax)
	movq	%rcx, %rbx
	movq	%rdx, %rsi
	je	.L73
	leaq	_ZNSt12_Destroy_auxILb0EE9__destroyIN9__gnu_cxx17__normal_iteratorIPNSt7__cxx1112basic_stringIcSt11char_traitsIcESaIcEEESt6vectorIS9_SaIS9_EEEEEEvT_SF_(%rip), %rdx
	movl	$403316767, %ecx
	call	__gcov_indirect_call_profiler_v4
.L73:
	addq	$1, __gcov0._ZNSt12_Destroy_auxILb0EE9__destroyIN9__gnu_cxx17__normal_iteratorIPNSt7__cxx1112basic_stringIcSt11char_traitsIcESaIcEEESt6vectorIS9_SaIS9_EEEEEEvT_SF_(%rip)
	cmpq	$0, __gcov7._ZNSt12_Destroy_auxILb0EE9__destroyIN9__gnu_cxx17__normal_iteratorIPNSt7__cxx1112basic_stringIcSt11char_traitsIcESaIcEEESt6vectorIS9_SaIS9_EEEEEEvT_SF_(%rip)
	jne	.L74
	movq	.refptr.__gcov_time_profiler_counter(%rip), %rdx
	movq	(%rdx), %rax
	addq	$1, %rax
	movq	%rax, __gcov7._ZNSt12_Destroy_auxILb0EE9__destroyIN9__gnu_cxx17__normal_iteratorIPNSt7__cxx1112basic_stringIcSt11char_traitsIcESaIcEEESt6vectorIS9_SaIS9_EEEEEEvT_SF_(%rip)
	movq	%rax, (%rdx)
.L74:
	cmpq	%rsi, %rbx
	je	.L75
	.p2align 4,,10
	.p2align 3
.L78:
	movq	(%rbx), %rcx
	leaq	16(%rbx), %rax
	cmpq	%rax, %rcx
	je	.L79
	movq	16(%rbx), %rax
	addq	$32, %rbx
	addq	$1, 8+__gcov0._ZNSt12_Destroy_auxILb0EE9__destroyIN9__gnu_cxx17__normal_iteratorIPNSt7__cxx1112basic_stringIcSt11char_traitsIcESaIcEEESt6vectorIS9_SaIS9_EEEEEEvT_SF_(%rip)
	leaq	1(%rax), %rdx
	call	_ZdlPvy
	cmpq	%rbx, %rsi
	jne	.L78
.L75:
	addq	$1, 24+__gcov0._ZNSt12_Destroy_auxILb0EE9__destroyIN9__gnu_cxx17__normal_iteratorIPNSt7__cxx1112basic_stringIcSt11char_traitsIcESaIcEEESt6vectorIS9_SaIS9_EEEEEEvT_SF_(%rip)
	addq	$40, %rsp
	popq	%rbx
	popq	%rsi
	ret
	.p2align 4,,10
	.p2align 3
.L79:
	addq	$32, %rbx
	addq	$1, 16+__gcov0._ZNSt12_Destroy_auxILb0EE9__destroyIN9__gnu_cxx17__normal_iteratorIPNSt7__cxx1112basic_stringIcSt11char_traitsIcESaIcEEESt6vectorIS9_SaIS9_EEEEEEvT_SF_(%rip)
	cmpq	%rbx, %rsi
	jne	.L78
	addq	$1, 24+__gcov0._ZNSt12_Destroy_auxILb0EE9__destroyIN9__gnu_cxx17__normal_iteratorIPNSt7__cxx1112basic_stringIcSt11char_traitsIcESaIcEEESt6vectorIS9_SaIS9_EEEEEEvT_SF_(%rip)
	addq	$40, %rsp
	popq	%rbx
	popq	%rsi
	ret
	.seh_endproc
	.p2align 4
	.globl	__tcf_2.lto_priv.7
	.def	__tcf_2.lto_priv.7;	.scl	2;	.type	32;	.endef
	.seh_proc	__tcf_2.lto_priv.7
__tcf_2.lto_priv.7:
	pushq	%rsi
	.seh_pushreg	%rsi
	pushq	%rbx
	.seh_pushreg	%rbx
	subq	$40, %rsp
	.seh_stackalloc	40
	.seh_endprologue
	movq	.refptr.__gcov_indirect_call(%rip), %rbx
	movq	(%rbx), %rax
	testq	%rax, %rax
	jne	.L110
	addq	$1, __gcov0.__tcf_2(%rip)
	cmpq	$0, __gcov7.__tcf_2(%rip)
	je	.L96
.L83:
	addq	$1, __gcov0._ZNSt6vectorINSt7__cxx1112basic_stringIcSt11char_traitsIcESaIcEEESaIS5_EED1Ev.lto_priv.0(%rip)
	cmpq	$0, __gcov7._ZNSt6vectorINSt7__cxx1112basic_stringIcSt11char_traitsIcESaIcEEESaIS5_EED1Ev.lto_priv.0(%rip)
	movq	8+_ZN12_GLOBAL__N_1L8DefaultsE.lto_priv.0(%rip), %rsi
	movq	_ZN12_GLOBAL__N_1L8DefaultsE.lto_priv.0(%rip), %rbx
	je	.L111
.L85:
	addq	$1, __gcov0._ZNSt12_Destroy_auxILb0EE9__destroyIPNSt7__cxx1112basic_stringIcSt11char_traitsIcESaIcEEEEEvT_S9_.lto_priv.0(%rip)
	cmpq	$0, __gcov7._ZNSt12_Destroy_auxILb0EE9__destroyIPNSt7__cxx1112basic_stringIcSt11char_traitsIcESaIcEEEEEvT_S9_.lto_priv.0(%rip)
	jne	.L109
	jmp	.L112
	.p2align 4,,10
	.p2align 3
.L90:
	movq	16(%rbx), %rax
	addq	$1, 8+__gcov0._ZNSt12_Destroy_auxILb0EE9__destroyIPNSt7__cxx1112basic_stringIcSt11char_traitsIcESaIcEEEEEvT_S9_.lto_priv.0(%rip)
	addq	$32, %rbx
	leaq	1(%rax), %rdx
	call	_ZdlPvy
.L109:
	cmpq	%rsi, %rbx
	je	.L92
.L87:
	movq	(%rbx), %rcx
	leaq	16(%rbx), %rax
	cmpq	%rax, %rcx
	jne	.L90
	addq	$32, %rbx
	addq	$1, 16+__gcov0._ZNSt12_Destroy_auxILb0EE9__destroyIPNSt7__cxx1112basic_stringIcSt11char_traitsIcESaIcEEEEEvT_S9_.lto_priv.0(%rip)
	cmpq	%rbx, %rsi
	jne	.L87
.L92:
	movq	_ZN12_GLOBAL__N_1L8DefaultsE.lto_priv.0(%rip), %rcx
	addq	$1, 24+__gcov0._ZNSt12_Destroy_auxILb0EE9__destroyIPNSt7__cxx1112basic_stringIcSt11char_traitsIcESaIcEEEEEvT_S9_.lto_priv.0(%rip)
	movq	16+_ZN12_GLOBAL__N_1L8DefaultsE.lto_priv.0(%rip), %rdx
	testq	%rcx, %rcx
	je	.L113
	subq	%rcx, %rdx
	addq	$1, 8+__gcov0._ZNSt6vectorINSt7__cxx1112basic_stringIcSt11char_traitsIcESaIcEEESaIS5_EED1Ev.lto_priv.0(%rip)
	call	_ZdlPvy
	addq	$1, 24+__gcov0._ZNSt6vectorINSt7__cxx1112basic_stringIcSt11char_traitsIcESaIcEEESaIS5_EED1Ev.lto_priv.0(%rip)
	addq	$1, 8+__gcov0.__tcf_2(%rip)
	addq	$40, %rsp
	popq	%rbx
	popq	%rsi
	ret
	.p2align 4,,10
	.p2align 3
.L113:
	addq	$1, 16+__gcov0._ZNSt6vectorINSt7__cxx1112basic_stringIcSt11char_traitsIcESaIcEEESaIS5_EED1Ev.lto_priv.0(%rip)
	addq	$1, 8+__gcov0.__tcf_2(%rip)
	addq	$40, %rsp
	popq	%rbx
	popq	%rsi
	ret
	.p2align 4,,10
	.p2align 3
.L112:
	movq	.refptr.__gcov_time_profiler_counter(%rip), %rdx
	movq	(%rdx), %rax
	addq	$1, %rax
	movq	%rax, __gcov7._ZNSt12_Destroy_auxILb0EE9__destroyIPNSt7__cxx1112basic_stringIcSt11char_traitsIcESaIcEEEEEvT_S9_.lto_priv.0(%rip)
	movq	%rax, (%rdx)
	jmp	.L109
	.p2align 4,,10
	.p2align 3
.L110:
	leaq	__tcf_2.lto_priv.7(%rip), %rdx
	movl	$1232835450, %ecx
	call	__gcov_indirect_call_profiler_v4
	addq	$1, __gcov0.__tcf_2(%rip)
	movq	(%rbx), %rax
	cmpq	$0, __gcov7.__tcf_2(%rip)
	je	.L96
.L82:
	testq	%rax, %rax
	je	.L83
	leaq	_ZNSt6vectorINSt7__cxx1112basic_stringIcSt11char_traitsIcESaIcEEESaIS5_EED1Ev(%rip), %rdx
	movl	$890895920, %ecx
	call	__gcov_indirect_call_profiler_v4
	addq	$1, __gcov0._ZNSt6vectorINSt7__cxx1112basic_stringIcSt11char_traitsIcESaIcEEESaIS5_EED1Ev.lto_priv.0(%rip)
	movq	(%rbx), %rdx
	cmpq	$0, __gcov7._ZNSt6vectorINSt7__cxx1112basic_stringIcSt11char_traitsIcESaIcEEESaIS5_EED1Ev.lto_priv.0(%rip)
	je	.L94
.L84:
	movq	8+_ZN12_GLOBAL__N_1L8DefaultsE.lto_priv.0(%rip), %rsi
	movq	_ZN12_GLOBAL__N_1L8DefaultsE.lto_priv.0(%rip), %rbx
	testq	%rdx, %rdx
	je	.L85
	leaq	_ZNSt12_Destroy_auxILb0EE9__destroyIPNSt7__cxx1112basic_stringIcSt11char_traitsIcESaIcEEEEEvT_S9_(%rip), %rdx
	movl	$32020916, %ecx
	call	__gcov_indirect_call_profiler_v4
	jmp	.L85
	.p2align 4,,10
	.p2align 3
.L96:
	movq	.refptr.__gcov_time_profiler_counter(%rip), %rcx
	movq	(%rcx), %rsi
	leaq	1(%rsi), %rdx
	movq	%rdx, __gcov7.__tcf_2(%rip)
	movq	%rdx, (%rcx)
	jmp	.L82
	.p2align 4,,10
	.p2align 3
.L111:
	xorl	%edx, %edx
.L94:
	movq	.refptr.__gcov_time_profiler_counter(%rip), %rcx
	movq	(%rcx), %rax
	addq	$1, %rax
	movq	%rax, __gcov7._ZNSt6vectorINSt7__cxx1112basic_stringIcSt11char_traitsIcESaIcEEESaIS5_EED1Ev.lto_priv.0(%rip)
	movq	%rax, (%rcx)
	jmp	.L84
	.seh_endproc
	.p2align 4
	.globl	_ZStplIcSt11char_traitsIcESaIcEENSt7__cxx1112basic_stringIT_T0_T1_EEOS8_RKS8_
	.def	_ZStplIcSt11char_traitsIcESaIcEENSt7__cxx1112basic_stringIT_T0_T1_EEOS8_RKS8_;	.scl	2;	.type	32;	.endef
	.seh_proc	_ZStplIcSt11char_traitsIcESaIcEENSt7__cxx1112basic_stringIT_T0_T1_EEOS8_RKS8_
_ZStplIcSt11char_traitsIcESaIcEENSt7__cxx1112basic_stringIT_T0_T1_EEOS8_RKS8_:
	pushq	%r13
	.seh_pushreg	%r13
	pushq	%r12
	.seh_pushreg	%r12
	pushq	%rbx
	.seh_pushreg	%rbx
	subq	$32, %rsp
	.seh_stackalloc	32
	.seh_endprologue
	movq	.refptr.__gcov_indirect_call(%rip), %rax
	cmpq	$0, (%rax)
	movq	%rcx, %r12
	movq	%rdx, %r13
	movq	%r8, %rbx
	je	.L115
	leaq	_ZStplIcSt11char_traitsIcESaIcEENSt7__cxx1112basic_stringIT_T0_T1_EEOS8_RKS8_(%rip), %rdx
	movl	$1605650492, %ecx
	call	__gcov_indirect_call_profiler_v4
.L115:
	addq	$1, __gcov0._ZStplIcSt11char_traitsIcESaIcEENSt7__cxx1112basic_stringIT_T0_T1_EEOS8_RKS8_.lto_priv.0(%rip)
	cmpq	$0, __gcov7._ZStplIcSt11char_traitsIcESaIcEENSt7__cxx1112basic_stringIT_T0_T1_EEOS8_RKS8_.lto_priv.0(%rip)
	jne	.L116
	movq	.refptr.__gcov_time_profiler_counter(%rip), %rdx
	movq	(%rdx), %rax
	addq	$1, %rax
	movq	%rax, __gcov7._ZStplIcSt11char_traitsIcESaIcEENSt7__cxx1112basic_stringIT_T0_T1_EEOS8_RKS8_.lto_priv.0(%rip)
	movq	%rax, (%rdx)
.L116:
	movq	(%rbx), %rdx
	movq	8(%rbx), %r8
	movq	%r13, %rcx
	call	_ZNSt7__cxx1112basic_stringIcSt11char_traitsIcESaIcEE9_M_appendEPKcy
	leaq	16(%r12), %rdx
	movq	%rdx, (%r12)
	movq	(%rax), %rcx
	leaq	16(%rax), %rdx
	cmpq	%rdx, %rcx
	je	.L119
	movq	%rcx, (%r12)
	movq	16(%rax), %rcx
	addq	$1, 16+__gcov0._ZStplIcSt11char_traitsIcESaIcEENSt7__cxx1112basic_stringIT_T0_T1_EEOS8_RKS8_.lto_priv.0(%rip)
	movq	%rcx, 16(%r12)
.L118:
	movq	8(%rax), %rcx
	movq	%rdx, (%rax)
	movq	$0, 8(%rax)
	movq	%rcx, 8(%r12)
	movb	$0, 16(%rax)
	movq	%r12, %rax
	addq	$32, %rsp
	popq	%rbx
	popq	%r12
	popq	%r13
	ret
	.p2align 4,,10
	.p2align 3
.L119:
	vmovdqu	16(%rax), %xmm0
	addq	$1, 8+__gcov0._ZStplIcSt11char_traitsIcESaIcEENSt7__cxx1112basic_stringIT_T0_T1_EEOS8_RKS8_.lto_priv.0(%rip)
	vmovdqu	%xmm0, 16(%r12)
	jmp	.L118
	.seh_endproc
	.section .rdata,"dr"
.LC0:
	.ascii "basic_string::append\0"
	.text
	.p2align 4
	.globl	_ZStplIcSt11char_traitsIcESaIcEENSt7__cxx1112basic_stringIT_T0_T1_EEPKS5_RKS8_
	.def	_ZStplIcSt11char_traitsIcESaIcEENSt7__cxx1112basic_stringIT_T0_T1_EEPKS5_RKS8_;	.scl	2;	.type	32;	.endef
	.seh_proc	_ZStplIcSt11char_traitsIcESaIcEENSt7__cxx1112basic_stringIT_T0_T1_EEPKS5_RKS8_
_ZStplIcSt11char_traitsIcESaIcEENSt7__cxx1112basic_stringIT_T0_T1_EEPKS5_RKS8_:
	pushq	%r13
	.seh_pushreg	%r13
	pushq	%r12
	.seh_pushreg	%r12
	pushq	%rsi
	.seh_pushreg	%rsi
	pushq	%rbx
	.seh_pushreg	%rbx
	subq	$40, %rsp
	.seh_stackalloc	40
	.seh_endprologue
	movq	.refptr.__gcov_indirect_call(%rip), %rax
	cmpq	$0, (%rax)
	movq	%rcx, %r12
	movq	%rdx, %r13
	movq	%r8, %rsi
	jne	.L125
.L121:
	addq	$1, __gcov0._ZStplIcSt11char_traitsIcESaIcEENSt7__cxx1112basic_stringIT_T0_T1_EEPKS5_RKS8_(%rip)
	cmpq	$0, __gcov7._ZStplIcSt11char_traitsIcESaIcEENSt7__cxx1112basic_stringIT_T0_T1_EEPKS5_RKS8_(%rip)
	je	.L126
.L122:
	movq	%r13, %rcx
	call	strlen
	movb	$0, 16(%r12)
	movq	%r12, %rcx
	movq	$0, 8(%r12)
	movq	%rax, %rbx
	movq	8(%rsi), %rdx
	leaq	16(%r12), %rax
	movq	%rax, (%r12)
	addq	%rbx, %rdx
	call	_ZNSt7__cxx1112basic_stringIcSt11char_traitsIcESaIcEE7reserveEy
	addq	$1, 8+__gcov0._ZStplIcSt11char_traitsIcESaIcEENSt7__cxx1112basic_stringIT_T0_T1_EEPKS5_RKS8_(%rip)
	cmpq	$0, __gcov7._ZNSt7__cxx1112basic_stringIcSt11char_traitsIcESaIcEE6appendEPKcy(%rip)
	je	.L127
.L123:
	movabsq	$4611686018427387903, %rax
	subq	8(%r12), %rax
	cmpq	%rax, %rbx
	ja	.L128
	movq	%rbx, %r8
	movq	%r13, %rdx
	movq	%r12, %rcx
	addq	$1, 8+__gcov0._ZNSt7__cxx1112basic_stringIcSt11char_traitsIcESaIcEE6appendEPKcy(%rip)
	call	_ZNSt7__cxx1112basic_stringIcSt11char_traitsIcESaIcEE9_M_appendEPKcy
	movq	8(%rsi), %r8
	movq	(%rsi), %rdx
	movq	%r12, %rcx
	addq	$1, 16+__gcov0._ZNSt7__cxx1112basic_stringIcSt11char_traitsIcESaIcEE6appendEPKcy(%rip)
	addq	$1, 16+__gcov0._ZStplIcSt11char_traitsIcESaIcEENSt7__cxx1112basic_stringIT_T0_T1_EEPKS5_RKS8_(%rip)
	call	_ZNSt7__cxx1112basic_stringIcSt11char_traitsIcESaIcEE9_M_appendEPKcy
	addq	$1, 24+__gcov0._ZStplIcSt11char_traitsIcESaIcEENSt7__cxx1112basic_stringIT_T0_T1_EEPKS5_RKS8_(%rip)
	movq	%r12, %rax
	addq	$40, %rsp
	popq	%rbx
	popq	%rsi
	popq	%r12
	popq	%r13
	ret
	.p2align 4,,10
	.p2align 3
.L125:
	leaq	_ZStplIcSt11char_traitsIcESaIcEENSt7__cxx1112basic_stringIT_T0_T1_EEPKS5_RKS8_(%rip), %rdx
	movl	$571692534, %ecx
	call	__gcov_indirect_call_profiler_v4
	jmp	.L121
	.p2align 4,,10
	.p2align 3
.L126:
	movq	.refptr.__gcov_time_profiler_counter(%rip), %rdx
	movq	(%rdx), %rax
	addq	$1, %rax
	movq	%rax, __gcov7._ZStplIcSt11char_traitsIcESaIcEENSt7__cxx1112basic_stringIT_T0_T1_EEPKS5_RKS8_(%rip)
	movq	%rax, (%rdx)
	jmp	.L122
	.p2align 4,,10
	.p2align 3
.L127:
	movq	.refptr.__gcov_time_profiler_counter(%rip), %rdx
	movq	(%rdx), %rax
	addq	$1, %rax
	movq	%rax, __gcov7._ZNSt7__cxx1112basic_stringIcSt11char_traitsIcESaIcEE6appendEPKcy(%rip)
	movq	%rax, (%rdx)
	jmp	.L123
.L128:
	leaq	.LC0(%rip), %rcx
	addq	$1, __gcov0._ZNSt7__cxx1112basic_stringIcSt11char_traitsIcESaIcEE6appendEPKcy(%rip)
	call	_ZSt20__throw_length_errorPKc
	nop
	.seh_endproc
	.p2align 4
	.globl	_ZStplIcSt11char_traitsIcESaIcEENSt7__cxx1112basic_stringIT_T0_T1_EEOS8_PKS5_
	.def	_ZStplIcSt11char_traitsIcESaIcEENSt7__cxx1112basic_stringIT_T0_T1_EEOS8_PKS5_;	.scl	2;	.type	32;	.endef
	.seh_proc	_ZStplIcSt11char_traitsIcESaIcEENSt7__cxx1112basic_stringIT_T0_T1_EEOS8_PKS5_
_ZStplIcSt11char_traitsIcESaIcEENSt7__cxx1112basic_stringIT_T0_T1_EEOS8_PKS5_:
	pushq	%r14
	.seh_pushreg	%r14
	pushq	%r13
	.seh_pushreg	%r13
	pushq	%r12
	.seh_pushreg	%r12
	subq	$32, %rsp
	.seh_stackalloc	32
	.seh_endprologue
	movq	.refptr.__gcov_indirect_call(%rip), %rax
	cmpq	$0, (%rax)
	movq	%rcx, %r12
	movq	%rdx, %r13
	movq	%r8, %r14
	jne	.L136
.L130:
	addq	$1, __gcov0._ZStplIcSt11char_traitsIcESaIcEENSt7__cxx1112basic_stringIT_T0_T1_EEOS8_PKS5_.lto_priv.0(%rip)
	cmpq	$0, __gcov7._ZStplIcSt11char_traitsIcESaIcEENSt7__cxx1112basic_stringIT_T0_T1_EEOS8_PKS5_.lto_priv.0(%rip)
	je	.L137
.L131:
	cmpq	$0, __gcov7._ZNSt7__cxx1112basic_stringIcSt11char_traitsIcESaIcEE6appendEPKc.lto_priv.0(%rip)
	je	.L138
.L132:
	movq	%r14, %rcx
	call	strlen
	movq	%rax, %r8
	movabsq	$4611686018427387903, %rax
	subq	8(%r13), %rax
	cmpq	%rax, %r8
	ja	.L139
	movq	%r14, %rdx
	movq	%r13, %rcx
	addq	$1, 8+__gcov0._ZNSt7__cxx1112basic_stringIcSt11char_traitsIcESaIcEE6appendEPKc.lto_priv.0(%rip)
	call	_ZNSt7__cxx1112basic_stringIcSt11char_traitsIcESaIcEE9_M_appendEPKcy
	leaq	16(%r12), %rdx
	addq	$1, 16+__gcov0._ZNSt7__cxx1112basic_stringIcSt11char_traitsIcESaIcEE6appendEPKc.lto_priv.0(%rip)
	movq	%rdx, (%r12)
	movq	(%rax), %rcx
	leaq	16(%rax), %rdx
	cmpq	%rdx, %rcx
	je	.L140
	movq	%rcx, (%r12)
	movq	16(%rax), %rcx
	addq	$1, 16+__gcov0._ZStplIcSt11char_traitsIcESaIcEENSt7__cxx1112basic_stringIT_T0_T1_EEOS8_PKS5_.lto_priv.0(%rip)
	movq	%rcx, 16(%r12)
.L135:
	movq	8(%rax), %rcx
	movq	%rdx, (%rax)
	movq	$0, 8(%rax)
	movq	%rcx, 8(%r12)
	movb	$0, 16(%rax)
	movq	%r12, %rax
	addq	$32, %rsp
	popq	%r12
	popq	%r13
	popq	%r14
	ret
	.p2align 4,,10
	.p2align 3
.L140:
	vmovdqu	16(%rax), %xmm0
	addq	$1, 8+__gcov0._ZStplIcSt11char_traitsIcESaIcEENSt7__cxx1112basic_stringIT_T0_T1_EEOS8_PKS5_.lto_priv.0(%rip)
	vmovdqu	%xmm0, 16(%r12)
	jmp	.L135
	.p2align 4,,10
	.p2align 3
.L138:
	movq	.refptr.__gcov_time_profiler_counter(%rip), %rdx
	movq	(%rdx), %rax
	addq	$1, %rax
	movq	%rax, __gcov7._ZNSt7__cxx1112basic_stringIcSt11char_traitsIcESaIcEE6appendEPKc.lto_priv.0(%rip)
	movq	%rax, (%rdx)
	jmp	.L132
	.p2align 4,,10
	.p2align 3
.L136:
	leaq	_ZStplIcSt11char_traitsIcESaIcEENSt7__cxx1112basic_stringIT_T0_T1_EEOS8_PKS5_(%rip), %rdx
	movl	$1637558383, %ecx
	call	__gcov_indirect_call_profiler_v4
	jmp	.L130
	.p2align 4,,10
	.p2align 3
.L137:
	movq	.refptr.__gcov_time_profiler_counter(%rip), %rdx
	movq	(%rdx), %rax
	addq	$1, %rax
	movq	%rax, __gcov7._ZStplIcSt11char_traitsIcESaIcEENSt7__cxx1112basic_stringIT_T0_T1_EEOS8_PKS5_.lto_priv.0(%rip)
	movq	%rax, (%rdx)
	jmp	.L131
.L139:
	leaq	.LC0(%rip), %rcx
	addq	$1, __gcov0._ZNSt7__cxx1112basic_stringIcSt11char_traitsIcESaIcEE6appendEPKc.lto_priv.0(%rip)
	call	_ZSt20__throw_length_errorPKc
	nop
	.seh_endproc
	.align 2
	.p2align 4
	.def	_ZNKSt6vectorINSt7__cxx1112basic_stringIcSt11char_traitsIcESaIcEEESaIS5_EE12_M_check_lenEyPKc;	.scl	3;	.type	32;	.endef
	.seh_proc	_ZNKSt6vectorINSt7__cxx1112basic_stringIcSt11char_traitsIcESaIcEEESaIS5_EE12_M_check_lenEyPKc
_ZNKSt6vectorINSt7__cxx1112basic_stringIcSt11char_traitsIcESaIcEEESaIS5_EE12_M_check_lenEyPKc:
	pushq	%r12
	.seh_pushreg	%r12
	pushq	%rsi
	.seh_pushreg	%rsi
	pushq	%rbx
	.seh_pushreg	%rbx
	subq	$32, %rsp
	.seh_stackalloc	32
	.seh_endprologue
	movq	.refptr.__gcov_indirect_call(%rip), %rax
	cmpq	$0, (%rax)
	movq	%rcx, %rsi
	movq	%rdx, %rbx
	movq	%r8, %r12
	je	.L142
	leaq	_ZNKSt6vectorINSt7__cxx1112basic_stringIcSt11char_traitsIcESaIcEEESaIS5_EE12_M_check_lenEyPKc(%rip), %rdx
	movl	$1858249242, %ecx
	call	__gcov_indirect_call_profiler_v4
.L142:
	cmpq	$0, __gcov7._ZNKSt6vectorINSt7__cxx1112basic_stringIcSt11char_traitsIcESaIcEEESaIS5_EE12_M_check_lenEyPKc(%rip)
	jne	.L143
	movq	.refptr.__gcov_time_profiler_counter(%rip), %rdx
	movq	(%rdx), %rax
	addq	$1, %rax
	movq	%rax, __gcov7._ZNKSt6vectorINSt7__cxx1112basic_stringIcSt11char_traitsIcESaIcEEESaIS5_EE12_M_check_lenEyPKc(%rip)
	movq	%rax, (%rdx)
.L143:
	movabsq	$288230376151711743, %rdx
	movq	8(%rsi), %rax
	subq	(%rsi), %rax
	sarq	$5, %rax
	subq	%rax, %rdx
	cmpq	%rbx, %rdx
	jb	.L151
	cmpq	%rbx, %rax
	jb	.L152
	movq	%rax, %rbx
.L145:
	addq	%rbx, %rax
	jc	.L147
	movabsq	$288230376151711743, %rdx
	addq	$1, 24+__gcov0._ZNKSt6vectorINSt7__cxx1112basic_stringIcSt11char_traitsIcESaIcEEESaIS5_EE12_M_check_lenEyPKc(%rip)
	cmpq	%rdx, %rax
	cmova	%rdx, %rax
.L141:
	addq	$32, %rsp
	popq	%rbx
	popq	%rsi
	popq	%r12
	ret
	.p2align 4,,10
	.p2align 3
.L152:
	addq	$1, 8+__gcov0._ZNKSt6vectorINSt7__cxx1112basic_stringIcSt11char_traitsIcESaIcEEESaIS5_EE12_M_check_lenEyPKc(%rip)
	jmp	.L145
.L147:
	addq	$1, 16+__gcov0._ZNKSt6vectorINSt7__cxx1112basic_stringIcSt11char_traitsIcESaIcEEESaIS5_EE12_M_check_lenEyPKc(%rip)
	movabsq	$288230376151711743, %rax
	jmp	.L141
.L151:
	movq	%r12, %rcx
	addq	$1, __gcov0._ZNKSt6vectorINSt7__cxx1112basic_stringIcSt11char_traitsIcESaIcEEESaIS5_EE12_M_check_lenEyPKc(%rip)
	call	_ZSt20__throw_length_errorPKc
	nop
	.seh_endproc
	.align 2
	.p2align 4
	.globl	_ZN9__gnu_cxx13new_allocatorINSt7__cxx1112basic_stringIcSt11char_traitsIcESaIcEEEE8allocateEyPKv
	.def	_ZN9__gnu_cxx13new_allocatorINSt7__cxx1112basic_stringIcSt11char_traitsIcESaIcEEEE8allocateEyPKv;	.scl	2;	.type	32;	.endef
	.seh_proc	_ZN9__gnu_cxx13new_allocatorINSt7__cxx1112basic_stringIcSt11char_traitsIcESaIcEEEE8allocateEyPKv
_ZN9__gnu_cxx13new_allocatorINSt7__cxx1112basic_stringIcSt11char_traitsIcESaIcEEEE8allocateEyPKv:
	pushq	%rbx
	.seh_pushreg	%rbx
	subq	$32, %rsp
	.seh_stackalloc	32
	.seh_endprologue
	movq	.refptr.__gcov_indirect_call(%rip), %rax
	cmpq	$0, (%rax)
	movq	%rdx, %rbx
	je	.L154
	leaq	_ZN9__gnu_cxx13new_allocatorINSt7__cxx1112basic_stringIcSt11char_traitsIcESaIcEEEE8allocateEyPKv(%rip), %rdx
	movl	$774033910, %ecx
	call	__gcov_indirect_call_profiler_v4
.L154:
	cmpq	$0, __gcov7._ZN9__gnu_cxx13new_allocatorINSt7__cxx1112basic_stringIcSt11char_traitsIcESaIcEEEE8allocateEyPKv.lto_priv.0(%rip)
	jne	.L155
	movq	.refptr.__gcov_time_profiler_counter(%rip), %rdx
	movq	(%rdx), %rax
	addq	$1, %rax
	movq	%rax, __gcov7._ZN9__gnu_cxx13new_allocatorINSt7__cxx1112basic_stringIcSt11char_traitsIcESaIcEEEE8allocateEyPKv.lto_priv.0(%rip)
	movq	%rax, (%rdx)
.L155:
	movq	%rbx, %rax
	shrq	$58, %rax
	jne	.L158
	salq	$5, %rbx
	addq	$1, __gcov0._ZN9__gnu_cxx13new_allocatorINSt7__cxx1112basic_stringIcSt11char_traitsIcESaIcEEEE8allocateEyPKv.lto_priv.0(%rip)
	movq	%rbx, %rcx
	call	_Znwy
	addq	$1, 24+__gcov0._ZN9__gnu_cxx13new_allocatorINSt7__cxx1112basic_stringIcSt11char_traitsIcESaIcEEEE8allocateEyPKv.lto_priv.0(%rip)
	addq	$32, %rsp
	popq	%rbx
	ret
	.p2align 4,,10
	.p2align 3
.L158:
	shrq	$59, %rbx
	je	.L157
	addq	$1, 8+__gcov0._ZN9__gnu_cxx13new_allocatorINSt7__cxx1112basic_stringIcSt11char_traitsIcESaIcEEEE8allocateEyPKv.lto_priv.0(%rip)
	call	_ZSt28__throw_bad_array_new_lengthv
	.p2align 4,,10
	.p2align 3
.L157:
	addq	$1, 16+__gcov0._ZN9__gnu_cxx13new_allocatorINSt7__cxx1112basic_stringIcSt11char_traitsIcESaIcEEEE8allocateEyPKv.lto_priv.0(%rip)
	call	_ZSt17__throw_bad_allocv
	nop
	.seh_endproc
	.align 2
	.p2align 4
	.def	_ZNSt6vectorINSt7__cxx1112basic_stringIcSt11char_traitsIcESaIcEEESaIS5_EEaSERKS7_;	.scl	3;	.type	32;	.endef
	.seh_proc	_ZNSt6vectorINSt7__cxx1112basic_stringIcSt11char_traitsIcESaIcEEESaIS5_EEaSERKS7_
_ZNSt6vectorINSt7__cxx1112basic_stringIcSt11char_traitsIcESaIcEEESaIS5_EEaSERKS7_:
	pushq	%r15
	.seh_pushreg	%r15
	pushq	%r14
	.seh_pushreg	%r14
	pushq	%r13
	.seh_pushreg	%r13
	pushq	%r12
	.seh_pushreg	%r12
	pushq	%rbp
	.seh_pushreg	%rbp
	pushq	%rdi
	.seh_pushreg	%rdi
	pushq	%rsi
	.seh_pushreg	%rsi
	pushq	%rbx
	.seh_pushreg	%rbx
	subq	$40, %rsp
	.seh_stackalloc	40
	.seh_endprologue
	movq	.refptr.__gcov_indirect_call(%rip), %rax
	cmpq	$0, (%rax)
	movq	%rcx, %r12
	movq	%rdx, %r15
	jne	.L228
.L160:
	cmpq	$0, __gcov7._ZNSt6vectorINSt7__cxx1112basic_stringIcSt11char_traitsIcESaIcEEESaIS5_EEaSERKS7_(%rip)
	je	.L229
.L161:
	cmpq	%r12, %r15
	je	.L230
	movq	8(%r15), %r13
	movq	(%r15), %rbx
	movq	(%r12), %rsi
	movq	16(%r12), %rax
	movq	%r13, %rdi
	subq	%rbx, %rdi
	subq	%rsi, %rax
	cmpq	%rax, %rdi
	ja	.L231
	movq	8(%r12), %rbp
	movq	%rbp, %rdx
	subq	%rsi, %rdx
	cmpq	%rdx, %rdi
	jbe	.L189
	movq	%rdx, %r14
	addq	$1, 56+__gcov0._ZNSt6vectorINSt7__cxx1112basic_stringIcSt11char_traitsIcESaIcEEESaIS5_EEaSERKS7_(%rip)
	sarq	$5, %r14
	testq	%rdx, %rdx
	jle	.L191
	.p2align 4,,10
	.p2align 3
.L201:
	movq	%rbx, %rdx
	movq	%rsi, %rcx
	addq	$32, %rbx
	addq	$32, %rsi
	call	_ZNSt7__cxx1112basic_stringIcSt11char_traitsIcESaIcEE9_M_assignERKS4_
	addq	$1, 88+__gcov0._ZNSt6vectorINSt7__cxx1112basic_stringIcSt11char_traitsIcESaIcEEESaIS5_EEaSERKS7_(%rip)
	subq	$1, %r14
	jne	.L201
	movq	8(%r12), %rbp
	movq	8(%r15), %r13
	movq	(%r15), %rbx
	movq	%rbp, %rdx
	subq	(%r12), %rdx
.L191:
	movq	.refptr.__gcov_indirect_call(%rip), %rax
	addq	$1, 96+__gcov0._ZNSt6vectorINSt7__cxx1112basic_stringIcSt11char_traitsIcESaIcEEESaIS5_EEaSERKS7_(%rip)
	addq	%rdx, %rbx
	cmpq	$0, (%rax)
	jne	.L232
.L202:
	addq	$1, __gcov0._ZNSt20__uninitialized_copyILb0EE13__uninit_copyIPNSt7__cxx1112basic_stringIcSt11char_traitsIcESaIcEEES8_EET0_T_SA_S9_(%rip)
	cmpq	$0, __gcov7._ZNSt20__uninitialized_copyILb0EE13__uninit_copyIPNSt7__cxx1112basic_stringIcSt11char_traitsIcESaIcEEES8_EET0_T_SA_S9_(%rip)
	jne	.L227
	movq	.refptr.__gcov_time_profiler_counter(%rip), %rcx
	movq	(%rcx), %rax
	leaq	1(%rax), %rdx
	movq	%rdx, __gcov7._ZNSt20__uninitialized_copyILb0EE13__uninit_copyIPNSt7__cxx1112basic_stringIcSt11char_traitsIcESaIcEEES8_EET0_T_SA_S9_(%rip)
	movq	%rdx, (%rcx)
	jmp	.L227
	.p2align 4,,10
	.p2align 3
.L231:
	movq	.refptr.__gcov_indirect_call(%rip), %rax
	addq	$1, 8+__gcov0._ZNSt6vectorINSt7__cxx1112basic_stringIcSt11char_traitsIcESaIcEEESaIS5_EEaSERKS7_(%rip)
	movq	(%rax), %rax
	testq	%rax, %rax
	jne	.L233
.L165:
	cmpq	$0, __gcov7._ZNSt6vectorINSt7__cxx1112basic_stringIcSt11char_traitsIcESaIcEEESaIS5_EE20_M_allocate_and_copyIN9__gnu_cxx17__normal_iteratorIPKS5_S7_EEEEPS5_yT_SF_(%rip)
	je	.L234
.L166:
	testq	%rdi, %rdi
	je	.L235
	addq	$1, __gcov0._ZNSt6vectorINSt7__cxx1112basic_stringIcSt11char_traitsIcESaIcEEESaIS5_EE20_M_allocate_and_copyIN9__gnu_cxx17__normal_iteratorIPKS5_S7_EEEEPS5_yT_SF_(%rip)
	testq	%rax, %rax
	jne	.L236
.L169:
	cmpq	$0, __gcov7._ZN9__gnu_cxx13new_allocatorINSt7__cxx1112basic_stringIcSt11char_traitsIcESaIcEEEE8allocateEyPKv.lto_priv.0(%rip)
	je	.L237
.L170:
	movabsq	$9223372036854775776, %rax
	cmpq	%rax, %rdi
	ja	.L238
	movq	%rdi, %rcx
	addq	$1, __gcov0._ZN9__gnu_cxx13new_allocatorINSt7__cxx1112basic_stringIcSt11char_traitsIcESaIcEEEE8allocateEyPKv.lto_priv.0(%rip)
	call	_Znwy
	addq	$1, 24+__gcov0._ZN9__gnu_cxx13new_allocatorINSt7__cxx1112basic_stringIcSt11char_traitsIcESaIcEEEE8allocateEyPKv.lto_priv.0(%rip)
	movq	%rax, %rsi
	addq	$1, 16+__gcov0._ZNSt6vectorINSt7__cxx1112basic_stringIcSt11char_traitsIcESaIcEEESaIS5_EE20_M_allocate_and_copyIN9__gnu_cxx17__normal_iteratorIPKS5_S7_EEEEPS5_yT_SF_(%rip)
	movq	.refptr.__gcov_indirect_call(%rip), %rax
	movq	(%rax), %rax
.L168:
	testq	%rax, %rax
	jne	.L239
.L173:
	addq	$1, __gcov0._ZNSt20__uninitialized_copyILb0EE13__uninit_copyIN9__gnu_cxx17__normal_iteratorIPKNSt7__cxx1112basic_stringIcSt11char_traitsIcESaIcEEESt6vectorIS9_SaIS9_EEEEPS9_EET0_T_SI_SH_(%rip)
	cmpq	$0, __gcov7._ZNSt20__uninitialized_copyILb0EE13__uninit_copyIN9__gnu_cxx17__normal_iteratorIPKNSt7__cxx1112basic_stringIcSt11char_traitsIcESaIcEEESt6vectorIS9_SaIS9_EEEEPS9_EET0_T_SI_SH_(%rip)
	je	.L240
.L174:
	movq	%rsi, %r14
	cmpq	%r13, %rbx
	je	.L179
	.p2align 4,,10
	.p2align 3
.L178:
	leaq	16(%r14), %rax
	movq	8(%rbx), %r8
	movq	%r14, %rcx
	addq	$32, %rbx
	movq	%rax, (%r14)
	movq	-32(%rbx), %rdx
	addq	$32, %r14
	addq	%rdx, %r8
	call	_ZNSt7__cxx1112basic_stringIcSt11char_traitsIcESaIcEE12_M_constructIPcEEvT_S7_St20forward_iterator_tag.constprop.0
	addq	$1, 8+__gcov0._ZNSt20__uninitialized_copyILb0EE13__uninit_copyIN9__gnu_cxx17__normal_iteratorIPKNSt7__cxx1112basic_stringIcSt11char_traitsIcESaIcEEESt6vectorIS9_SaIS9_EEEEPS9_EET0_T_SI_SH_(%rip)
	cmpq	%rbx, %r13
	jne	.L178
.L179:
	movq	.refptr.__gcov_indirect_call(%rip), %rax
	addq	$1, 16+__gcov0._ZNSt20__uninitialized_copyILb0EE13__uninit_copyIN9__gnu_cxx17__normal_iteratorIPKNSt7__cxx1112basic_stringIcSt11char_traitsIcESaIcEEESt6vectorIS9_SaIS9_EEEEPS9_EET0_T_SI_SH_(%rip)
	addq	$1, 24+__gcov0._ZNSt6vectorINSt7__cxx1112basic_stringIcSt11char_traitsIcESaIcEEESaIS5_EE20_M_allocate_and_copyIN9__gnu_cxx17__normal_iteratorIPKS5_S7_EEEEPS5_yT_SF_(%rip)
	movq	8(%r12), %r13
	addq	$1, 16+__gcov0._ZNSt6vectorINSt7__cxx1112basic_stringIcSt11char_traitsIcESaIcEEESaIS5_EEaSERKS7_(%rip)
	cmpq	$0, (%rax)
	movq	(%r12), %rbx
	jne	.L241
.L177:
	addq	$1, __gcov0._ZNSt12_Destroy_auxILb0EE9__destroyIPNSt7__cxx1112basic_stringIcSt11char_traitsIcESaIcEEEEEvT_S9_.lto_priv.0(%rip)
	cmpq	$0, __gcov7._ZNSt12_Destroy_auxILb0EE9__destroyIPNSt7__cxx1112basic_stringIcSt11char_traitsIcESaIcEEEEEvT_S9_.lto_priv.0(%rip)
	jne	.L225
	jmp	.L242
	.p2align 4,,10
	.p2align 3
.L184:
	movq	16(%rbx), %rax
	addq	$1, 8+__gcov0._ZNSt12_Destroy_auxILb0EE9__destroyIPNSt7__cxx1112basic_stringIcSt11char_traitsIcESaIcEEEEEvT_S9_.lto_priv.0(%rip)
	addq	$32, %rbx
	leaq	1(%rax), %rdx
	call	_ZdlPvy
.L225:
	cmpq	%rbx, %r13
	je	.L186
.L181:
	movq	(%rbx), %rcx
	leaq	16(%rbx), %rax
	cmpq	%rax, %rcx
	jne	.L184
	addq	$32, %rbx
	addq	$1, 16+__gcov0._ZNSt12_Destroy_auxILb0EE9__destroyIPNSt7__cxx1112basic_stringIcSt11char_traitsIcESaIcEEEEEvT_S9_.lto_priv.0(%rip)
	cmpq	%rbx, %r13
	jne	.L181
.L186:
	movq	(%r12), %rcx
	addq	$1, 24+__gcov0._ZNSt12_Destroy_auxILb0EE9__destroyIPNSt7__cxx1112basic_stringIcSt11char_traitsIcESaIcEEEEEvT_S9_.lto_priv.0(%rip)
	movq	16(%r12), %rdx
	testq	%rcx, %rcx
	je	.L243
	subq	%rcx, %rdx
	addq	$1, 24+__gcov0._ZNSt6vectorINSt7__cxx1112basic_stringIcSt11char_traitsIcESaIcEEESaIS5_EEaSERKS7_(%rip)
	call	_ZdlPvy
	addq	$1, 40+__gcov0._ZNSt6vectorINSt7__cxx1112basic_stringIcSt11char_traitsIcESaIcEEESaIS5_EEaSERKS7_(%rip)
.L187:
	addq	%rsi, %rdi
	movq	%rsi, (%r12)
	movq	%rdi, 16(%r12)
	jmp	.L188
	.p2align 4,,10
	.p2align 3
.L204:
	leaq	16(%rbp), %rdx
	movq	8(%rbx), %r8
	movq	%rbp, %rcx
	addq	$32, %rbx
	movq	%rdx, 0(%rbp)
	movq	-32(%rbx), %rdx
	addq	$32, %rbp
	addq	%rdx, %r8
	call	_ZNSt7__cxx1112basic_stringIcSt11char_traitsIcESaIcEE12_M_constructIPcEEvT_S7_St20forward_iterator_tag.constprop.0
	addq	$1, 8+__gcov0._ZNSt20__uninitialized_copyILb0EE13__uninit_copyIPNSt7__cxx1112basic_stringIcSt11char_traitsIcESaIcEEES8_EET0_T_SA_S9_(%rip)
.L227:
	cmpq	%r13, %rbx
	jne	.L204
	addq	$1, 16+__gcov0._ZNSt20__uninitialized_copyILb0EE13__uninit_copyIPNSt7__cxx1112basic_stringIcSt11char_traitsIcESaIcEEES8_EET0_T_SA_S9_(%rip)
	addq	(%r12), %rdi
	addq	$1, 104+__gcov0._ZNSt6vectorINSt7__cxx1112basic_stringIcSt11char_traitsIcESaIcEEESaIS5_EEaSERKS7_(%rip)
.L188:
	movq	%rdi, 8(%r12)
.L163:
	movq	%r12, %rax
	addq	$40, %rsp
	popq	%rbx
	popq	%rsi
	popq	%rdi
	popq	%rbp
	popq	%r12
	popq	%r13
	popq	%r14
	popq	%r15
	ret
	.p2align 4,,10
	.p2align 3
.L230:
	addq	$1, __gcov0._ZNSt6vectorINSt7__cxx1112basic_stringIcSt11char_traitsIcESaIcEEESaIS5_EEaSERKS7_(%rip)
	jmp	.L163
	.p2align 4,,10
	.p2align 3
.L189:
	addq	$1, 48+__gcov0._ZNSt6vectorINSt7__cxx1112basic_stringIcSt11char_traitsIcESaIcEEESaIS5_EEaSERKS7_(%rip)
	testq	%rdi, %rdi
	jle	.L192
	movq	%rdi, %r14
	movq	%rsi, %r13
	sarq	$5, %r14
	.p2align 4,,10
	.p2align 3
.L193:
	movq	%rbx, %rdx
	movq	%r13, %rcx
	addq	$32, %rbx
	addq	$32, %r13
	call	_ZNSt7__cxx1112basic_stringIcSt11char_traitsIcESaIcEE9_M_assignERKS4_
	addq	$1, 64+__gcov0._ZNSt6vectorINSt7__cxx1112basic_stringIcSt11char_traitsIcESaIcEEESaIS5_EEaSERKS7_(%rip)
	subq	$1, %r14
	jne	.L193
	testq	%rdi, %rdi
	movl	$32, %edx
	cmovg	%rdi, %rdx
	addq	%rdx, %rsi
.L192:
	movq	.refptr.__gcov_indirect_call(%rip), %rax
	addq	$1, 72+__gcov0._ZNSt6vectorINSt7__cxx1112basic_stringIcSt11char_traitsIcESaIcEEESaIS5_EEaSERKS7_(%rip)
	cmpq	$0, (%rax)
	jne	.L244
.L194:
	addq	$1, __gcov0._ZNSt12_Destroy_auxILb0EE9__destroyIN9__gnu_cxx17__normal_iteratorIPNSt7__cxx1112basic_stringIcSt11char_traitsIcESaIcEEESt6vectorIS9_SaIS9_EEEEEEvT_SF_(%rip)
	cmpq	$0, __gcov7._ZNSt12_Destroy_auxILb0EE9__destroyIN9__gnu_cxx17__normal_iteratorIPNSt7__cxx1112basic_stringIcSt11char_traitsIcESaIcEEESt6vectorIS9_SaIS9_EEEEEEvT_SF_(%rip)
	jne	.L226
	movq	.refptr.__gcov_time_profiler_counter(%rip), %rcx
	movq	(%rcx), %rax
	leaq	1(%rax), %rdx
	movq	%rdx, __gcov7._ZNSt12_Destroy_auxILb0EE9__destroyIN9__gnu_cxx17__normal_iteratorIPNSt7__cxx1112basic_stringIcSt11char_traitsIcESaIcEEESt6vectorIS9_SaIS9_EEEEEEvT_SF_(%rip)
	movq	%rdx, (%rcx)
	jmp	.L226
	.p2align 4,,10
	.p2align 3
.L197:
	movq	16(%rsi), %rax
	addq	$1, 8+__gcov0._ZNSt12_Destroy_auxILb0EE9__destroyIN9__gnu_cxx17__normal_iteratorIPNSt7__cxx1112basic_stringIcSt11char_traitsIcESaIcEEESt6vectorIS9_SaIS9_EEEEEEvT_SF_(%rip)
	addq	$32, %rsi
	leaq	1(%rax), %rdx
	call	_ZdlPvy
.L226:
	cmpq	%rsi, %rbp
	je	.L199
.L200:
	movq	(%rsi), %rcx
	leaq	16(%rsi), %rdx
	cmpq	%rdx, %rcx
	jne	.L197
	addq	$32, %rsi
	addq	$1, 16+__gcov0._ZNSt12_Destroy_auxILb0EE9__destroyIN9__gnu_cxx17__normal_iteratorIPNSt7__cxx1112basic_stringIcSt11char_traitsIcESaIcEEESt6vectorIS9_SaIS9_EEEEEEvT_SF_(%rip)
	cmpq	%rsi, %rbp
	jne	.L200
.L199:
	addq	$1, 24+__gcov0._ZNSt12_Destroy_auxILb0EE9__destroyIN9__gnu_cxx17__normal_iteratorIPNSt7__cxx1112basic_stringIcSt11char_traitsIcESaIcEEESt6vectorIS9_SaIS9_EEEEEEvT_SF_(%rip)
	addq	(%r12), %rdi
	addq	$1, 80+__gcov0._ZNSt6vectorINSt7__cxx1112basic_stringIcSt11char_traitsIcESaIcEEESaIS5_EEaSERKS7_(%rip)
	jmp	.L188
	.p2align 4,,10
	.p2align 3
.L235:
	addq	$1, 8+__gcov0._ZNSt6vectorINSt7__cxx1112basic_stringIcSt11char_traitsIcESaIcEEESaIS5_EE20_M_allocate_and_copyIN9__gnu_cxx17__normal_iteratorIPKS5_S7_EEEEPS5_yT_SF_(%rip)
	xorl	%esi, %esi
	jmp	.L168
	.p2align 4,,10
	.p2align 3
.L229:
	movq	.refptr.__gcov_time_profiler_counter(%rip), %rdx
	movq	(%rdx), %rax
	addq	$1, %rax
	movq	%rax, __gcov7._ZNSt6vectorINSt7__cxx1112basic_stringIcSt11char_traitsIcESaIcEEESaIS5_EEaSERKS7_(%rip)
	movq	%rax, (%rdx)
	jmp	.L161
	.p2align 4,,10
	.p2align 3
.L228:
	leaq	_ZNSt6vectorINSt7__cxx1112basic_stringIcSt11char_traitsIcESaIcEEESaIS5_EEaSERKS7_(%rip), %rdx
	movl	$20619201, %ecx
	call	__gcov_indirect_call_profiler_v4
	jmp	.L160
	.p2align 4,,10
	.p2align 3
.L243:
	addq	$1, 32+__gcov0._ZNSt6vectorINSt7__cxx1112basic_stringIcSt11char_traitsIcESaIcEEESaIS5_EEaSERKS7_(%rip)
	jmp	.L187
	.p2align 4,,10
	.p2align 3
.L244:
	leaq	_ZNSt12_Destroy_auxILb0EE9__destroyIN9__gnu_cxx17__normal_iteratorIPNSt7__cxx1112basic_stringIcSt11char_traitsIcESaIcEEESt6vectorIS9_SaIS9_EEEEEEvT_SF_(%rip), %rdx
	movl	$403316767, %ecx
	call	__gcov_indirect_call_profiler_v4
	jmp	.L194
	.p2align 4,,10
	.p2align 3
.L232:
	leaq	_ZNSt20__uninitialized_copyILb0EE13__uninit_copyIPNSt7__cxx1112basic_stringIcSt11char_traitsIcESaIcEEES8_EET0_T_SA_S9_(%rip), %rdx
	movl	$1891653375, %ecx
	call	__gcov_indirect_call_profiler_v4
	jmp	.L202
	.p2align 4,,10
	.p2align 3
.L233:
	leaq	_ZNSt6vectorINSt7__cxx1112basic_stringIcSt11char_traitsIcESaIcEEESaIS5_EE20_M_allocate_and_copyIN9__gnu_cxx17__normal_iteratorIPKS5_S7_EEEEPS5_yT_SF_(%rip), %rdx
	movl	$1645280589, %ecx
	call	__gcov_indirect_call_profiler_v4
	movq	.refptr.__gcov_indirect_call(%rip), %rax
	movq	(%rax), %rax
	jmp	.L165
	.p2align 4,,10
	.p2align 3
.L234:
	movq	.refptr.__gcov_time_profiler_counter(%rip), %rcx
	movq	(%rcx), %rsi
	leaq	1(%rsi), %rdx
	movq	%rdx, __gcov7._ZNSt6vectorINSt7__cxx1112basic_stringIcSt11char_traitsIcESaIcEEESaIS5_EE20_M_allocate_and_copyIN9__gnu_cxx17__normal_iteratorIPKS5_S7_EEEEPS5_yT_SF_(%rip)
	movq	%rdx, (%rcx)
	jmp	.L166
	.p2align 4,,10
	.p2align 3
.L242:
	movq	.refptr.__gcov_time_profiler_counter(%rip), %rdx
	movq	(%rdx), %rax
	addq	$1, %rax
	movq	%rax, __gcov7._ZNSt12_Destroy_auxILb0EE9__destroyIPNSt7__cxx1112basic_stringIcSt11char_traitsIcESaIcEEEEEvT_S9_.lto_priv.0(%rip)
	movq	%rax, (%rdx)
	jmp	.L225
	.p2align 4,,10
	.p2align 3
.L241:
	leaq	_ZNSt12_Destroy_auxILb0EE9__destroyIPNSt7__cxx1112basic_stringIcSt11char_traitsIcESaIcEEEEEvT_S9_(%rip), %rdx
	movl	$32020916, %ecx
	call	__gcov_indirect_call_profiler_v4
	jmp	.L177
	.p2align 4,,10
	.p2align 3
.L240:
	movq	.refptr.__gcov_time_profiler_counter(%rip), %rdx
	movq	(%rdx), %rax
	addq	$1, %rax
	movq	%rax, __gcov7._ZNSt20__uninitialized_copyILb0EE13__uninit_copyIN9__gnu_cxx17__normal_iteratorIPKNSt7__cxx1112basic_stringIcSt11char_traitsIcESaIcEEESt6vectorIS9_SaIS9_EEEEPS9_EET0_T_SI_SH_(%rip)
	movq	%rax, (%rdx)
	jmp	.L174
	.p2align 4,,10
	.p2align 3
.L239:
	leaq	_ZNSt20__uninitialized_copyILb0EE13__uninit_copyIN9__gnu_cxx17__normal_iteratorIPKNSt7__cxx1112basic_stringIcSt11char_traitsIcESaIcEEESt6vectorIS9_SaIS9_EEEEPS9_EET0_T_SI_SH_(%rip), %rdx
	movl	$119295020, %ecx
	call	__gcov_indirect_call_profiler_v4
	jmp	.L173
	.p2align 4,,10
	.p2align 3
.L236:
	leaq	_ZN9__gnu_cxx13new_allocatorINSt7__cxx1112basic_stringIcSt11char_traitsIcESaIcEEEE8allocateEyPKv(%rip), %rdx
	movl	$774033910, %ecx
	call	__gcov_indirect_call_profiler_v4
	jmp	.L169
	.p2align 4,,10
	.p2align 3
.L237:
	movq	.refptr.__gcov_time_profiler_counter(%rip), %rdx
	movq	(%rdx), %rax
	addq	$1, %rax
	movq	%rax, __gcov7._ZN9__gnu_cxx13new_allocatorINSt7__cxx1112basic_stringIcSt11char_traitsIcESaIcEEEE8allocateEyPKv.lto_priv.0(%rip)
	movq	%rax, (%rdx)
	jmp	.L170
.L238:
	testq	%rdi, %rdi
	jns	.L172
	addq	$1, 8+__gcov0._ZN9__gnu_cxx13new_allocatorINSt7__cxx1112basic_stringIcSt11char_traitsIcESaIcEEEE8allocateEyPKv.lto_priv.0(%rip)
	call	_ZSt28__throw_bad_array_new_lengthv
.L172:
	addq	$1, 16+__gcov0._ZN9__gnu_cxx13new_allocatorINSt7__cxx1112basic_stringIcSt11char_traitsIcESaIcEEEE8allocateEyPKv.lto_priv.0(%rip)
	call	_ZSt17__throw_bad_allocv
	nop
	.seh_endproc
	.section .rdata,"dr"
.LC1:
	.ascii "vector::_M_realloc_insert\0"
	.text
	.align 2
	.p2align 4
	.def	_ZNSt6vectorINSt7__cxx1112basic_stringIcSt11char_traitsIcESaIcEEESaIS5_EE17_M_realloc_insertIJRKS5_EEEvN9__gnu_cxx17__normal_iteratorIPS5_S7_EEDpOT_;	.scl	3;	.type	32;	.endef
	.seh_proc	_ZNSt6vectorINSt7__cxx1112basic_stringIcSt11char_traitsIcESaIcEEESaIS5_EE17_M_realloc_insertIJRKS5_EEEvN9__gnu_cxx17__normal_iteratorIPS5_S7_EEDpOT_
_ZNSt6vectorINSt7__cxx1112basic_stringIcSt11char_traitsIcESaIcEEESaIS5_EE17_M_realloc_insertIJRKS5_EEEvN9__gnu_cxx17__normal_iteratorIPS5_S7_EEDpOT_:
	pushq	%r15
	.seh_pushreg	%r15
	pushq	%r14
	.seh_pushreg	%r14
	pushq	%r13
	.seh_pushreg	%r13
	pushq	%r12
	.seh_pushreg	%r12
	pushq	%rbp
	.seh_pushreg	%rbp
	pushq	%rdi
	.seh_pushreg	%rdi
	pushq	%rsi
	.seh_pushreg	%rsi
	pushq	%rbx
	.seh_pushreg	%rbx
	subq	$72, %rsp
	.seh_stackalloc	72
	vmovups	%xmm6, 48(%rsp)
	.seh_savexmm	%xmm6, 48
	.seh_endprologue
	movq	.refptr.__gcov_indirect_call(%rip), %r14
	movq	(%r14), %rax
	movq	%rcx, %r12
	movq	%rdx, %rbp
	movq	%r8, %r15
	testq	%rax, %rax
	jne	.L279
	addq	$1, __gcov0._ZNSt6vectorINSt7__cxx1112basic_stringIcSt11char_traitsIcESaIcEEESaIS5_EE17_M_realloc_insertIJRKS5_EEEvN9__gnu_cxx17__normal_iteratorIPS5_S7_EEDpOT_(%rip)
	cmpq	$0, __gcov7._ZNSt6vectorINSt7__cxx1112basic_stringIcSt11char_traitsIcESaIcEEESaIS5_EE17_M_realloc_insertIJRKS5_EEEvN9__gnu_cxx17__normal_iteratorIPS5_S7_EEDpOT_(%rip)
	movq	%rdx, %rbx
	je	.L270
.L248:
	cmpq	$0, __gcov7._ZNKSt6vectorINSt7__cxx1112basic_stringIcSt11char_traitsIcESaIcEEESaIS5_EE12_M_check_lenEyPKc(%rip)
	je	.L280
.L249:
	movq	8(%r12), %rsi
	movq	(%r12), %r13
	movabsq	$288230376151711743, %rdx
	movq	%rsi, %rax
	subq	%r13, %rax
	sarq	$5, %rax
	cmpq	%rdx, %rax
	je	.L281
	movq	%rbp, %rdi
	subq	%r13, %rdi
	movq	%rdi, 32(%rsp)
	testq	%rax, %rax
	je	.L282
	leaq	(%rax,%rax), %rdx
	cmpq	%rdx, %rax
	jbe	.L253
	addq	$1, 16+__gcov0._ZNKSt6vectorINSt7__cxx1112basic_stringIcSt11char_traitsIcESaIcEEESaIS5_EE12_M_check_lenEyPKc(%rip)
	movabsq	$9223372036854775776, %rdi
.L254:
	addq	$1, 8+__gcov0._ZNSt6vectorINSt7__cxx1112basic_stringIcSt11char_traitsIcESaIcEEESaIS5_EE17_M_realloc_insertIJRKS5_EEEvN9__gnu_cxx17__normal_iteratorIPS5_S7_EEDpOT_(%rip)
	cmpq	$0, (%r14)
	jne	.L283
	cmpq	$0, __gcov7._ZN9__gnu_cxx13new_allocatorINSt7__cxx1112basic_stringIcSt11char_traitsIcESaIcEEEE8allocateEyPKv.lto_priv.0(%rip)
	je	.L284
.L256:
	movq	%rdi, %rcx
	addq	$1, __gcov0._ZN9__gnu_cxx13new_allocatorINSt7__cxx1112basic_stringIcSt11char_traitsIcESaIcEEEE8allocateEyPKv.lto_priv.0(%rip)
	call	_Znwy
	movq	32(%rsp), %rcx
	movq	(%r15), %rdx
	movq	%rax, %r14
	leaq	(%rax,%rdi), %rax
	movq	8(%r15), %r8
	addq	$1, 24+__gcov0._ZN9__gnu_cxx13new_allocatorINSt7__cxx1112basic_stringIcSt11char_traitsIcESaIcEEEE8allocateEyPKv.lto_priv.0(%rip)
	addq	%r14, %rcx
	movq	%rax, 40(%rsp)
	leaq	32(%r14), %rdi
	leaq	16(%rcx), %rax
	addq	%rdx, %r8
	addq	$1, 24+__gcov0._ZNSt6vectorINSt7__cxx1112basic_stringIcSt11char_traitsIcESaIcEEESaIS5_EE17_M_realloc_insertIJRKS5_EEEvN9__gnu_cxx17__normal_iteratorIPS5_S7_EEDpOT_(%rip)
	movq	%rax, (%rcx)
	call	_ZNSt7__cxx1112basic_stringIcSt11char_traitsIcESaIcEE12_M_constructIPcEEvT_S7_St20forward_iterator_tag.constprop.0
	cmpq	%rbp, %r13
	je	.L269
	movq	%rbp, %r9
	movq	%r13, %rdx
	movq	%r14, %rax
	subq	%r13, %r9
	addq	%r14, %r9
	jmp	.L260
	.p2align 4,,10
	.p2align 3
.L257:
	movq	%rcx, (%rax)
	movq	16(%rdx), %rcx
	addq	$1, 40+__gcov0._ZNSt6vectorINSt7__cxx1112basic_stringIcSt11char_traitsIcESaIcEEESaIS5_EE17_M_realloc_insertIJRKS5_EEEvN9__gnu_cxx17__normal_iteratorIPS5_S7_EEDpOT_(%rip)
	movq	%rcx, 16(%rax)
.L278:
	movq	8(%rdx), %rcx
	addq	$32, %rax
	addq	$32, %rdx
	movq	%rcx, -24(%rax)
	cmpq	%r9, %rax
	je	.L285
.L260:
	leaq	16(%rax), %rcx
	leaq	16(%rdx), %r8
	movq	%rcx, (%rax)
	movq	(%rdx), %rcx
	cmpq	%r8, %rcx
	jne	.L257
	vmovdqu	16(%rdx), %xmm0
	addq	$1, 32+__gcov0._ZNSt6vectorINSt7__cxx1112basic_stringIcSt11char_traitsIcESaIcEEESaIS5_EE17_M_realloc_insertIJRKS5_EEEvN9__gnu_cxx17__normal_iteratorIPS5_S7_EEDpOT_(%rip)
	vmovdqu	%xmm0, 16(%rax)
	jmp	.L278
	.p2align 4,,10
	.p2align 3
.L253:
	addq	$1, 24+__gcov0._ZNKSt6vectorINSt7__cxx1112basic_stringIcSt11char_traitsIcESaIcEEESaIS5_EE12_M_check_lenEyPKc(%rip)
.L252:
	movabsq	$288230376151711743, %rax
	cmpq	%rax, %rdx
	cmovbe	%rdx, %rax
	movq	%rax, %rdi
	salq	$5, %rdi
	jmp	.L254
	.p2align 4,,10
	.p2align 3
.L285:
	leaq	32(%r9), %rdi
.L269:
	cmpq	%rbp, %rsi
	je	.L261
	movq	%rsi, %r8
	movq	%rdi, %rax
	subq	%rbp, %r8
	.p2align 4,,10
	.p2align 3
.L265:
	leaq	16(%rax), %rdx
	leaq	16(%rbx), %rcx
	movq	%rdx, (%rax)
	movq	(%rbx), %rdx
	cmpq	%rcx, %rdx
	je	.L286
	movq	%rdx, (%rax)
	movq	16(%rbx), %rdx
	addq	$32, %rbx
	addq	$32, %rax
	addq	$1, 56+__gcov0._ZNSt6vectorINSt7__cxx1112basic_stringIcSt11char_traitsIcESaIcEEESaIS5_EE17_M_realloc_insertIJRKS5_EEEvN9__gnu_cxx17__normal_iteratorIPS5_S7_EEDpOT_(%rip)
	movq	%rdx, -16(%rax)
	movq	-24(%rbx), %rdx
	movq	%rdx, -24(%rax)
	cmpq	%rsi, %rbx
	jne	.L265
.L264:
	addq	%r8, %rdi
.L261:
	vmovq	%r14, %xmm2
	movq	16(%r12), %rdx
	vpinsrq	$1, %rdi, %xmm2, %xmm6
	testq	%r13, %r13
	je	.L287
	subq	%r13, %rdx
	movq	%r13, %rcx
	addq	$1, 64+__gcov0._ZNSt6vectorINSt7__cxx1112basic_stringIcSt11char_traitsIcESaIcEEESaIS5_EE17_M_realloc_insertIJRKS5_EEEvN9__gnu_cxx17__normal_iteratorIPS5_S7_EEDpOT_(%rip)
	call	_ZdlPvy
	addq	$1, 80+__gcov0._ZNSt6vectorINSt7__cxx1112basic_stringIcSt11char_traitsIcESaIcEEESaIS5_EE17_M_realloc_insertIJRKS5_EEEvN9__gnu_cxx17__normal_iteratorIPS5_S7_EEDpOT_(%rip)
.L267:
	movq	40(%rsp), %rax
	vmovdqu	%xmm6, (%r12)
	vmovups	48(%rsp), %xmm6
	movq	%rax, 16(%r12)
	addq	$72, %rsp
	popq	%rbx
	popq	%rsi
	popq	%rdi
	popq	%rbp
	popq	%r12
	popq	%r13
	popq	%r14
	popq	%r15
	ret
	.p2align 4,,10
	.p2align 3
.L286:
	vmovdqu	16(%rbx), %xmm1
	movq	8(%rbx), %rdx
	addq	$32, %rbx
	addq	$32, %rax
	addq	$1, 48+__gcov0._ZNSt6vectorINSt7__cxx1112basic_stringIcSt11char_traitsIcESaIcEEESaIS5_EE17_M_realloc_insertIJRKS5_EEEvN9__gnu_cxx17__normal_iteratorIPS5_S7_EEDpOT_(%rip)
	vmovdqu	%xmm1, -16(%rax)
	movq	%rdx, -24(%rax)
	cmpq	%rbx, %rsi
	jne	.L265
	jmp	.L264
	.p2align 4,,10
	.p2align 3
.L287:
	addq	$1, 72+__gcov0._ZNSt6vectorINSt7__cxx1112basic_stringIcSt11char_traitsIcESaIcEEESaIS5_EE17_M_realloc_insertIJRKS5_EEEvN9__gnu_cxx17__normal_iteratorIPS5_S7_EEDpOT_(%rip)
	jmp	.L267
	.p2align 4,,10
	.p2align 3
.L282:
	addq	$1, 8+__gcov0._ZNKSt6vectorINSt7__cxx1112basic_stringIcSt11char_traitsIcESaIcEEESaIS5_EE12_M_check_lenEyPKc(%rip)
	movl	$1, %edx
	addq	$1, 24+__gcov0._ZNKSt6vectorINSt7__cxx1112basic_stringIcSt11char_traitsIcESaIcEEESaIS5_EE12_M_check_lenEyPKc(%rip)
	jmp	.L252
	.p2align 4,,10
	.p2align 3
.L279:
	leaq	_ZNSt6vectorINSt7__cxx1112basic_stringIcSt11char_traitsIcESaIcEEESaIS5_EE17_M_realloc_insertIJRKS5_EEEvN9__gnu_cxx17__normal_iteratorIPS5_S7_EEDpOT_(%rip), %rdx
	movl	$730148385, %ecx
	call	__gcov_indirect_call_profiler_v4
	addq	$1, __gcov0._ZNSt6vectorINSt7__cxx1112basic_stringIcSt11char_traitsIcESaIcEEESaIS5_EE17_M_realloc_insertIJRKS5_EEEvN9__gnu_cxx17__normal_iteratorIPS5_S7_EEDpOT_(%rip)
	movq	(%r14), %rax
	cmpq	$0, __gcov7._ZNSt6vectorINSt7__cxx1112basic_stringIcSt11char_traitsIcESaIcEEESaIS5_EE17_M_realloc_insertIJRKS5_EEEvN9__gnu_cxx17__normal_iteratorIPS5_S7_EEDpOT_(%rip)
	je	.L270
.L247:
	movq	%rbp, %rbx
	testq	%rax, %rax
	je	.L248
	leaq	_ZNKSt6vectorINSt7__cxx1112basic_stringIcSt11char_traitsIcESaIcEEESaIS5_EE12_M_check_lenEyPKc(%rip), %rdx
	movl	$1858249242, %ecx
	call	__gcov_indirect_call_profiler_v4
	cmpq	$0, __gcov7._ZNKSt6vectorINSt7__cxx1112basic_stringIcSt11char_traitsIcESaIcEEESaIS5_EE12_M_check_lenEyPKc(%rip)
	jne	.L249
.L280:
	movq	.refptr.__gcov_time_profiler_counter(%rip), %rdx
	movq	(%rdx), %rax
	addq	$1, %rax
	movq	%rax, __gcov7._ZNKSt6vectorINSt7__cxx1112basic_stringIcSt11char_traitsIcESaIcEEESaIS5_EE12_M_check_lenEyPKc(%rip)
	movq	%rax, (%rdx)
	jmp	.L249
	.p2align 4,,10
	.p2align 3
.L270:
	movq	.refptr.__gcov_time_profiler_counter(%rip), %rcx
	movq	(%rcx), %rdi
	leaq	1(%rdi), %rdx
	movq	%rdx, __gcov7._ZNSt6vectorINSt7__cxx1112basic_stringIcSt11char_traitsIcESaIcEEESaIS5_EE17_M_realloc_insertIJRKS5_EEEvN9__gnu_cxx17__normal_iteratorIPS5_S7_EEDpOT_(%rip)
	movq	%rdx, (%rcx)
	jmp	.L247
	.p2align 4,,10
	.p2align 3
.L284:
	movq	.refptr.__gcov_time_profiler_counter(%rip), %rdx
	movq	(%rdx), %rax
	addq	$1, %rax
	movq	%rax, __gcov7._ZN9__gnu_cxx13new_allocatorINSt7__cxx1112basic_stringIcSt11char_traitsIcESaIcEEEE8allocateEyPKv.lto_priv.0(%rip)
	movq	%rax, (%rdx)
	jmp	.L256
	.p2align 4,,10
	.p2align 3
.L283:
	leaq	_ZN9__gnu_cxx13new_allocatorINSt7__cxx1112basic_stringIcSt11char_traitsIcESaIcEEEE8allocateEyPKv(%rip), %rdx
	movl	$774033910, %ecx
	call	__gcov_indirect_call_profiler_v4
	cmpq	$0, __gcov7._ZN9__gnu_cxx13new_allocatorINSt7__cxx1112basic_stringIcSt11char_traitsIcESaIcEEEE8allocateEyPKv.lto_priv.0(%rip)
	jne	.L256
	jmp	.L284
.L281:
	leaq	.LC1(%rip), %rcx
	addq	$1, __gcov0._ZNKSt6vectorINSt7__cxx1112basic_stringIcSt11char_traitsIcESaIcEEESaIS5_EE12_M_check_lenEyPKc(%rip)
	call	_ZSt20__throw_length_errorPKc
	nop
	.seh_endproc
	.align 2
	.p2align 4
	.def	_ZNSt6vectorINSt7__cxx1112basic_stringIcSt11char_traitsIcESaIcEEESaIS5_EE9push_backERKS5_;	.scl	3;	.type	32;	.endef
	.seh_proc	_ZNSt6vectorINSt7__cxx1112basic_stringIcSt11char_traitsIcESaIcEEESaIS5_EE9push_backERKS5_
_ZNSt6vectorINSt7__cxx1112basic_stringIcSt11char_traitsIcESaIcEEESaIS5_EE9push_backERKS5_:
	pushq	%r12
	.seh_pushreg	%r12
	pushq	%rbx
	.seh_pushreg	%rbx
	subq	$40, %rsp
	.seh_stackalloc	40
	.seh_endprologue
	movq	.refptr.__gcov_indirect_call(%rip), %rax
	cmpq	$0, (%rax)
	movq	%rcx, %r12
	movq	%rdx, %rbx
	je	.L289
	leaq	_ZNSt6vectorINSt7__cxx1112basic_stringIcSt11char_traitsIcESaIcEEESaIS5_EE9push_backERKS5_(%rip), %rdx
	movl	$1296707613, %ecx
	call	__gcov_indirect_call_profiler_v4
.L289:
	cmpq	$0, __gcov7._ZNSt6vectorINSt7__cxx1112basic_stringIcSt11char_traitsIcESaIcEEESaIS5_EE9push_backERKS5_(%rip)
	jne	.L290
	movq	.refptr.__gcov_time_profiler_counter(%rip), %rdx
	movq	(%rdx), %rax
	addq	$1, %rax
	movq	%rax, __gcov7._ZNSt6vectorINSt7__cxx1112basic_stringIcSt11char_traitsIcESaIcEEESaIS5_EE9push_backERKS5_(%rip)
	movq	%rax, (%rdx)
.L290:
	movq	8(%r12), %rcx
	cmpq	16(%r12), %rcx
	je	.L291
	leaq	16(%rcx), %rax
	movq	8(%rbx), %r8
	addq	$1, __gcov0._ZNSt6vectorINSt7__cxx1112basic_stringIcSt11char_traitsIcESaIcEEESaIS5_EE9push_backERKS5_(%rip)
	movq	%rax, (%rcx)
	movq	(%rbx), %rdx
	addq	%rdx, %r8
	call	_ZNSt7__cxx1112basic_stringIcSt11char_traitsIcESaIcEE12_M_constructIPcEEvT_S7_St20forward_iterator_tag.constprop.0
	addq	$1, 16+__gcov0._ZNSt6vectorINSt7__cxx1112basic_stringIcSt11char_traitsIcESaIcEEESaIS5_EE9push_backERKS5_(%rip)
	addq	$32, 8(%r12)
	addq	$40, %rsp
	popq	%rbx
	popq	%r12
	ret
	.p2align 4,,10
	.p2align 3
.L291:
	movq	%rcx, %rdx
	movq	%rbx, %r8
	movq	%r12, %rcx
	addq	$1, 8+__gcov0._ZNSt6vectorINSt7__cxx1112basic_stringIcSt11char_traitsIcESaIcEEESaIS5_EE9push_backERKS5_(%rip)
	call	_ZNSt6vectorINSt7__cxx1112basic_stringIcSt11char_traitsIcESaIcEEESaIS5_EE17_M_realloc_insertIJRKS5_EEEvN9__gnu_cxx17__normal_iteratorIPS5_S7_EEDpOT_
	addq	$1, 24+__gcov0._ZNSt6vectorINSt7__cxx1112basic_stringIcSt11char_traitsIcESaIcEEESaIS5_EE9push_backERKS5_(%rip)
	addq	$40, %rsp
	popq	%rbx
	popq	%r12
	ret
	.seh_endproc
	.align 2
	.p2align 4
	.def	_ZNSt6vectorINSt7__cxx1112basic_stringIcSt11char_traitsIcESaIcEEESaIS5_EE12emplace_backIJRKS5_EEERS5_DpOT_;	.scl	3;	.type	32;	.endef
	.seh_proc	_ZNSt6vectorINSt7__cxx1112basic_stringIcSt11char_traitsIcESaIcEEESaIS5_EE12emplace_backIJRKS5_EEERS5_DpOT_
_ZNSt6vectorINSt7__cxx1112basic_stringIcSt11char_traitsIcESaIcEEESaIS5_EE12emplace_backIJRKS5_EEERS5_DpOT_:
	pushq	%rsi
	.seh_pushreg	%rsi
	pushq	%rbx
	.seh_pushreg	%rbx
	subq	$40, %rsp
	.seh_stackalloc	40
	.seh_endprologue
	movq	.refptr.__gcov_indirect_call(%rip), %rax
	cmpq	$0, (%rax)
	movq	%rcx, %rbx
	movq	%rdx, %rsi
	je	.L295
	leaq	_ZNSt6vectorINSt7__cxx1112basic_stringIcSt11char_traitsIcESaIcEEESaIS5_EE12emplace_backIJRKS5_EEERS5_DpOT_(%rip), %rdx
	movl	$318937646, %ecx
	call	__gcov_indirect_call_profiler_v4
.L295:
	cmpq	$0, __gcov7._ZNSt6vectorINSt7__cxx1112basic_stringIcSt11char_traitsIcESaIcEEESaIS5_EE12emplace_backIJRKS5_EEERS5_DpOT_(%rip)
	jne	.L296
	movq	.refptr.__gcov_time_profiler_counter(%rip), %rdx
	movq	(%rdx), %rax
	addq	$1, %rax
	movq	%rax, __gcov7._ZNSt6vectorINSt7__cxx1112basic_stringIcSt11char_traitsIcESaIcEEESaIS5_EE12emplace_backIJRKS5_EEERS5_DpOT_(%rip)
	movq	%rax, (%rdx)
.L296:
	movq	8(%rbx), %rcx
	cmpq	16(%rbx), %rcx
	je	.L297
	leaq	16(%rcx), %rax
	movq	8(%rsi), %r8
	addq	$1, __gcov0._ZNSt6vectorINSt7__cxx1112basic_stringIcSt11char_traitsIcESaIcEEESaIS5_EE12emplace_backIJRKS5_EEERS5_DpOT_(%rip)
	movq	%rax, (%rcx)
	movq	(%rsi), %rdx
	addq	%rdx, %r8
	call	_ZNSt7__cxx1112basic_stringIcSt11char_traitsIcESaIcEE12_M_constructIPcEEvT_S7_St20forward_iterator_tag.constprop.0
	addq	$1, 16+__gcov0._ZNSt6vectorINSt7__cxx1112basic_stringIcSt11char_traitsIcESaIcEEESaIS5_EE12emplace_backIJRKS5_EEERS5_DpOT_(%rip)
	movq	8(%rbx), %rax
	leaq	32(%rax), %rdx
	movq	%rdx, 8(%rbx)
	addq	$40, %rsp
	popq	%rbx
	popq	%rsi
	ret
	.p2align 4,,10
	.p2align 3
.L297:
	movq	%rcx, %rdx
	movq	%rsi, %r8
	movq	%rbx, %rcx
	addq	$1, 8+__gcov0._ZNSt6vectorINSt7__cxx1112basic_stringIcSt11char_traitsIcESaIcEEESaIS5_EE12emplace_backIJRKS5_EEERS5_DpOT_(%rip)
	call	_ZNSt6vectorINSt7__cxx1112basic_stringIcSt11char_traitsIcESaIcEEESaIS5_EE17_M_realloc_insertIJRKS5_EEEvN9__gnu_cxx17__normal_iteratorIPS5_S7_EEDpOT_
	addq	$1, 24+__gcov0._ZNSt6vectorINSt7__cxx1112basic_stringIcSt11char_traitsIcESaIcEEESaIS5_EE12emplace_backIJRKS5_EEERS5_DpOT_(%rip)
	movq	8(%rbx), %rax
	subq	$32, %rax
	addq	$40, %rsp
	popq	%rbx
	popq	%rsi
	ret
	.seh_endproc
	.align 2
	.p2align 4
	.def	_ZNSt6vectorINSt7__cxx1112basic_stringIcSt11char_traitsIcESaIcEEESaIS5_EE17_M_realloc_insertIJS5_EEEvN9__gnu_cxx17__normal_iteratorIPS5_S7_EEDpOT_;	.scl	3;	.type	32;	.endef
	.seh_proc	_ZNSt6vectorINSt7__cxx1112basic_stringIcSt11char_traitsIcESaIcEEESaIS5_EE17_M_realloc_insertIJS5_EEEvN9__gnu_cxx17__normal_iteratorIPS5_S7_EEDpOT_
_ZNSt6vectorINSt7__cxx1112basic_stringIcSt11char_traitsIcESaIcEEESaIS5_EE17_M_realloc_insertIJS5_EEEvN9__gnu_cxx17__normal_iteratorIPS5_S7_EEDpOT_:
	pushq	%r15
	.seh_pushreg	%r15
	pushq	%r14
	.seh_pushreg	%r14
	pushq	%r13
	.seh_pushreg	%r13
	pushq	%r12
	.seh_pushreg	%r12
	pushq	%rbp
	.seh_pushreg	%rbp
	pushq	%rdi
	.seh_pushreg	%rdi
	pushq	%rsi
	.seh_pushreg	%rsi
	pushq	%rbx
	.seh_pushreg	%rbx
	subq	$56, %rsp
	.seh_stackalloc	56
	vmovups	%xmm6, 32(%rsp)
	.seh_savexmm	%xmm6, 32
	.seh_endprologue
	movq	.refptr.__gcov_indirect_call(%rip), %rax
	movq	(%rax), %rax
	movq	%rcx, %rdi
	movq	%rdx, %r13
	movq	%r8, %r15
	testq	%rax, %rax
	jne	.L338
	addq	$1, __gcov0._ZNSt6vectorINSt7__cxx1112basic_stringIcSt11char_traitsIcESaIcEEESaIS5_EE17_M_realloc_insertIJS5_EEEvN9__gnu_cxx17__normal_iteratorIPS5_S7_EEDpOT_(%rip)
	cmpq	$0, __gcov7._ZNSt6vectorINSt7__cxx1112basic_stringIcSt11char_traitsIcESaIcEEESaIS5_EE17_M_realloc_insertIJS5_EEEvN9__gnu_cxx17__normal_iteratorIPS5_S7_EEDpOT_(%rip)
	movq	%rdx, %rbx
	je	.L325
.L302:
	cmpq	$0, __gcov7._ZNKSt6vectorINSt7__cxx1112basic_stringIcSt11char_traitsIcESaIcEEESaIS5_EE12_M_check_lenEyPKc(%rip)
	je	.L339
.L303:
	movq	8(%rdi), %rsi
	movq	(%rdi), %r12
	movabsq	$288230376151711743, %rdx
	movq	%rsi, %rax
	subq	%r12, %rax
	sarq	$5, %rax
	cmpq	%rdx, %rax
	je	.L340
	movq	%r13, %r14
	subq	%r12, %r14
	testq	%rax, %rax
	je	.L341
	leaq	(%rax,%rax), %rdx
	cmpq	%rdx, %rax
	jbe	.L307
	addq	$1, 16+__gcov0._ZNKSt6vectorINSt7__cxx1112basic_stringIcSt11char_traitsIcESaIcEEESaIS5_EE12_M_check_lenEyPKc(%rip)
	movabsq	$9223372036854775776, %rbp
.L308:
	movq	.refptr.__gcov_indirect_call(%rip), %rax
	addq	$1, 8+__gcov0._ZNSt6vectorINSt7__cxx1112basic_stringIcSt11char_traitsIcESaIcEEESaIS5_EE17_M_realloc_insertIJS5_EEEvN9__gnu_cxx17__normal_iteratorIPS5_S7_EEDpOT_(%rip)
	cmpq	$0, (%rax)
	jne	.L342
	cmpq	$0, __gcov7._ZN9__gnu_cxx13new_allocatorINSt7__cxx1112basic_stringIcSt11char_traitsIcESaIcEEEE8allocateEyPKv.lto_priv.0(%rip)
	je	.L343
.L310:
	movq	%rbp, %rcx
	addq	$1, __gcov0._ZN9__gnu_cxx13new_allocatorINSt7__cxx1112basic_stringIcSt11char_traitsIcESaIcEEEE8allocateEyPKv.lto_priv.0(%rip)
	call	_Znwy
	movq	(%r15), %rdx
	addq	$1, 24+__gcov0._ZN9__gnu_cxx13new_allocatorINSt7__cxx1112basic_stringIcSt11char_traitsIcESaIcEEEE8allocateEyPKv.lto_priv.0(%rip)
	addq	%rax, %r14
	movq	%rax, %r9
	leaq	32(%rax), %r10
	addq	%rax, %rbp
	leaq	16(%r14), %rax
	movq	%rax, (%r14)
	leaq	16(%r15), %rax
	cmpq	%rax, %rdx
	je	.L344
	movq	%rdx, (%r14)
	movq	16(%r15), %rdx
	addq	$1, 32+__gcov0._ZNSt6vectorINSt7__cxx1112basic_stringIcSt11char_traitsIcESaIcEEESaIS5_EE17_M_realloc_insertIJS5_EEEvN9__gnu_cxx17__normal_iteratorIPS5_S7_EEDpOT_(%rip)
	movq	%rdx, 16(%r14)
.L311:
	movq	8(%r15), %rdx
	movq	%rax, (%r15)
	movq	$0, 8(%r15)
	movq	%rdx, 8(%r14)
	movb	$0, 16(%r15)
	cmpq	%r13, %r12
	je	.L312
	movq	%r13, %r10
	movq	%r12, %rdx
	movq	%r9, %rax
	subq	%r12, %r10
	addq	%r9, %r10
	jmp	.L316
	.p2align 4,,10
	.p2align 3
.L313:
	movq	%rcx, (%rax)
	movq	16(%rdx), %rcx
	addq	$1, 48+__gcov0._ZNSt6vectorINSt7__cxx1112basic_stringIcSt11char_traitsIcESaIcEEESaIS5_EE17_M_realloc_insertIJS5_EEEvN9__gnu_cxx17__normal_iteratorIPS5_S7_EEDpOT_(%rip)
	movq	%rcx, 16(%rax)
.L337:
	movq	8(%rdx), %rcx
	addq	$32, %rax
	addq	$32, %rdx
	movq	%rcx, -24(%rax)
	cmpq	%r10, %rax
	je	.L345
.L316:
	leaq	16(%rax), %rcx
	leaq	16(%rdx), %r8
	movq	%rcx, (%rax)
	movq	(%rdx), %rcx
	cmpq	%r8, %rcx
	jne	.L313
	vmovdqu	16(%rdx), %xmm0
	addq	$1, 40+__gcov0._ZNSt6vectorINSt7__cxx1112basic_stringIcSt11char_traitsIcESaIcEEESaIS5_EE17_M_realloc_insertIJS5_EEEvN9__gnu_cxx17__normal_iteratorIPS5_S7_EEDpOT_(%rip)
	vmovdqu	%xmm0, 16(%rax)
	jmp	.L337
	.p2align 4,,10
	.p2align 3
.L307:
	addq	$1, 24+__gcov0._ZNKSt6vectorINSt7__cxx1112basic_stringIcSt11char_traitsIcESaIcEEESaIS5_EE12_M_check_lenEyPKc(%rip)
.L306:
	movabsq	$288230376151711743, %rax
	cmpq	%rax, %rdx
	cmova	%rax, %rdx
	salq	$5, %rdx
	movq	%rdx, %rbp
	jmp	.L308
	.p2align 4,,10
	.p2align 3
.L345:
	addq	$32, %r10
.L312:
	cmpq	%r13, %rsi
	je	.L317
	movq	%rsi, %r8
	movq	%r10, %rax
	subq	%r13, %r8
	.p2align 4,,10
	.p2align 3
.L321:
	leaq	16(%rax), %rdx
	leaq	16(%rbx), %rcx
	movq	%rdx, (%rax)
	movq	(%rbx), %rdx
	cmpq	%rcx, %rdx
	je	.L346
	movq	%rdx, (%rax)
	movq	16(%rbx), %rdx
	addq	$32, %rbx
	addq	$32, %rax
	addq	$1, 64+__gcov0._ZNSt6vectorINSt7__cxx1112basic_stringIcSt11char_traitsIcESaIcEEESaIS5_EE17_M_realloc_insertIJS5_EEEvN9__gnu_cxx17__normal_iteratorIPS5_S7_EEDpOT_(%rip)
	movq	%rdx, -16(%rax)
	movq	-24(%rbx), %rdx
	movq	%rdx, -24(%rax)
	cmpq	%rsi, %rbx
	jne	.L321
.L320:
	addq	%r8, %r10
.L317:
	vmovq	%r9, %xmm2
	vpinsrq	$1, %r10, %xmm2, %xmm6
	testq	%r12, %r12
	je	.L322
	movq	16(%rdi), %rdx
	movq	%r12, %rcx
	addq	$1, 72+__gcov0._ZNSt6vectorINSt7__cxx1112basic_stringIcSt11char_traitsIcESaIcEEESaIS5_EE17_M_realloc_insertIJS5_EEEvN9__gnu_cxx17__normal_iteratorIPS5_S7_EEDpOT_(%rip)
	subq	%r12, %rdx
	call	_ZdlPvy
	addq	$1, 80+__gcov0._ZNSt6vectorINSt7__cxx1112basic_stringIcSt11char_traitsIcESaIcEEESaIS5_EE17_M_realloc_insertIJS5_EEEvN9__gnu_cxx17__normal_iteratorIPS5_S7_EEDpOT_(%rip)
.L322:
	vmovdqu	%xmm6, (%rdi)
	vmovups	32(%rsp), %xmm6
	movq	%rbp, 16(%rdi)
	addq	$56, %rsp
	popq	%rbx
	popq	%rsi
	popq	%rdi
	popq	%rbp
	popq	%r12
	popq	%r13
	popq	%r14
	popq	%r15
	ret
	.p2align 4,,10
	.p2align 3
.L346:
	vmovdqu	16(%rbx), %xmm1
	movq	8(%rbx), %rdx
	addq	$32, %rbx
	addq	$32, %rax
	addq	$1, 56+__gcov0._ZNSt6vectorINSt7__cxx1112basic_stringIcSt11char_traitsIcESaIcEEESaIS5_EE17_M_realloc_insertIJS5_EEEvN9__gnu_cxx17__normal_iteratorIPS5_S7_EEDpOT_(%rip)
	vmovdqu	%xmm1, -16(%rax)
	movq	%rdx, -24(%rax)
	cmpq	%rbx, %rsi
	jne	.L321
	jmp	.L320
	.p2align 4,,10
	.p2align 3
.L341:
	addq	$1, 8+__gcov0._ZNKSt6vectorINSt7__cxx1112basic_stringIcSt11char_traitsIcESaIcEEESaIS5_EE12_M_check_lenEyPKc(%rip)
	movl	$1, %edx
	addq	$1, 24+__gcov0._ZNKSt6vectorINSt7__cxx1112basic_stringIcSt11char_traitsIcESaIcEEESaIS5_EE12_M_check_lenEyPKc(%rip)
	jmp	.L306
	.p2align 4,,10
	.p2align 3
.L344:
	vmovdqu	16(%r15), %xmm3
	addq	$1, 24+__gcov0._ZNSt6vectorINSt7__cxx1112basic_stringIcSt11char_traitsIcESaIcEEESaIS5_EE17_M_realloc_insertIJS5_EEEvN9__gnu_cxx17__normal_iteratorIPS5_S7_EEDpOT_(%rip)
	vmovdqu	%xmm3, 16(%r14)
	jmp	.L311
	.p2align 4,,10
	.p2align 3
.L338:
	leaq	_ZNSt6vectorINSt7__cxx1112basic_stringIcSt11char_traitsIcESaIcEEESaIS5_EE17_M_realloc_insertIJS5_EEEvN9__gnu_cxx17__normal_iteratorIPS5_S7_EEDpOT_(%rip), %rdx
	movl	$2026432968, %ecx
	call	__gcov_indirect_call_profiler_v4
	movq	.refptr.__gcov_indirect_call(%rip), %rax
	addq	$1, __gcov0._ZNSt6vectorINSt7__cxx1112basic_stringIcSt11char_traitsIcESaIcEEESaIS5_EE17_M_realloc_insertIJS5_EEEvN9__gnu_cxx17__normal_iteratorIPS5_S7_EEDpOT_(%rip)
	cmpq	$0, __gcov7._ZNSt6vectorINSt7__cxx1112basic_stringIcSt11char_traitsIcESaIcEEESaIS5_EE17_M_realloc_insertIJS5_EEEvN9__gnu_cxx17__normal_iteratorIPS5_S7_EEDpOT_(%rip)
	movq	(%rax), %rax
	je	.L325
.L301:
	movq	%r13, %rbx
	testq	%rax, %rax
	je	.L302
	leaq	_ZNKSt6vectorINSt7__cxx1112basic_stringIcSt11char_traitsIcESaIcEEESaIS5_EE12_M_check_lenEyPKc(%rip), %rdx
	movl	$1858249242, %ecx
	call	__gcov_indirect_call_profiler_v4
	cmpq	$0, __gcov7._ZNKSt6vectorINSt7__cxx1112basic_stringIcSt11char_traitsIcESaIcEEESaIS5_EE12_M_check_lenEyPKc(%rip)
	jne	.L303
.L339:
	movq	.refptr.__gcov_time_profiler_counter(%rip), %rdx
	movq	(%rdx), %rax
	addq	$1, %rax
	movq	%rax, __gcov7._ZNKSt6vectorINSt7__cxx1112basic_stringIcSt11char_traitsIcESaIcEEESaIS5_EE12_M_check_lenEyPKc(%rip)
	movq	%rax, (%rdx)
	jmp	.L303
	.p2align 4,,10
	.p2align 3
.L325:
	movq	.refptr.__gcov_time_profiler_counter(%rip), %rcx
	movq	(%rcx), %rsi
	leaq	1(%rsi), %rdx
	movq	%rdx, __gcov7._ZNSt6vectorINSt7__cxx1112basic_stringIcSt11char_traitsIcESaIcEEESaIS5_EE17_M_realloc_insertIJS5_EEEvN9__gnu_cxx17__normal_iteratorIPS5_S7_EEDpOT_(%rip)
	movq	%rdx, (%rcx)
	jmp	.L301
	.p2align 4,,10
	.p2align 3
.L343:
	movq	.refptr.__gcov_time_profiler_counter(%rip), %rdx
	movq	(%rdx), %rax
	addq	$1, %rax
	movq	%rax, __gcov7._ZN9__gnu_cxx13new_allocatorINSt7__cxx1112basic_stringIcSt11char_traitsIcESaIcEEEE8allocateEyPKv.lto_priv.0(%rip)
	movq	%rax, (%rdx)
	jmp	.L310
	.p2align 4,,10
	.p2align 3
.L342:
	leaq	_ZN9__gnu_cxx13new_allocatorINSt7__cxx1112basic_stringIcSt11char_traitsIcESaIcEEEE8allocateEyPKv(%rip), %rdx
	movl	$774033910, %ecx
	call	__gcov_indirect_call_profiler_v4
	cmpq	$0, __gcov7._ZN9__gnu_cxx13new_allocatorINSt7__cxx1112basic_stringIcSt11char_traitsIcESaIcEEEE8allocateEyPKv.lto_priv.0(%rip)
	jne	.L310
	jmp	.L343
.L340:
	leaq	.LC1(%rip), %rcx
	addq	$1, __gcov0._ZNKSt6vectorINSt7__cxx1112basic_stringIcSt11char_traitsIcESaIcEEESaIS5_EE12_M_check_lenEyPKc(%rip)
	call	_ZSt20__throw_length_errorPKc
	nop
	.seh_endproc
	.align 2
	.p2align 4
	.def	_ZNSt6vectorINSt7__cxx1112basic_stringIcSt11char_traitsIcESaIcEEESaIS5_EE12emplace_backIJS5_EEERS5_DpOT_;	.scl	3;	.type	32;	.endef
	.seh_proc	_ZNSt6vectorINSt7__cxx1112basic_stringIcSt11char_traitsIcESaIcEEESaIS5_EE12emplace_backIJS5_EEERS5_DpOT_
_ZNSt6vectorINSt7__cxx1112basic_stringIcSt11char_traitsIcESaIcEEESaIS5_EE12emplace_backIJS5_EEERS5_DpOT_:
	pushq	%rsi
	.seh_pushreg	%rsi
	pushq	%rbx
	.seh_pushreg	%rbx
	subq	$40, %rsp
	.seh_stackalloc	40
	.seh_endprologue
	movq	.refptr.__gcov_indirect_call(%rip), %rax
	cmpq	$0, (%rax)
	movq	%rcx, %rsi
	movq	%rdx, %rbx
	je	.L348
	leaq	_ZNSt6vectorINSt7__cxx1112basic_stringIcSt11char_traitsIcESaIcEEESaIS5_EE12emplace_backIJS5_EEERS5_DpOT_(%rip), %rdx
	movl	$634469586, %ecx
	call	__gcov_indirect_call_profiler_v4
.L348:
	cmpq	$0, __gcov7._ZNSt6vectorINSt7__cxx1112basic_stringIcSt11char_traitsIcESaIcEEESaIS5_EE12emplace_backIJS5_EEERS5_DpOT_(%rip)
	jne	.L349
	movq	.refptr.__gcov_time_profiler_counter(%rip), %rdx
	movq	(%rdx), %rax
	addq	$1, %rax
	movq	%rax, __gcov7._ZNSt6vectorINSt7__cxx1112basic_stringIcSt11char_traitsIcESaIcEEESaIS5_EE12emplace_backIJS5_EEERS5_DpOT_(%rip)
	movq	%rax, (%rdx)
.L349:
	movq	8(%rsi), %rdx
	cmpq	16(%rsi), %rdx
	je	.L350
	leaq	16(%rdx), %rax
	movq	%rax, (%rdx)
	movq	(%rbx), %rcx
	leaq	16(%rbx), %rax
	cmpq	%rax, %rcx
	je	.L354
	movq	%rcx, (%rdx)
	movq	16(%rbx), %rcx
	addq	$1, 16+__gcov0._ZNSt6vectorINSt7__cxx1112basic_stringIcSt11char_traitsIcESaIcEEESaIS5_EE12emplace_backIJS5_EEERS5_DpOT_(%rip)
	movq	%rcx, 16(%rdx)
.L352:
	movq	8(%rbx), %rcx
	movq	%rax, (%rbx)
	movq	$0, 8(%rbx)
	movq	%rcx, 8(%rdx)
	movb	$0, 16(%rbx)
	movq	8(%rsi), %rax
	leaq	32(%rax), %rdx
	movq	%rdx, 8(%rsi)
	addq	$40, %rsp
	popq	%rbx
	popq	%rsi
	ret
	.p2align 4,,10
	.p2align 3
.L354:
	vmovdqu	16(%rbx), %xmm0
	addq	$1, 8+__gcov0._ZNSt6vectorINSt7__cxx1112basic_stringIcSt11char_traitsIcESaIcEEESaIS5_EE12emplace_backIJS5_EEERS5_DpOT_(%rip)
	vmovdqu	%xmm0, 16(%rdx)
	jmp	.L352
	.p2align 4,,10
	.p2align 3
.L350:
	movq	%rbx, %r8
	movq	%rsi, %rcx
	addq	$1, __gcov0._ZNSt6vectorINSt7__cxx1112basic_stringIcSt11char_traitsIcESaIcEEESaIS5_EE12emplace_backIJS5_EEERS5_DpOT_(%rip)
	call	_ZNSt6vectorINSt7__cxx1112basic_stringIcSt11char_traitsIcESaIcEEESaIS5_EE17_M_realloc_insertIJS5_EEEvN9__gnu_cxx17__normal_iteratorIPS5_S7_EEDpOT_
	addq	$1, 24+__gcov0._ZNSt6vectorINSt7__cxx1112basic_stringIcSt11char_traitsIcESaIcEEESaIS5_EE12emplace_backIJS5_EEERS5_DpOT_(%rip)
	movq	8(%rsi), %rax
	subq	$32, %rax
	addq	$40, %rsp
	popq	%rbx
	popq	%rsi
	ret
	.seh_endproc
	.align 2
	.p2align 4
	.def	_ZNSt6vectorINSt7__cxx1112basic_stringIcSt11char_traitsIcESaIcEEESaIS5_EE17_M_realloc_insertIJRS5_EEEvN9__gnu_cxx17__normal_iteratorIPS5_S7_EEDpOT_;	.scl	3;	.type	32;	.endef
	.seh_proc	_ZNSt6vectorINSt7__cxx1112basic_stringIcSt11char_traitsIcESaIcEEESaIS5_EE17_M_realloc_insertIJRS5_EEEvN9__gnu_cxx17__normal_iteratorIPS5_S7_EEDpOT_
_ZNSt6vectorINSt7__cxx1112basic_stringIcSt11char_traitsIcESaIcEEESaIS5_EE17_M_realloc_insertIJRS5_EEEvN9__gnu_cxx17__normal_iteratorIPS5_S7_EEDpOT_:
	pushq	%r15
	.seh_pushreg	%r15
	pushq	%r14
	.seh_pushreg	%r14
	pushq	%r13
	.seh_pushreg	%r13
	pushq	%r12
	.seh_pushreg	%r12
	pushq	%rbp
	.seh_pushreg	%rbp
	pushq	%rdi
	.seh_pushreg	%rdi
	pushq	%rsi
	.seh_pushreg	%rsi
	pushq	%rbx
	.seh_pushreg	%rbx
	subq	$72, %rsp
	.seh_stackalloc	72
	vmovups	%xmm6, 48(%rsp)
	.seh_savexmm	%xmm6, 48
	.seh_endprologue
	movq	.refptr.__gcov_indirect_call(%rip), %r14
	movq	(%r14), %rax
	movq	%rcx, %r12
	movq	%rdx, %rbp
	movq	%r8, %r15
	testq	%rax, %rax
	jne	.L389
	addq	$1, __gcov0._ZNSt6vectorINSt7__cxx1112basic_stringIcSt11char_traitsIcESaIcEEESaIS5_EE17_M_realloc_insertIJRS5_EEEvN9__gnu_cxx17__normal_iteratorIPS5_S7_EEDpOT_(%rip)
	cmpq	$0, __gcov7._ZNSt6vectorINSt7__cxx1112basic_stringIcSt11char_traitsIcESaIcEEESaIS5_EE17_M_realloc_insertIJRS5_EEEvN9__gnu_cxx17__normal_iteratorIPS5_S7_EEDpOT_(%rip)
	movq	%rdx, %rbx
	je	.L380
.L358:
	cmpq	$0, __gcov7._ZNKSt6vectorINSt7__cxx1112basic_stringIcSt11char_traitsIcESaIcEEESaIS5_EE12_M_check_lenEyPKc(%rip)
	je	.L390
.L359:
	movq	8(%r12), %rsi
	movq	(%r12), %r13
	movabsq	$288230376151711743, %rdx
	movq	%rsi, %rax
	subq	%r13, %rax
	sarq	$5, %rax
	cmpq	%rdx, %rax
	je	.L391
	movq	%rbp, %rdi
	subq	%r13, %rdi
	movq	%rdi, 32(%rsp)
	testq	%rax, %rax
	je	.L392
	leaq	(%rax,%rax), %rdx
	cmpq	%rdx, %rax
	jbe	.L363
	addq	$1, 16+__gcov0._ZNKSt6vectorINSt7__cxx1112basic_stringIcSt11char_traitsIcESaIcEEESaIS5_EE12_M_check_lenEyPKc(%rip)
	movabsq	$9223372036854775776, %rdi
.L364:
	addq	$1, 8+__gcov0._ZNSt6vectorINSt7__cxx1112basic_stringIcSt11char_traitsIcESaIcEEESaIS5_EE17_M_realloc_insertIJRS5_EEEvN9__gnu_cxx17__normal_iteratorIPS5_S7_EEDpOT_(%rip)
	cmpq	$0, (%r14)
	jne	.L393
	cmpq	$0, __gcov7._ZN9__gnu_cxx13new_allocatorINSt7__cxx1112basic_stringIcSt11char_traitsIcESaIcEEEE8allocateEyPKv.lto_priv.0(%rip)
	je	.L394
.L366:
	movq	%rdi, %rcx
	addq	$1, __gcov0._ZN9__gnu_cxx13new_allocatorINSt7__cxx1112basic_stringIcSt11char_traitsIcESaIcEEEE8allocateEyPKv.lto_priv.0(%rip)
	call	_Znwy
	movq	32(%rsp), %rcx
	movq	(%r15), %rdx
	movq	%rax, %r14
	leaq	(%rax,%rdi), %rax
	movq	8(%r15), %r8
	addq	$1, 24+__gcov0._ZN9__gnu_cxx13new_allocatorINSt7__cxx1112basic_stringIcSt11char_traitsIcESaIcEEEE8allocateEyPKv.lto_priv.0(%rip)
	addq	%r14, %rcx
	movq	%rax, 40(%rsp)
	leaq	32(%r14), %rdi
	leaq	16(%rcx), %rax
	addq	%rdx, %r8
	addq	$1, 24+__gcov0._ZNSt6vectorINSt7__cxx1112basic_stringIcSt11char_traitsIcESaIcEEESaIS5_EE17_M_realloc_insertIJRS5_EEEvN9__gnu_cxx17__normal_iteratorIPS5_S7_EEDpOT_(%rip)
	movq	%rax, (%rcx)
	call	_ZNSt7__cxx1112basic_stringIcSt11char_traitsIcESaIcEE12_M_constructIPcEEvT_S7_St20forward_iterator_tag.constprop.0
	cmpq	%rbp, %r13
	je	.L379
	movq	%rbp, %r9
	movq	%r13, %rdx
	movq	%r14, %rax
	subq	%r13, %r9
	addq	%r14, %r9
	jmp	.L370
	.p2align 4,,10
	.p2align 3
.L367:
	movq	%rcx, (%rax)
	movq	16(%rdx), %rcx
	addq	$1, 40+__gcov0._ZNSt6vectorINSt7__cxx1112basic_stringIcSt11char_traitsIcESaIcEEESaIS5_EE17_M_realloc_insertIJRS5_EEEvN9__gnu_cxx17__normal_iteratorIPS5_S7_EEDpOT_(%rip)
	movq	%rcx, 16(%rax)
.L388:
	movq	8(%rdx), %rcx
	addq	$32, %rax
	addq	$32, %rdx
	movq	%rcx, -24(%rax)
	cmpq	%r9, %rax
	je	.L395
.L370:
	leaq	16(%rax), %rcx
	leaq	16(%rdx), %r8
	movq	%rcx, (%rax)
	movq	(%rdx), %rcx
	cmpq	%r8, %rcx
	jne	.L367
	vmovdqu	16(%rdx), %xmm0
	addq	$1, 32+__gcov0._ZNSt6vectorINSt7__cxx1112basic_stringIcSt11char_traitsIcESaIcEEESaIS5_EE17_M_realloc_insertIJRS5_EEEvN9__gnu_cxx17__normal_iteratorIPS5_S7_EEDpOT_(%rip)
	vmovdqu	%xmm0, 16(%rax)
	jmp	.L388
	.p2align 4,,10
	.p2align 3
.L363:
	addq	$1, 24+__gcov0._ZNKSt6vectorINSt7__cxx1112basic_stringIcSt11char_traitsIcESaIcEEESaIS5_EE12_M_check_lenEyPKc(%rip)
.L362:
	movabsq	$288230376151711743, %rax
	cmpq	%rax, %rdx
	cmovbe	%rdx, %rax
	movq	%rax, %rdi
	salq	$5, %rdi
	jmp	.L364
	.p2align 4,,10
	.p2align 3
.L395:
	leaq	32(%r9), %rdi
.L379:
	cmpq	%rbp, %rsi
	je	.L371
	movq	%rsi, %r8
	movq	%rdi, %rax
	subq	%rbp, %r8
	.p2align 4,,10
	.p2align 3
.L375:
	leaq	16(%rax), %rdx
	leaq	16(%rbx), %rcx
	movq	%rdx, (%rax)
	movq	(%rbx), %rdx
	cmpq	%rcx, %rdx
	je	.L396
	movq	%rdx, (%rax)
	movq	16(%rbx), %rdx
	addq	$32, %rbx
	addq	$32, %rax
	addq	$1, 56+__gcov0._ZNSt6vectorINSt7__cxx1112basic_stringIcSt11char_traitsIcESaIcEEESaIS5_EE17_M_realloc_insertIJRS5_EEEvN9__gnu_cxx17__normal_iteratorIPS5_S7_EEDpOT_(%rip)
	movq	%rdx, -16(%rax)
	movq	-24(%rbx), %rdx
	movq	%rdx, -24(%rax)
	cmpq	%rsi, %rbx
	jne	.L375
.L374:
	addq	%r8, %rdi
.L371:
	vmovq	%r14, %xmm2
	movq	16(%r12), %rdx
	vpinsrq	$1, %rdi, %xmm2, %xmm6
	testq	%r13, %r13
	je	.L397
	subq	%r13, %rdx
	movq	%r13, %rcx
	addq	$1, 64+__gcov0._ZNSt6vectorINSt7__cxx1112basic_stringIcSt11char_traitsIcESaIcEEESaIS5_EE17_M_realloc_insertIJRS5_EEEvN9__gnu_cxx17__normal_iteratorIPS5_S7_EEDpOT_(%rip)
	call	_ZdlPvy
	addq	$1, 80+__gcov0._ZNSt6vectorINSt7__cxx1112basic_stringIcSt11char_traitsIcESaIcEEESaIS5_EE17_M_realloc_insertIJRS5_EEEvN9__gnu_cxx17__normal_iteratorIPS5_S7_EEDpOT_(%rip)
.L377:
	movq	40(%rsp), %rax
	vmovdqu	%xmm6, (%r12)
	vmovups	48(%rsp), %xmm6
	movq	%rax, 16(%r12)
	addq	$72, %rsp
	popq	%rbx
	popq	%rsi
	popq	%rdi
	popq	%rbp
	popq	%r12
	popq	%r13
	popq	%r14
	popq	%r15
	ret
	.p2align 4,,10
	.p2align 3
.L396:
	vmovdqu	16(%rbx), %xmm1
	movq	8(%rbx), %rdx
	addq	$32, %rbx
	addq	$32, %rax
	addq	$1, 48+__gcov0._ZNSt6vectorINSt7__cxx1112basic_stringIcSt11char_traitsIcESaIcEEESaIS5_EE17_M_realloc_insertIJRS5_EEEvN9__gnu_cxx17__normal_iteratorIPS5_S7_EEDpOT_(%rip)
	vmovdqu	%xmm1, -16(%rax)
	movq	%rdx, -24(%rax)
	cmpq	%rbx, %rsi
	jne	.L375
	jmp	.L374
	.p2align 4,,10
	.p2align 3
.L397:
	addq	$1, 72+__gcov0._ZNSt6vectorINSt7__cxx1112basic_stringIcSt11char_traitsIcESaIcEEESaIS5_EE17_M_realloc_insertIJRS5_EEEvN9__gnu_cxx17__normal_iteratorIPS5_S7_EEDpOT_(%rip)
	jmp	.L377
	.p2align 4,,10
	.p2align 3
.L392:
	addq	$1, 8+__gcov0._ZNKSt6vectorINSt7__cxx1112basic_stringIcSt11char_traitsIcESaIcEEESaIS5_EE12_M_check_lenEyPKc(%rip)
	movl	$1, %edx
	addq	$1, 24+__gcov0._ZNKSt6vectorINSt7__cxx1112basic_stringIcSt11char_traitsIcESaIcEEESaIS5_EE12_M_check_lenEyPKc(%rip)
	jmp	.L362
	.p2align 4,,10
	.p2align 3
.L389:
	leaq	_ZNSt6vectorINSt7__cxx1112basic_stringIcSt11char_traitsIcESaIcEEESaIS5_EE17_M_realloc_insertIJRS5_EEEvN9__gnu_cxx17__normal_iteratorIPS5_S7_EEDpOT_(%rip), %rdx
	movl	$1876254711, %ecx
	call	__gcov_indirect_call_profiler_v4
	addq	$1, __gcov0._ZNSt6vectorINSt7__cxx1112basic_stringIcSt11char_traitsIcESaIcEEESaIS5_EE17_M_realloc_insertIJRS5_EEEvN9__gnu_cxx17__normal_iteratorIPS5_S7_EEDpOT_(%rip)
	movq	(%r14), %rax
	cmpq	$0, __gcov7._ZNSt6vectorINSt7__cxx1112basic_stringIcSt11char_traitsIcESaIcEEESaIS5_EE17_M_realloc_insertIJRS5_EEEvN9__gnu_cxx17__normal_iteratorIPS5_S7_EEDpOT_(%rip)
	je	.L380
.L357:
	movq	%rbp, %rbx
	testq	%rax, %rax
	je	.L358
	leaq	_ZNKSt6vectorINSt7__cxx1112basic_stringIcSt11char_traitsIcESaIcEEESaIS5_EE12_M_check_lenEyPKc(%rip), %rdx
	movl	$1858249242, %ecx
	call	__gcov_indirect_call_profiler_v4
	cmpq	$0, __gcov7._ZNKSt6vectorINSt7__cxx1112basic_stringIcSt11char_traitsIcESaIcEEESaIS5_EE12_M_check_lenEyPKc(%rip)
	jne	.L359
.L390:
	movq	.refptr.__gcov_time_profiler_counter(%rip), %rdx
	movq	(%rdx), %rax
	addq	$1, %rax
	movq	%rax, __gcov7._ZNKSt6vectorINSt7__cxx1112basic_stringIcSt11char_traitsIcESaIcEEESaIS5_EE12_M_check_lenEyPKc(%rip)
	movq	%rax, (%rdx)
	jmp	.L359
	.p2align 4,,10
	.p2align 3
.L380:
	movq	.refptr.__gcov_time_profiler_counter(%rip), %rcx
	movq	(%rcx), %rdi
	leaq	1(%rdi), %rdx
	movq	%rdx, __gcov7._ZNSt6vectorINSt7__cxx1112basic_stringIcSt11char_traitsIcESaIcEEESaIS5_EE17_M_realloc_insertIJRS5_EEEvN9__gnu_cxx17__normal_iteratorIPS5_S7_EEDpOT_(%rip)
	movq	%rdx, (%rcx)
	jmp	.L357
	.p2align 4,,10
	.p2align 3
.L394:
	movq	.refptr.__gcov_time_profiler_counter(%rip), %rdx
	movq	(%rdx), %rax
	addq	$1, %rax
	movq	%rax, __gcov7._ZN9__gnu_cxx13new_allocatorINSt7__cxx1112basic_stringIcSt11char_traitsIcESaIcEEEE8allocateEyPKv.lto_priv.0(%rip)
	movq	%rax, (%rdx)
	jmp	.L366
	.p2align 4,,10
	.p2align 3
.L393:
	leaq	_ZN9__gnu_cxx13new_allocatorINSt7__cxx1112basic_stringIcSt11char_traitsIcESaIcEEEE8allocateEyPKv(%rip), %rdx
	movl	$774033910, %ecx
	call	__gcov_indirect_call_profiler_v4
	cmpq	$0, __gcov7._ZN9__gnu_cxx13new_allocatorINSt7__cxx1112basic_stringIcSt11char_traitsIcESaIcEEEE8allocateEyPKv.lto_priv.0(%rip)
	jne	.L366
	jmp	.L394
.L391:
	leaq	.LC1(%rip), %rcx
	addq	$1, __gcov0._ZNKSt6vectorINSt7__cxx1112basic_stringIcSt11char_traitsIcESaIcEEESaIS5_EE12_M_check_lenEyPKc(%rip)
	call	_ZSt20__throw_length_errorPKc
	nop
	.seh_endproc
	.align 2
	.p2align 4
	.def	_ZNSt6vectorINSt7__cxx1112basic_stringIcSt11char_traitsIcESaIcEEESaIS5_EE12emplace_backIJRS5_EEES9_DpOT_;	.scl	3;	.type	32;	.endef
	.seh_proc	_ZNSt6vectorINSt7__cxx1112basic_stringIcSt11char_traitsIcESaIcEEESaIS5_EE12emplace_backIJRS5_EEES9_DpOT_
_ZNSt6vectorINSt7__cxx1112basic_stringIcSt11char_traitsIcESaIcEEESaIS5_EE12emplace_backIJRS5_EEES9_DpOT_:
	pushq	%rsi
	.seh_pushreg	%rsi
	pushq	%rbx
	.seh_pushreg	%rbx
	subq	$40, %rsp
	.seh_stackalloc	40
	.seh_endprologue
	movq	.refptr.__gcov_indirect_call(%rip), %rax
	cmpq	$0, (%rax)
	movq	%rcx, %rbx
	movq	%rdx, %rsi
	je	.L399
	leaq	_ZNSt6vectorINSt7__cxx1112basic_stringIcSt11char_traitsIcESaIcEEESaIS5_EE12emplace_backIJRS5_EEES9_DpOT_(%rip), %rdx
	movl	$1907473754, %ecx
	call	__gcov_indirect_call_profiler_v4
.L399:
	cmpq	$0, __gcov7._ZNSt6vectorINSt7__cxx1112basic_stringIcSt11char_traitsIcESaIcEEESaIS5_EE12emplace_backIJRS5_EEES9_DpOT_(%rip)
	jne	.L400
	movq	.refptr.__gcov_time_profiler_counter(%rip), %rdx
	movq	(%rdx), %rax
	addq	$1, %rax
	movq	%rax, __gcov7._ZNSt6vectorINSt7__cxx1112basic_stringIcSt11char_traitsIcESaIcEEESaIS5_EE12emplace_backIJRS5_EEES9_DpOT_(%rip)
	movq	%rax, (%rdx)
.L400:
	movq	8(%rbx), %rcx
	cmpq	16(%rbx), %rcx
	je	.L401
	leaq	16(%rcx), %rax
	movq	8(%rsi), %r8
	addq	$1, __gcov0._ZNSt6vectorINSt7__cxx1112basic_stringIcSt11char_traitsIcESaIcEEESaIS5_EE12emplace_backIJRS5_EEES9_DpOT_(%rip)
	movq	%rax, (%rcx)
	movq	(%rsi), %rdx
	addq	%rdx, %r8
	call	_ZNSt7__cxx1112basic_stringIcSt11char_traitsIcESaIcEE12_M_constructIPcEEvT_S7_St20forward_iterator_tag.constprop.0
	addq	$1, 16+__gcov0._ZNSt6vectorINSt7__cxx1112basic_stringIcSt11char_traitsIcESaIcEEESaIS5_EE12emplace_backIJRS5_EEES9_DpOT_(%rip)
	movq	8(%rbx), %rax
	leaq	32(%rax), %rdx
	movq	%rdx, 8(%rbx)
	addq	$40, %rsp
	popq	%rbx
	popq	%rsi
	ret
	.p2align 4,,10
	.p2align 3
.L401:
	movq	%rcx, %rdx
	movq	%rsi, %r8
	movq	%rbx, %rcx
	addq	$1, 8+__gcov0._ZNSt6vectorINSt7__cxx1112basic_stringIcSt11char_traitsIcESaIcEEESaIS5_EE12emplace_backIJRS5_EEES9_DpOT_(%rip)
	call	_ZNSt6vectorINSt7__cxx1112basic_stringIcSt11char_traitsIcESaIcEEESaIS5_EE17_M_realloc_insertIJRS5_EEEvN9__gnu_cxx17__normal_iteratorIPS5_S7_EEDpOT_
	addq	$1, 24+__gcov0._ZNSt6vectorINSt7__cxx1112basic_stringIcSt11char_traitsIcESaIcEEESaIS5_EE12emplace_backIJRS5_EEES9_DpOT_(%rip)
	movq	8(%rbx), %rax
	subq	$32, %rax
	addq	$40, %rsp
	popq	%rbx
	popq	%rsi
	ret
	.seh_endproc
	.section .rdata,"dr"
	.align 8
.LC2:
	.ascii "basic_string::_M_construct null not valid\0"
	.text
	.align 2
	.p2align 4
	.globl	_ZNSt7__cxx1112basic_stringIcSt11char_traitsIcESaIcEE12_M_constructIPKcEEvT_S8_St20forward_iterator_tag
	.def	_ZNSt7__cxx1112basic_stringIcSt11char_traitsIcESaIcEE12_M_constructIPKcEEvT_S8_St20forward_iterator_tag;	.scl	2;	.type	32;	.endef
	.seh_proc	_ZNSt7__cxx1112basic_stringIcSt11char_traitsIcESaIcEE12_M_constructIPKcEEvT_S8_St20forward_iterator_tag
_ZNSt7__cxx1112basic_stringIcSt11char_traitsIcESaIcEE12_M_constructIPKcEEvT_S8_St20forward_iterator_tag:
	pushq	%r13
	.seh_pushreg	%r13
	pushq	%r12
	.seh_pushreg	%r12
	pushq	%rsi
	.seh_pushreg	%rsi
	pushq	%rbx
	.seh_pushreg	%rbx
	subq	$56, %rsp
	.seh_stackalloc	56
	.seh_endprologue
	movq	.refptr.__gcov_indirect_call(%rip), %rax
	cmpq	$0, (%rax)
	movq	%rcx, %rsi
	movq	%rdx, %r12
	movq	%r8, %rbx
	je	.L404
	leaq	_ZNSt7__cxx1112basic_stringIcSt11char_traitsIcESaIcEE12_M_constructIPKcEEvT_S8_St20forward_iterator_tag(%rip), %rdx
	movl	$59782274, %ecx
	call	__gcov_indirect_call_profiler_v4
.L404:
	cmpq	$0, __gcov7._ZNSt7__cxx1112basic_stringIcSt11char_traitsIcESaIcEE12_M_constructIPKcEEvT_S8_St20forward_iterator_tag.lto_priv.0(%rip)
	jne	.L405
	movq	.refptr.__gcov_time_profiler_counter(%rip), %rdx
	movq	(%rdx), %rax
	addq	$1, %rax
	movq	%rax, __gcov7._ZNSt7__cxx1112basic_stringIcSt11char_traitsIcESaIcEE12_M_constructIPKcEEvT_S8_St20forward_iterator_tag.lto_priv.0(%rip)
	movq	%rax, (%rdx)
.L405:
	testq	%r12, %r12
	je	.L417
	subq	%r12, %rbx
	movq	%rbx, 40(%rsp)
	cmpq	$15, %rbx
	ja	.L418
	movq	(%rsi), %r13
	cmpq	$1, %rbx
	jne	.L410
	movzbl	(%r12), %eax
	addq	$1, 32+__gcov0._ZNSt7__cxx1112basic_stringIcSt11char_traitsIcESaIcEE12_M_constructIPKcEEvT_S8_St20forward_iterator_tag.lto_priv.0(%rip)
	movb	%al, 0(%r13)
	movq	(%rsi), %r13
.L411:
	movq	40(%rsp), %rax
	movq	%rax, 8(%rsi)
	movb	$0, 0(%r13,%rax)
	addq	$56, %rsp
	popq	%rbx
	popq	%rsi
	popq	%r12
	popq	%r13
	ret
	.p2align 4,,10
	.p2align 3
.L418:
	leaq	40(%rsp), %rdx
	xorl	%r8d, %r8d
	movq	%rsi, %rcx
	addq	$1, 16+__gcov0._ZNSt7__cxx1112basic_stringIcSt11char_traitsIcESaIcEE12_M_constructIPKcEEvT_S8_St20forward_iterator_tag.lto_priv.0(%rip)
	call	_ZNSt7__cxx1112basic_stringIcSt11char_traitsIcESaIcEE9_M_createERyy
	addq	$1, 24+__gcov0._ZNSt7__cxx1112basic_stringIcSt11char_traitsIcESaIcEE12_M_constructIPKcEEvT_S8_St20forward_iterator_tag.lto_priv.0(%rip)
	movq	%rax, (%rsi)
	movq	%rax, %r13
	movq	40(%rsp), %rax
	addq	$1, 40+__gcov0._ZNSt7__cxx1112basic_stringIcSt11char_traitsIcESaIcEE12_M_constructIPKcEEvT_S8_St20forward_iterator_tag.lto_priv.0(%rip)
	movq	%rax, 16(%rsi)
.L409:
	movq	%rbx, %rdx
	leaq	__gcov3._ZNSt7__cxx1112basic_stringIcSt11char_traitsIcESaIcEE12_M_constructIPKcEEvT_S8_St20forward_iterator_tag.lto_priv.0(%rip), %rcx
	addq	$1, 48+__gcov0._ZNSt7__cxx1112basic_stringIcSt11char_traitsIcESaIcEE12_M_constructIPKcEEvT_S8_St20forward_iterator_tag.lto_priv.0(%rip)
	call	__gcov_topn_values_profiler
	movq	%rbx, %rdx
	leaq	__gcov5._ZNSt7__cxx1112basic_stringIcSt11char_traitsIcESaIcEE12_M_constructIPKcEEvT_S8_St20forward_iterator_tag.lto_priv.0(%rip), %rcx
	call	__gcov_average_profiler
	movq	%r13, %rdx
	leaq	__gcov6._ZNSt7__cxx1112basic_stringIcSt11char_traitsIcESaIcEE12_M_constructIPKcEEvT_S8_St20forward_iterator_tag.lto_priv.0(%rip), %rcx
	call	__gcov_ior_profiler
	movq	%r13, %rcx
	movq	%rbx, %r8
	movq	%r12, %rdx
	call	memcpy
	movq	(%rsi), %r13
	jmp	.L411
	.p2align 4,,10
	.p2align 3
.L417:
	addq	$1, __gcov0._ZNSt7__cxx1112basic_stringIcSt11char_traitsIcESaIcEE12_M_constructIPKcEEvT_S8_St20forward_iterator_tag.lto_priv.0(%rip)
	testq	%rbx, %rbx
	jne	.L419
	addq	$1, 40+__gcov0._ZNSt7__cxx1112basic_stringIcSt11char_traitsIcESaIcEE12_M_constructIPKcEEvT_S8_St20forward_iterator_tag.lto_priv.0(%rip)
	movq	(%rsi), %r13
	movq	$0, 40(%rsp)
	jmp	.L411
	.p2align 4,,10
	.p2align 3
.L410:
	addq	$1, 40+__gcov0._ZNSt7__cxx1112basic_stringIcSt11char_traitsIcESaIcEE12_M_constructIPKcEEvT_S8_St20forward_iterator_tag.lto_priv.0(%rip)
	testq	%rbx, %rbx
	jne	.L409
	jmp	.L411
.L419:
	leaq	.LC2(%rip), %rcx
	addq	$1, 8+__gcov0._ZNSt7__cxx1112basic_stringIcSt11char_traitsIcESaIcEE12_M_constructIPKcEEvT_S8_St20forward_iterator_tag.lto_priv.0(%rip)
	call	_ZSt19__throw_logic_errorPKc
	nop
	.seh_endproc
	.align 2
	.p2align 4
	.globl	_ZNSt7__cxx1112basic_stringIcSt11char_traitsIcESaIcEEC1IS3_EEPKcRKS3_
	.def	_ZNSt7__cxx1112basic_stringIcSt11char_traitsIcESaIcEEC1IS3_EEPKcRKS3_;	.scl	2;	.type	32;	.endef
	.seh_proc	_ZNSt7__cxx1112basic_stringIcSt11char_traitsIcESaIcEEC1IS3_EEPKcRKS3_
_ZNSt7__cxx1112basic_stringIcSt11char_traitsIcESaIcEEC1IS3_EEPKcRKS3_:
	pushq	%r13
	.seh_pushreg	%r13
	pushq	%r12
	.seh_pushreg	%r12
	subq	$40, %rsp
	.seh_stackalloc	40
	.seh_endprologue
	movq	.refptr.__gcov_indirect_call(%rip), %rax
	cmpq	$0, (%rax)
	movq	%rcx, %r13
	movq	%rdx, %r12
	je	.L421
	leaq	_ZNSt7__cxx1112basic_stringIcSt11char_traitsIcESaIcEEC1IS3_EEPKcRKS3_(%rip), %rdx
	movl	$337037418, %ecx
	call	__gcov_indirect_call_profiler_v4
.L421:
	cmpq	$0, __gcov7._ZNSt7__cxx1112basic_stringIcSt11char_traitsIcESaIcEEC1IS3_EEPKcRKS3_.lto_priv.0(%rip)
	jne	.L422
	movq	.refptr.__gcov_time_profiler_counter(%rip), %rdx
	movq	(%rdx), %rax
	addq	$1, %rax
	movq	%rax, __gcov7._ZNSt7__cxx1112basic_stringIcSt11char_traitsIcESaIcEEC1IS3_EEPKcRKS3_.lto_priv.0(%rip)
	movq	%rax, (%rdx)
.L422:
	leaq	16(%r13), %rax
	movq	%rax, 0(%r13)
	testq	%r12, %r12
	je	.L425
	movq	%r12, %rcx
	addq	$1, __gcov0._ZNSt7__cxx1112basic_stringIcSt11char_traitsIcESaIcEEC1IS3_EEPKcRKS3_.lto_priv.0(%rip)
	call	strlen
	leaq	(%r12,%rax), %r8
.L424:
	xorl	%r9d, %r9d
	movq	%r12, %rdx
	movq	%r13, %rcx
	call	_ZNSt7__cxx1112basic_stringIcSt11char_traitsIcESaIcEE12_M_constructIPKcEEvT_S8_St20forward_iterator_tag
	addq	$1, 16+__gcov0._ZNSt7__cxx1112basic_stringIcSt11char_traitsIcESaIcEEC1IS3_EEPKcRKS3_.lto_priv.0(%rip)
	addq	$40, %rsp
	popq	%r12
	popq	%r13
	ret
	.p2align 4,,10
	.p2align 3
.L425:
	addq	$1, 8+__gcov0._ZNSt7__cxx1112basic_stringIcSt11char_traitsIcESaIcEEC1IS3_EEPKcRKS3_.lto_priv.0(%rip)
	movl	$1, %r8d
	jmp	.L424
	.seh_endproc
	.align 2
	.p2align 4
	.def	_ZNSt6vectorINSt7__cxx1112basic_stringIcSt11char_traitsIcESaIcEEESaIS5_EE17_M_realloc_insertIJRA11_KcEEEvN9__gnu_cxx17__normal_iteratorIPS5_S7_EEDpOT_;	.scl	3;	.type	32;	.endef
	.seh_proc	_ZNSt6vectorINSt7__cxx1112basic_stringIcSt11char_traitsIcESaIcEEESaIS5_EE17_M_realloc_insertIJRA11_KcEEEvN9__gnu_cxx17__normal_iteratorIPS5_S7_EEDpOT_
_ZNSt6vectorINSt7__cxx1112basic_stringIcSt11char_traitsIcESaIcEEESaIS5_EE17_M_realloc_insertIJRA11_KcEEEvN9__gnu_cxx17__normal_iteratorIPS5_S7_EEDpOT_:
	pushq	%r15
	.seh_pushreg	%r15
	pushq	%r14
	.seh_pushreg	%r14
	pushq	%r13
	.seh_pushreg	%r13
	pushq	%r12
	.seh_pushreg	%r12
	pushq	%rbp
	.seh_pushreg	%rbp
	pushq	%rdi
	.seh_pushreg	%rdi
	pushq	%rsi
	.seh_pushreg	%rsi
	pushq	%rbx
	.seh_pushreg	%rbx
	subq	$88, %rsp
	.seh_stackalloc	88
	vmovups	%xmm6, 64(%rsp)
	.seh_savexmm	%xmm6, 64
	.seh_endprologue
	movq	.refptr.__gcov_indirect_call(%rip), %rax
	movq	(%rax), %rax
	movq	%rcx, %r13
	movq	%rdx, %rbp
	movq	%r8, %r14
	testq	%rax, %rax
	jne	.L462
	addq	$1, __gcov0._ZNSt6vectorINSt7__cxx1112basic_stringIcSt11char_traitsIcESaIcEEESaIS5_EE17_M_realloc_insertIJRA11_KcEEEvN9__gnu_cxx17__normal_iteratorIPS5_S7_EEDpOT_(%rip)
	cmpq	$0, __gcov7._ZNSt6vectorINSt7__cxx1112basic_stringIcSt11char_traitsIcESaIcEEESaIS5_EE17_M_realloc_insertIJRA11_KcEEEvN9__gnu_cxx17__normal_iteratorIPS5_S7_EEDpOT_(%rip)
	movq	%rdx, %rbx
	je	.L453
.L429:
	cmpq	$0, __gcov7._ZNKSt6vectorINSt7__cxx1112basic_stringIcSt11char_traitsIcESaIcEEESaIS5_EE12_M_check_lenEyPKc(%rip)
	je	.L463
.L430:
	movq	8(%r13), %rdi
	movq	0(%r13), %r10
	movabsq	$288230376151711743, %rdx
	movq	%rdi, %rax
	subq	%r10, %rax
	sarq	$5, %rax
	cmpq	%rdx, %rax
	je	.L464
	movq	%rbp, %rsi
	subq	%r10, %rsi
	movq	%rsi, 40(%rsp)
	testq	%rax, %rax
	je	.L465
	leaq	(%rax,%rax), %rdx
	cmpq	%rdx, %rax
	jbe	.L434
	addq	$1, 16+__gcov0._ZNKSt6vectorINSt7__cxx1112basic_stringIcSt11char_traitsIcESaIcEEESaIS5_EE12_M_check_lenEyPKc(%rip)
	movabsq	$9223372036854775776, %r15
.L435:
	movq	.refptr.__gcov_indirect_call(%rip), %rax
	addq	$1, 8+__gcov0._ZNSt6vectorINSt7__cxx1112basic_stringIcSt11char_traitsIcESaIcEEESaIS5_EE17_M_realloc_insertIJRA11_KcEEEvN9__gnu_cxx17__normal_iteratorIPS5_S7_EEDpOT_(%rip)
	cmpq	$0, (%rax)
	jne	.L466
	cmpq	$0, __gcov7._ZN9__gnu_cxx13new_allocatorINSt7__cxx1112basic_stringIcSt11char_traitsIcESaIcEEEE8allocateEyPKv.lto_priv.0(%rip)
	je	.L467
.L437:
	movq	%r15, %rcx
	addq	$1, __gcov0._ZN9__gnu_cxx13new_allocatorINSt7__cxx1112basic_stringIcSt11char_traitsIcESaIcEEEE8allocateEyPKv.lto_priv.0(%rip)
	movq	%r10, 56(%rsp)
	call	_Znwy
	addq	$1, 24+__gcov0._ZN9__gnu_cxx13new_allocatorINSt7__cxx1112basic_stringIcSt11char_traitsIcESaIcEEEE8allocateEyPKv.lto_priv.0(%rip)
	movq	56(%rsp), %r10
	movq	%rax, %r12
	leaq	(%rax,%r15), %rax
	movq	40(%rsp), %r15
	addq	$1, 24+__gcov0._ZNSt6vectorINSt7__cxx1112basic_stringIcSt11char_traitsIcESaIcEEESaIS5_EE17_M_realloc_insertIJRA11_KcEEEvN9__gnu_cxx17__normal_iteratorIPS5_S7_EEDpOT_(%rip)
	movq	%rax, 48(%rsp)
	movq	.refptr.__gcov_indirect_call(%rip), %rax
	leaq	32(%r12), %rsi
	addq	%r12, %r15
	cmpq	$0, (%rax)
	jne	.L468
.L452:
	cmpq	$0, __gcov7._ZNSt7__cxx1112basic_stringIcSt11char_traitsIcESaIcEEC1IS3_EEPKcRKS3_.lto_priv.0(%rip)
	je	.L469
.L438:
	leaq	16(%r15), %rax
	movq	%r14, %rcx
	movq	%r10, 40(%rsp)
	movq	%rax, (%r15)
	addq	$1, __gcov0._ZNSt7__cxx1112basic_stringIcSt11char_traitsIcESaIcEEC1IS3_EEPKcRKS3_.lto_priv.0(%rip)
	call	strlen
	xorl	%r9d, %r9d
	movq	%r14, %rdx
	movq	%r15, %rcx
	leaq	(%r14,%rax), %r8
	call	_ZNSt7__cxx1112basic_stringIcSt11char_traitsIcESaIcEE12_M_constructIPKcEEvT_S8_St20forward_iterator_tag
	movq	40(%rsp), %r10
	addq	$1, 16+__gcov0._ZNSt7__cxx1112basic_stringIcSt11char_traitsIcESaIcEEC1IS3_EEPKcRKS3_.lto_priv.0(%rip)
	cmpq	%rbp, %r10
	je	.L439
	movq	%rbp, %rsi
	movq	%r10, %rdx
	movq	%r12, %rax
	subq	%r10, %rsi
	addq	%r12, %rsi
	jmp	.L443
	.p2align 4,,10
	.p2align 3
.L440:
	movq	%rcx, (%rax)
	movq	16(%rdx), %rcx
	addq	$1, 40+__gcov0._ZNSt6vectorINSt7__cxx1112basic_stringIcSt11char_traitsIcESaIcEEESaIS5_EE17_M_realloc_insertIJRA11_KcEEEvN9__gnu_cxx17__normal_iteratorIPS5_S7_EEDpOT_(%rip)
	movq	%rcx, 16(%rax)
.L461:
	movq	8(%rdx), %rcx
	addq	$32, %rax
	addq	$32, %rdx
	movq	%rcx, -24(%rax)
	cmpq	%rsi, %rax
	je	.L470
.L443:
	leaq	16(%rax), %rcx
	leaq	16(%rdx), %r8
	movq	%rcx, (%rax)
	movq	(%rdx), %rcx
	cmpq	%r8, %rcx
	jne	.L440
	vmovdqu	16(%rdx), %xmm0
	addq	$1, 32+__gcov0._ZNSt6vectorINSt7__cxx1112basic_stringIcSt11char_traitsIcESaIcEEESaIS5_EE17_M_realloc_insertIJRA11_KcEEEvN9__gnu_cxx17__normal_iteratorIPS5_S7_EEDpOT_(%rip)
	vmovdqu	%xmm0, 16(%rax)
	jmp	.L461
	.p2align 4,,10
	.p2align 3
.L434:
	addq	$1, 24+__gcov0._ZNKSt6vectorINSt7__cxx1112basic_stringIcSt11char_traitsIcESaIcEEESaIS5_EE12_M_check_lenEyPKc(%rip)
.L433:
	movabsq	$288230376151711743, %rax
	cmpq	%rax, %rdx
	cmovbe	%rdx, %rax
	movq	%rax, %r15
	salq	$5, %r15
	jmp	.L435
	.p2align 4,,10
	.p2align 3
.L470:
	addq	$32, %rsi
.L439:
	cmpq	%rbp, %rdi
	je	.L444
	movq	%rdi, %r8
	movq	%rsi, %rax
	subq	%rbp, %r8
	.p2align 4,,10
	.p2align 3
.L448:
	leaq	16(%rax), %rdx
	leaq	16(%rbx), %rcx
	movq	%rdx, (%rax)
	movq	(%rbx), %rdx
	cmpq	%rcx, %rdx
	je	.L471
	movq	%rdx, (%rax)
	movq	16(%rbx), %rdx
	addq	$32, %rbx
	addq	$32, %rax
	addq	$1, 56+__gcov0._ZNSt6vectorINSt7__cxx1112basic_stringIcSt11char_traitsIcESaIcEEESaIS5_EE17_M_realloc_insertIJRA11_KcEEEvN9__gnu_cxx17__normal_iteratorIPS5_S7_EEDpOT_(%rip)
	movq	%rdx, -16(%rax)
	movq	-24(%rbx), %rdx
	movq	%rdx, -24(%rax)
	cmpq	%rdi, %rbx
	jne	.L448
.L447:
	addq	%r8, %rsi
.L444:
	vmovq	%r12, %xmm2
	movq	16(%r13), %rdx
	vpinsrq	$1, %rsi, %xmm2, %xmm6
	testq	%r10, %r10
	je	.L472
	subq	%r10, %rdx
	movq	%r10, %rcx
	addq	$1, 64+__gcov0._ZNSt6vectorINSt7__cxx1112basic_stringIcSt11char_traitsIcESaIcEEESaIS5_EE17_M_realloc_insertIJRA11_KcEEEvN9__gnu_cxx17__normal_iteratorIPS5_S7_EEDpOT_(%rip)
	call	_ZdlPvy
	addq	$1, 80+__gcov0._ZNSt6vectorINSt7__cxx1112basic_stringIcSt11char_traitsIcESaIcEEESaIS5_EE17_M_realloc_insertIJRA11_KcEEEvN9__gnu_cxx17__normal_iteratorIPS5_S7_EEDpOT_(%rip)
.L450:
	movq	48(%rsp), %rax
	vmovdqu	%xmm6, 0(%r13)
	vmovups	64(%rsp), %xmm6
	movq	%rax, 16(%r13)
	addq	$88, %rsp
	popq	%rbx
	popq	%rsi
	popq	%rdi
	popq	%rbp
	popq	%r12
	popq	%r13
	popq	%r14
	popq	%r15
	ret
	.p2align 4,,10
	.p2align 3
.L471:
	vmovdqu	16(%rbx), %xmm1
	movq	8(%rbx), %rdx
	addq	$32, %rbx
	addq	$32, %rax
	addq	$1, 48+__gcov0._ZNSt6vectorINSt7__cxx1112basic_stringIcSt11char_traitsIcESaIcEEESaIS5_EE17_M_realloc_insertIJRA11_KcEEEvN9__gnu_cxx17__normal_iteratorIPS5_S7_EEDpOT_(%rip)
	vmovdqu	%xmm1, -16(%rax)
	movq	%rdx, -24(%rax)
	cmpq	%rbx, %rdi
	jne	.L448
	jmp	.L447
	.p2align 4,,10
	.p2align 3
.L472:
	addq	$1, 72+__gcov0._ZNSt6vectorINSt7__cxx1112basic_stringIcSt11char_traitsIcESaIcEEESaIS5_EE17_M_realloc_insertIJRA11_KcEEEvN9__gnu_cxx17__normal_iteratorIPS5_S7_EEDpOT_(%rip)
	jmp	.L450
	.p2align 4,,10
	.p2align 3
.L465:
	addq	$1, 8+__gcov0._ZNKSt6vectorINSt7__cxx1112basic_stringIcSt11char_traitsIcESaIcEEESaIS5_EE12_M_check_lenEyPKc(%rip)
	movl	$1, %edx
	addq	$1, 24+__gcov0._ZNKSt6vectorINSt7__cxx1112basic_stringIcSt11char_traitsIcESaIcEEESaIS5_EE12_M_check_lenEyPKc(%rip)
	jmp	.L433
	.p2align 4,,10
	.p2align 3
.L463:
	movq	.refptr.__gcov_time_profiler_counter(%rip), %rdx
	movq	(%rdx), %rax
	addq	$1, %rax
	movq	%rax, __gcov7._ZNKSt6vectorINSt7__cxx1112basic_stringIcSt11char_traitsIcESaIcEEESaIS5_EE12_M_check_lenEyPKc(%rip)
	movq	%rax, (%rdx)
	jmp	.L430
	.p2align 4,,10
	.p2align 3
.L462:
	leaq	_ZNSt6vectorINSt7__cxx1112basic_stringIcSt11char_traitsIcESaIcEEESaIS5_EE17_M_realloc_insertIJRA11_KcEEEvN9__gnu_cxx17__normal_iteratorIPS5_S7_EEDpOT_(%rip), %rdx
	movl	$500342074, %ecx
	call	__gcov_indirect_call_profiler_v4
	movq	.refptr.__gcov_indirect_call(%rip), %rax
	addq	$1, __gcov0._ZNSt6vectorINSt7__cxx1112basic_stringIcSt11char_traitsIcESaIcEEESaIS5_EE17_M_realloc_insertIJRA11_KcEEEvN9__gnu_cxx17__normal_iteratorIPS5_S7_EEDpOT_(%rip)
	cmpq	$0, __gcov7._ZNSt6vectorINSt7__cxx1112basic_stringIcSt11char_traitsIcESaIcEEESaIS5_EE17_M_realloc_insertIJRA11_KcEEEvN9__gnu_cxx17__normal_iteratorIPS5_S7_EEDpOT_(%rip)
	movq	(%rax), %rax
	jne	.L428
.L453:
	movq	.refptr.__gcov_time_profiler_counter(%rip), %rcx
	movq	(%rcx), %rdi
	leaq	1(%rdi), %rdx
	movq	%rdx, __gcov7._ZNSt6vectorINSt7__cxx1112basic_stringIcSt11char_traitsIcESaIcEEESaIS5_EE17_M_realloc_insertIJRA11_KcEEEvN9__gnu_cxx17__normal_iteratorIPS5_S7_EEDpOT_(%rip)
	movq	%rdx, (%rcx)
.L428:
	movq	%rbp, %rbx
	testq	%rax, %rax
	je	.L429
	leaq	_ZNKSt6vectorINSt7__cxx1112basic_stringIcSt11char_traitsIcESaIcEEESaIS5_EE12_M_check_lenEyPKc(%rip), %rdx
	movl	$1858249242, %ecx
	call	__gcov_indirect_call_profiler_v4
	jmp	.L429
	.p2align 4,,10
	.p2align 3
.L467:
	movq	.refptr.__gcov_time_profiler_counter(%rip), %rdx
	movq	(%rdx), %rax
	addq	$1, %rax
	movq	%rax, __gcov7._ZN9__gnu_cxx13new_allocatorINSt7__cxx1112basic_stringIcSt11char_traitsIcESaIcEEEE8allocateEyPKv.lto_priv.0(%rip)
	movq	%rax, (%rdx)
	jmp	.L437
	.p2align 4,,10
	.p2align 3
.L466:
	leaq	_ZN9__gnu_cxx13new_allocatorINSt7__cxx1112basic_stringIcSt11char_traitsIcESaIcEEEE8allocateEyPKv(%rip), %rdx
	movl	$774033910, %ecx
	movq	%r10, 48(%rsp)
	call	__gcov_indirect_call_profiler_v4
	cmpq	$0, __gcov7._ZN9__gnu_cxx13new_allocatorINSt7__cxx1112basic_stringIcSt11char_traitsIcESaIcEEEE8allocateEyPKv.lto_priv.0(%rip)
	movq	48(%rsp), %r10
	jne	.L437
	jmp	.L467
	.p2align 4,,10
	.p2align 3
.L469:
	movq	.refptr.__gcov_time_profiler_counter(%rip), %rdx
	movq	(%rdx), %rax
	addq	$1, %rax
	movq	%rax, __gcov7._ZNSt7__cxx1112basic_stringIcSt11char_traitsIcESaIcEEC1IS3_EEPKcRKS3_.lto_priv.0(%rip)
	movq	%rax, (%rdx)
	jmp	.L438
	.p2align 4,,10
	.p2align 3
.L468:
	leaq	_ZNSt7__cxx1112basic_stringIcSt11char_traitsIcESaIcEEC1IS3_EEPKcRKS3_(%rip), %rdx
	movl	$337037418, %ecx
	movq	%r10, 40(%rsp)
	call	__gcov_indirect_call_profiler_v4
	movq	40(%rsp), %r10
	jmp	.L452
.L464:
	leaq	.LC1(%rip), %rcx
	addq	$1, __gcov0._ZNKSt6vectorINSt7__cxx1112basic_stringIcSt11char_traitsIcESaIcEEESaIS5_EE12_M_check_lenEyPKc(%rip)
	call	_ZSt20__throw_length_errorPKc
	nop
	.seh_endproc
	.align 2
	.p2align 4
	.def	_ZNSt6vectorINSt7__cxx1112basic_stringIcSt11char_traitsIcESaIcEEESaIS5_EE12emplace_backIJRA11_KcEEERS5_DpOT_;	.scl	3;	.type	32;	.endef
	.seh_proc	_ZNSt6vectorINSt7__cxx1112basic_stringIcSt11char_traitsIcESaIcEEESaIS5_EE12emplace_backIJRA11_KcEEERS5_DpOT_
_ZNSt6vectorINSt7__cxx1112basic_stringIcSt11char_traitsIcESaIcEEESaIS5_EE12emplace_backIJRA11_KcEEERS5_DpOT_:
	pushq	%r13
	.seh_pushreg	%r13
	pushq	%r12
	.seh_pushreg	%r12
	pushq	%rsi
	.seh_pushreg	%rsi
	pushq	%rbx
	.seh_pushreg	%rbx
	subq	$40, %rsp
	.seh_stackalloc	40
	.seh_endprologue
	movq	.refptr.__gcov_indirect_call(%rip), %rsi
	cmpq	$0, (%rsi)
	movq	%rcx, %rbx
	movq	%rdx, %r12
	jne	.L480
.L474:
	cmpq	$0, __gcov7._ZNSt6vectorINSt7__cxx1112basic_stringIcSt11char_traitsIcESaIcEEESaIS5_EE12emplace_backIJRA11_KcEEERS5_DpOT_(%rip)
	je	.L481
.L475:
	movq	8(%rbx), %r13
	cmpq	16(%rbx), %r13
	je	.L476
	addq	$1, __gcov0._ZNSt6vectorINSt7__cxx1112basic_stringIcSt11char_traitsIcESaIcEEESaIS5_EE12emplace_backIJRA11_KcEEERS5_DpOT_(%rip)
	cmpq	$0, (%rsi)
	jne	.L482
	cmpq	$0, __gcov7._ZNSt7__cxx1112basic_stringIcSt11char_traitsIcESaIcEEC1IS3_EEPKcRKS3_.lto_priv.0(%rip)
	je	.L483
.L478:
	leaq	16(%r13), %rax
	movq	%r12, %rcx
	addq	$1, __gcov0._ZNSt7__cxx1112basic_stringIcSt11char_traitsIcESaIcEEC1IS3_EEPKcRKS3_.lto_priv.0(%rip)
	movq	%rax, 0(%r13)
	call	strlen
	movq	%r12, %rdx
	xorl	%r9d, %r9d
	movq	%r13, %rcx
	leaq	(%r12,%rax), %r8
	call	_ZNSt7__cxx1112basic_stringIcSt11char_traitsIcESaIcEE12_M_constructIPKcEEvT_S8_St20forward_iterator_tag
	addq	$1, 16+__gcov0._ZNSt7__cxx1112basic_stringIcSt11char_traitsIcESaIcEEC1IS3_EEPKcRKS3_.lto_priv.0(%rip)
	movq	8(%rbx), %rax
	addq	$1, 16+__gcov0._ZNSt6vectorINSt7__cxx1112basic_stringIcSt11char_traitsIcESaIcEEESaIS5_EE12emplace_backIJRA11_KcEEERS5_DpOT_(%rip)
	leaq	32(%rax), %rdx
	movq	%rdx, 8(%rbx)
	addq	$40, %rsp
	popq	%rbx
	popq	%rsi
	popq	%r12
	popq	%r13
	ret
	.p2align 4,,10
	.p2align 3
.L476:
	movq	%r12, %r8
	movq	%r13, %rdx
	movq	%rbx, %rcx
	addq	$1, 8+__gcov0._ZNSt6vectorINSt7__cxx1112basic_stringIcSt11char_traitsIcESaIcEEESaIS5_EE12emplace_backIJRA11_KcEEERS5_DpOT_(%rip)
	call	_ZNSt6vectorINSt7__cxx1112basic_stringIcSt11char_traitsIcESaIcEEESaIS5_EE17_M_realloc_insertIJRA11_KcEEEvN9__gnu_cxx17__normal_iteratorIPS5_S7_EEDpOT_
	addq	$1, 24+__gcov0._ZNSt6vectorINSt7__cxx1112basic_stringIcSt11char_traitsIcESaIcEEESaIS5_EE12emplace_backIJRA11_KcEEERS5_DpOT_(%rip)
	movq	8(%rbx), %rax
	subq	$32, %rax
	addq	$40, %rsp
	popq	%rbx
	popq	%rsi
	popq	%r12
	popq	%r13
	ret
	.p2align 4,,10
	.p2align 3
.L481:
	movq	.refptr.__gcov_time_profiler_counter(%rip), %rdx
	movq	(%rdx), %rax
	addq	$1, %rax
	movq	%rax, __gcov7._ZNSt6vectorINSt7__cxx1112basic_stringIcSt11char_traitsIcESaIcEEESaIS5_EE12emplace_backIJRA11_KcEEERS5_DpOT_(%rip)
	movq	%rax, (%rdx)
	jmp	.L475
	.p2align 4,,10
	.p2align 3
.L480:
	leaq	_ZNSt6vectorINSt7__cxx1112basic_stringIcSt11char_traitsIcESaIcEEESaIS5_EE12emplace_backIJRA11_KcEEERS5_DpOT_(%rip), %rdx
	movl	$601295526, %ecx
	call	__gcov_indirect_call_profiler_v4
	jmp	.L474
	.p2align 4,,10
	.p2align 3
.L482:
	leaq	_ZNSt7__cxx1112basic_stringIcSt11char_traitsIcESaIcEEC1IS3_EEPKcRKS3_(%rip), %rdx
	movl	$337037418, %ecx
	call	__gcov_indirect_call_profiler_v4
	cmpq	$0, __gcov7._ZNSt7__cxx1112basic_stringIcSt11char_traitsIcESaIcEEC1IS3_EEPKcRKS3_.lto_priv.0(%rip)
	jne	.L478
	.p2align 4,,10
	.p2align 3
.L483:
	movq	.refptr.__gcov_time_profiler_counter(%rip), %rdx
	movq	(%rdx), %rax
	addq	$1, %rax
	movq	%rax, __gcov7._ZNSt7__cxx1112basic_stringIcSt11char_traitsIcESaIcEEC1IS3_EEPKcRKS3_.lto_priv.0(%rip)
	movq	%rax, (%rdx)
	jmp	.L478
	.seh_endproc
	.align 2
	.p2align 4
	.def	_ZNSt6vectorINSt7__cxx1112basic_stringIcSt11char_traitsIcESaIcEEESaIS5_EE17_M_realloc_insertIJRA36_KcEEEvN9__gnu_cxx17__normal_iteratorIPS5_S7_EEDpOT_;	.scl	3;	.type	32;	.endef
	.seh_proc	_ZNSt6vectorINSt7__cxx1112basic_stringIcSt11char_traitsIcESaIcEEESaIS5_EE17_M_realloc_insertIJRA36_KcEEEvN9__gnu_cxx17__normal_iteratorIPS5_S7_EEDpOT_
_ZNSt6vectorINSt7__cxx1112basic_stringIcSt11char_traitsIcESaIcEEESaIS5_EE17_M_realloc_insertIJRA36_KcEEEvN9__gnu_cxx17__normal_iteratorIPS5_S7_EEDpOT_:
	pushq	%r15
	.seh_pushreg	%r15
	pushq	%r14
	.seh_pushreg	%r14
	pushq	%r13
	.seh_pushreg	%r13
	pushq	%r12
	.seh_pushreg	%r12
	pushq	%rbp
	.seh_pushreg	%rbp
	pushq	%rdi
	.seh_pushreg	%rdi
	pushq	%rsi
	.seh_pushreg	%rsi
	pushq	%rbx
	.seh_pushreg	%rbx
	subq	$88, %rsp
	.seh_stackalloc	88
	vmovups	%xmm6, 64(%rsp)
	.seh_savexmm	%xmm6, 64
	.seh_endprologue
	movq	.refptr.__gcov_indirect_call(%rip), %rax
	movq	(%rax), %rax
	movq	%rcx, %r13
	movq	%rdx, %rbp
	movq	%r8, %r14
	testq	%rax, %rax
	jne	.L520
	addq	$1, __gcov0._ZNSt6vectorINSt7__cxx1112basic_stringIcSt11char_traitsIcESaIcEEESaIS5_EE17_M_realloc_insertIJRA36_KcEEEvN9__gnu_cxx17__normal_iteratorIPS5_S7_EEDpOT_(%rip)
	cmpq	$0, __gcov7._ZNSt6vectorINSt7__cxx1112basic_stringIcSt11char_traitsIcESaIcEEESaIS5_EE17_M_realloc_insertIJRA36_KcEEEvN9__gnu_cxx17__normal_iteratorIPS5_S7_EEDpOT_(%rip)
	movq	%rdx, %rbx
	je	.L511
.L487:
	cmpq	$0, __gcov7._ZNKSt6vectorINSt7__cxx1112basic_stringIcSt11char_traitsIcESaIcEEESaIS5_EE12_M_check_lenEyPKc(%rip)
	je	.L521
.L488:
	movq	8(%r13), %rdi
	movq	0(%r13), %r10
	movabsq	$288230376151711743, %rdx
	movq	%rdi, %rax
	subq	%r10, %rax
	sarq	$5, %rax
	cmpq	%rdx, %rax
	je	.L522
	movq	%rbp, %rsi
	subq	%r10, %rsi
	movq	%rsi, 40(%rsp)
	testq	%rax, %rax
	je	.L523
	leaq	(%rax,%rax), %rdx
	cmpq	%rdx, %rax
	jbe	.L492
	addq	$1, 16+__gcov0._ZNKSt6vectorINSt7__cxx1112basic_stringIcSt11char_traitsIcESaIcEEESaIS5_EE12_M_check_lenEyPKc(%rip)
	movabsq	$9223372036854775776, %r15
.L493:
	movq	.refptr.__gcov_indirect_call(%rip), %rax
	addq	$1, 8+__gcov0._ZNSt6vectorINSt7__cxx1112basic_stringIcSt11char_traitsIcESaIcEEESaIS5_EE17_M_realloc_insertIJRA36_KcEEEvN9__gnu_cxx17__normal_iteratorIPS5_S7_EEDpOT_(%rip)
	cmpq	$0, (%rax)
	jne	.L524
	cmpq	$0, __gcov7._ZN9__gnu_cxx13new_allocatorINSt7__cxx1112basic_stringIcSt11char_traitsIcESaIcEEEE8allocateEyPKv.lto_priv.0(%rip)
	je	.L525
.L495:
	movq	%r15, %rcx
	addq	$1, __gcov0._ZN9__gnu_cxx13new_allocatorINSt7__cxx1112basic_stringIcSt11char_traitsIcESaIcEEEE8allocateEyPKv.lto_priv.0(%rip)
	movq	%r10, 56(%rsp)
	call	_Znwy
	addq	$1, 24+__gcov0._ZN9__gnu_cxx13new_allocatorINSt7__cxx1112basic_stringIcSt11char_traitsIcESaIcEEEE8allocateEyPKv.lto_priv.0(%rip)
	movq	56(%rsp), %r10
	movq	%rax, %r12
	leaq	(%rax,%r15), %rax
	movq	40(%rsp), %r15
	addq	$1, 24+__gcov0._ZNSt6vectorINSt7__cxx1112basic_stringIcSt11char_traitsIcESaIcEEESaIS5_EE17_M_realloc_insertIJRA36_KcEEEvN9__gnu_cxx17__normal_iteratorIPS5_S7_EEDpOT_(%rip)
	movq	%rax, 48(%rsp)
	movq	.refptr.__gcov_indirect_call(%rip), %rax
	leaq	32(%r12), %rsi
	addq	%r12, %r15
	cmpq	$0, (%rax)
	jne	.L526
.L510:
	cmpq	$0, __gcov7._ZNSt7__cxx1112basic_stringIcSt11char_traitsIcESaIcEEC1IS3_EEPKcRKS3_.lto_priv.0(%rip)
	je	.L527
.L496:
	leaq	16(%r15), %rax
	movq	%r14, %rcx
	movq	%r10, 40(%rsp)
	movq	%rax, (%r15)
	addq	$1, __gcov0._ZNSt7__cxx1112basic_stringIcSt11char_traitsIcESaIcEEC1IS3_EEPKcRKS3_.lto_priv.0(%rip)
	call	strlen
	xorl	%r9d, %r9d
	movq	%r14, %rdx
	movq	%r15, %rcx
	leaq	(%r14,%rax), %r8
	call	_ZNSt7__cxx1112basic_stringIcSt11char_traitsIcESaIcEE12_M_constructIPKcEEvT_S8_St20forward_iterator_tag
	movq	40(%rsp), %r10
	addq	$1, 16+__gcov0._ZNSt7__cxx1112basic_stringIcSt11char_traitsIcESaIcEEC1IS3_EEPKcRKS3_.lto_priv.0(%rip)
	cmpq	%rbp, %r10
	je	.L497
	movq	%rbp, %rsi
	movq	%r10, %rdx
	movq	%r12, %rax
	subq	%r10, %rsi
	addq	%r12, %rsi
	jmp	.L501
	.p2align 4,,10
	.p2align 3
.L498:
	movq	%rcx, (%rax)
	movq	16(%rdx), %rcx
	addq	$1, 40+__gcov0._ZNSt6vectorINSt7__cxx1112basic_stringIcSt11char_traitsIcESaIcEEESaIS5_EE17_M_realloc_insertIJRA36_KcEEEvN9__gnu_cxx17__normal_iteratorIPS5_S7_EEDpOT_(%rip)
	movq	%rcx, 16(%rax)
.L519:
	movq	8(%rdx), %rcx
	addq	$32, %rax
	addq	$32, %rdx
	movq	%rcx, -24(%rax)
	cmpq	%rsi, %rax
	je	.L528
.L501:
	leaq	16(%rax), %rcx
	leaq	16(%rdx), %r8
	movq	%rcx, (%rax)
	movq	(%rdx), %rcx
	cmpq	%r8, %rcx
	jne	.L498
	vmovdqu	16(%rdx), %xmm0
	addq	$1, 32+__gcov0._ZNSt6vectorINSt7__cxx1112basic_stringIcSt11char_traitsIcESaIcEEESaIS5_EE17_M_realloc_insertIJRA36_KcEEEvN9__gnu_cxx17__normal_iteratorIPS5_S7_EEDpOT_(%rip)
	vmovdqu	%xmm0, 16(%rax)
	jmp	.L519
	.p2align 4,,10
	.p2align 3
.L492:
	addq	$1, 24+__gcov0._ZNKSt6vectorINSt7__cxx1112basic_stringIcSt11char_traitsIcESaIcEEESaIS5_EE12_M_check_lenEyPKc(%rip)
.L491:
	movabsq	$288230376151711743, %rax
	cmpq	%rax, %rdx
	cmovbe	%rdx, %rax
	movq	%rax, %r15
	salq	$5, %r15
	jmp	.L493
	.p2align 4,,10
	.p2align 3
.L528:
	addq	$32, %rsi
.L497:
	cmpq	%rbp, %rdi
	je	.L502
	movq	%rdi, %r8
	movq	%rsi, %rax
	subq	%rbp, %r8
	.p2align 4,,10
	.p2align 3
.L506:
	leaq	16(%rax), %rdx
	leaq	16(%rbx), %rcx
	movq	%rdx, (%rax)
	movq	(%rbx), %rdx
	cmpq	%rcx, %rdx
	je	.L529
	movq	%rdx, (%rax)
	movq	16(%rbx), %rdx
	addq	$32, %rbx
	addq	$32, %rax
	addq	$1, 56+__gcov0._ZNSt6vectorINSt7__cxx1112basic_stringIcSt11char_traitsIcESaIcEEESaIS5_EE17_M_realloc_insertIJRA36_KcEEEvN9__gnu_cxx17__normal_iteratorIPS5_S7_EEDpOT_(%rip)
	movq	%rdx, -16(%rax)
	movq	-24(%rbx), %rdx
	movq	%rdx, -24(%rax)
	cmpq	%rdi, %rbx
	jne	.L506
.L505:
	addq	%r8, %rsi
.L502:
	vmovq	%r12, %xmm2
	movq	16(%r13), %rdx
	vpinsrq	$1, %rsi, %xmm2, %xmm6
	testq	%r10, %r10
	je	.L530
	subq	%r10, %rdx
	movq	%r10, %rcx
	addq	$1, 64+__gcov0._ZNSt6vectorINSt7__cxx1112basic_stringIcSt11char_traitsIcESaIcEEESaIS5_EE17_M_realloc_insertIJRA36_KcEEEvN9__gnu_cxx17__normal_iteratorIPS5_S7_EEDpOT_(%rip)
	call	_ZdlPvy
	addq	$1, 80+__gcov0._ZNSt6vectorINSt7__cxx1112basic_stringIcSt11char_traitsIcESaIcEEESaIS5_EE17_M_realloc_insertIJRA36_KcEEEvN9__gnu_cxx17__normal_iteratorIPS5_S7_EEDpOT_(%rip)
.L508:
	movq	48(%rsp), %rax
	vmovdqu	%xmm6, 0(%r13)
	vmovups	64(%rsp), %xmm6
	movq	%rax, 16(%r13)
	addq	$88, %rsp
	popq	%rbx
	popq	%rsi
	popq	%rdi
	popq	%rbp
	popq	%r12
	popq	%r13
	popq	%r14
	popq	%r15
	ret
	.p2align 4,,10
	.p2align 3
.L529:
	vmovdqu	16(%rbx), %xmm1
	movq	8(%rbx), %rdx
	addq	$32, %rbx
	addq	$32, %rax
	addq	$1, 48+__gcov0._ZNSt6vectorINSt7__cxx1112basic_stringIcSt11char_traitsIcESaIcEEESaIS5_EE17_M_realloc_insertIJRA36_KcEEEvN9__gnu_cxx17__normal_iteratorIPS5_S7_EEDpOT_(%rip)
	vmovdqu	%xmm1, -16(%rax)
	movq	%rdx, -24(%rax)
	cmpq	%rbx, %rdi
	jne	.L506
	jmp	.L505
	.p2align 4,,10
	.p2align 3
.L530:
	addq	$1, 72+__gcov0._ZNSt6vectorINSt7__cxx1112basic_stringIcSt11char_traitsIcESaIcEEESaIS5_EE17_M_realloc_insertIJRA36_KcEEEvN9__gnu_cxx17__normal_iteratorIPS5_S7_EEDpOT_(%rip)
	jmp	.L508
	.p2align 4,,10
	.p2align 3
.L523:
	addq	$1, 8+__gcov0._ZNKSt6vectorINSt7__cxx1112basic_stringIcSt11char_traitsIcESaIcEEESaIS5_EE12_M_check_lenEyPKc(%rip)
	movl	$1, %edx
	addq	$1, 24+__gcov0._ZNKSt6vectorINSt7__cxx1112basic_stringIcSt11char_traitsIcESaIcEEESaIS5_EE12_M_check_lenEyPKc(%rip)
	jmp	.L491
	.p2align 4,,10
	.p2align 3
.L521:
	movq	.refptr.__gcov_time_profiler_counter(%rip), %rdx
	movq	(%rdx), %rax
	addq	$1, %rax
	movq	%rax, __gcov7._ZNKSt6vectorINSt7__cxx1112basic_stringIcSt11char_traitsIcESaIcEEESaIS5_EE12_M_check_lenEyPKc(%rip)
	movq	%rax, (%rdx)
	jmp	.L488
	.p2align 4,,10
	.p2align 3
.L520:
	leaq	_ZNSt6vectorINSt7__cxx1112basic_stringIcSt11char_traitsIcESaIcEEESaIS5_EE17_M_realloc_insertIJRA36_KcEEEvN9__gnu_cxx17__normal_iteratorIPS5_S7_EEDpOT_(%rip), %rdx
	movl	$759481980, %ecx
	call	__gcov_indirect_call_profiler_v4
	movq	.refptr.__gcov_indirect_call(%rip), %rax
	addq	$1, __gcov0._ZNSt6vectorINSt7__cxx1112basic_stringIcSt11char_traitsIcESaIcEEESaIS5_EE17_M_realloc_insertIJRA36_KcEEEvN9__gnu_cxx17__normal_iteratorIPS5_S7_EEDpOT_(%rip)
	cmpq	$0, __gcov7._ZNSt6vectorINSt7__cxx1112basic_stringIcSt11char_traitsIcESaIcEEESaIS5_EE17_M_realloc_insertIJRA36_KcEEEvN9__gnu_cxx17__normal_iteratorIPS5_S7_EEDpOT_(%rip)
	movq	(%rax), %rax
	jne	.L486
.L511:
	movq	.refptr.__gcov_time_profiler_counter(%rip), %rcx
	movq	(%rcx), %rdi
	leaq	1(%rdi), %rdx
	movq	%rdx, __gcov7._ZNSt6vectorINSt7__cxx1112basic_stringIcSt11char_traitsIcESaIcEEESaIS5_EE17_M_realloc_insertIJRA36_KcEEEvN9__gnu_cxx17__normal_iteratorIPS5_S7_EEDpOT_(%rip)
	movq	%rdx, (%rcx)
.L486:
	movq	%rbp, %rbx
	testq	%rax, %rax
	je	.L487
	leaq	_ZNKSt6vectorINSt7__cxx1112basic_stringIcSt11char_traitsIcESaIcEEESaIS5_EE12_M_check_lenEyPKc(%rip), %rdx
	movl	$1858249242, %ecx
	call	__gcov_indirect_call_profiler_v4
	jmp	.L487
	.p2align 4,,10
	.p2align 3
.L525:
	movq	.refptr.__gcov_time_profiler_counter(%rip), %rdx
	movq	(%rdx), %rax
	addq	$1, %rax
	movq	%rax, __gcov7._ZN9__gnu_cxx13new_allocatorINSt7__cxx1112basic_stringIcSt11char_traitsIcESaIcEEEE8allocateEyPKv.lto_priv.0(%rip)
	movq	%rax, (%rdx)
	jmp	.L495
	.p2align 4,,10
	.p2align 3
.L524:
	leaq	_ZN9__gnu_cxx13new_allocatorINSt7__cxx1112basic_stringIcSt11char_traitsIcESaIcEEEE8allocateEyPKv(%rip), %rdx
	movl	$774033910, %ecx
	movq	%r10, 48(%rsp)
	call	__gcov_indirect_call_profiler_v4
	cmpq	$0, __gcov7._ZN9__gnu_cxx13new_allocatorINSt7__cxx1112basic_stringIcSt11char_traitsIcESaIcEEEE8allocateEyPKv.lto_priv.0(%rip)
	movq	48(%rsp), %r10
	jne	.L495
	jmp	.L525
	.p2align 4,,10
	.p2align 3
.L527:
	movq	.refptr.__gcov_time_profiler_counter(%rip), %rdx
	movq	(%rdx), %rax
	addq	$1, %rax
	movq	%rax, __gcov7._ZNSt7__cxx1112basic_stringIcSt11char_traitsIcESaIcEEC1IS3_EEPKcRKS3_.lto_priv.0(%rip)
	movq	%rax, (%rdx)
	jmp	.L496
	.p2align 4,,10
	.p2align 3
.L526:
	leaq	_ZNSt7__cxx1112basic_stringIcSt11char_traitsIcESaIcEEC1IS3_EEPKcRKS3_(%rip), %rdx
	movl	$337037418, %ecx
	movq	%r10, 40(%rsp)
	call	__gcov_indirect_call_profiler_v4
	movq	40(%rsp), %r10
	jmp	.L510
.L522:
	leaq	.LC1(%rip), %rcx
	addq	$1, __gcov0._ZNKSt6vectorINSt7__cxx1112basic_stringIcSt11char_traitsIcESaIcEEESaIS5_EE12_M_check_lenEyPKc(%rip)
	call	_ZSt20__throw_length_errorPKc
	nop
	.seh_endproc
	.align 2
	.p2align 4
	.def	_ZNSt6vectorINSt7__cxx1112basic_stringIcSt11char_traitsIcESaIcEEESaIS5_EE12emplace_backIJRA36_KcEEERS5_DpOT_;	.scl	3;	.type	32;	.endef
	.seh_proc	_ZNSt6vectorINSt7__cxx1112basic_stringIcSt11char_traitsIcESaIcEEESaIS5_EE12emplace_backIJRA36_KcEEERS5_DpOT_
_ZNSt6vectorINSt7__cxx1112basic_stringIcSt11char_traitsIcESaIcEEESaIS5_EE12emplace_backIJRA36_KcEEERS5_DpOT_:
	pushq	%r13
	.seh_pushreg	%r13
	pushq	%r12
	.seh_pushreg	%r12
	pushq	%rsi
	.seh_pushreg	%rsi
	pushq	%rbx
	.seh_pushreg	%rbx
	subq	$40, %rsp
	.seh_stackalloc	40
	.seh_endprologue
	movq	.refptr.__gcov_indirect_call(%rip), %rsi
	cmpq	$0, (%rsi)
	movq	%rcx, %rbx
	movq	%rdx, %r12
	jne	.L538
.L532:
	cmpq	$0, __gcov7._ZNSt6vectorINSt7__cxx1112basic_stringIcSt11char_traitsIcESaIcEEESaIS5_EE12emplace_backIJRA36_KcEEERS5_DpOT_(%rip)
	je	.L539
.L533:
	movq	8(%rbx), %r13
	cmpq	16(%rbx), %r13
	je	.L534
	addq	$1, __gcov0._ZNSt6vectorINSt7__cxx1112basic_stringIcSt11char_traitsIcESaIcEEESaIS5_EE12emplace_backIJRA36_KcEEERS5_DpOT_(%rip)
	cmpq	$0, (%rsi)
	jne	.L540
	cmpq	$0, __gcov7._ZNSt7__cxx1112basic_stringIcSt11char_traitsIcESaIcEEC1IS3_EEPKcRKS3_.lto_priv.0(%rip)
	je	.L541
.L536:
	leaq	16(%r13), %rax
	movq	%r12, %rcx
	addq	$1, __gcov0._ZNSt7__cxx1112basic_stringIcSt11char_traitsIcESaIcEEC1IS3_EEPKcRKS3_.lto_priv.0(%rip)
	movq	%rax, 0(%r13)
	call	strlen
	movq	%r12, %rdx
	xorl	%r9d, %r9d
	movq	%r13, %rcx
	leaq	(%r12,%rax), %r8
	call	_ZNSt7__cxx1112basic_stringIcSt11char_traitsIcESaIcEE12_M_constructIPKcEEvT_S8_St20forward_iterator_tag
	addq	$1, 16+__gcov0._ZNSt7__cxx1112basic_stringIcSt11char_traitsIcESaIcEEC1IS3_EEPKcRKS3_.lto_priv.0(%rip)
	movq	8(%rbx), %rax
	addq	$1, 16+__gcov0._ZNSt6vectorINSt7__cxx1112basic_stringIcSt11char_traitsIcESaIcEEESaIS5_EE12emplace_backIJRA36_KcEEERS5_DpOT_(%rip)
	leaq	32(%rax), %rdx
	movq	%rdx, 8(%rbx)
	addq	$40, %rsp
	popq	%rbx
	popq	%rsi
	popq	%r12
	popq	%r13
	ret
	.p2align 4,,10
	.p2align 3
.L534:
	movq	%r12, %r8
	movq	%r13, %rdx
	movq	%rbx, %rcx
	addq	$1, 8+__gcov0._ZNSt6vectorINSt7__cxx1112basic_stringIcSt11char_traitsIcESaIcEEESaIS5_EE12emplace_backIJRA36_KcEEERS5_DpOT_(%rip)
	call	_ZNSt6vectorINSt7__cxx1112basic_stringIcSt11char_traitsIcESaIcEEESaIS5_EE17_M_realloc_insertIJRA36_KcEEEvN9__gnu_cxx17__normal_iteratorIPS5_S7_EEDpOT_
	addq	$1, 24+__gcov0._ZNSt6vectorINSt7__cxx1112basic_stringIcSt11char_traitsIcESaIcEEESaIS5_EE12emplace_backIJRA36_KcEEERS5_DpOT_(%rip)
	movq	8(%rbx), %rax
	subq	$32, %rax
	addq	$40, %rsp
	popq	%rbx
	popq	%rsi
	popq	%r12
	popq	%r13
	ret
	.p2align 4,,10
	.p2align 3
.L539:
	movq	.refptr.__gcov_time_profiler_counter(%rip), %rdx
	movq	(%rdx), %rax
	addq	$1, %rax
	movq	%rax, __gcov7._ZNSt6vectorINSt7__cxx1112basic_stringIcSt11char_traitsIcESaIcEEESaIS5_EE12emplace_backIJRA36_KcEEERS5_DpOT_(%rip)
	movq	%rax, (%rdx)
	jmp	.L533
	.p2align 4,,10
	.p2align 3
.L538:
	leaq	_ZNSt6vectorINSt7__cxx1112basic_stringIcSt11char_traitsIcESaIcEEESaIS5_EE12emplace_backIJRA36_KcEEERS5_DpOT_(%rip), %rdx
	movl	$1121987944, %ecx
	call	__gcov_indirect_call_profiler_v4
	jmp	.L532
	.p2align 4,,10
	.p2align 3
.L540:
	leaq	_ZNSt7__cxx1112basic_stringIcSt11char_traitsIcESaIcEEC1IS3_EEPKcRKS3_(%rip), %rdx
	movl	$337037418, %ecx
	call	__gcov_indirect_call_profiler_v4
	cmpq	$0, __gcov7._ZNSt7__cxx1112basic_stringIcSt11char_traitsIcESaIcEEC1IS3_EEPKcRKS3_.lto_priv.0(%rip)
	jne	.L536
	.p2align 4,,10
	.p2align 3
.L541:
	movq	.refptr.__gcov_time_profiler_counter(%rip), %rdx
	movq	(%rdx), %rax
	addq	$1, %rax
	movq	%rax, __gcov7._ZNSt7__cxx1112basic_stringIcSt11char_traitsIcESaIcEEC1IS3_EEPKcRKS3_.lto_priv.0(%rip)
	movq	%rax, (%rdx)
	jmp	.L536
	.seh_endproc
	.align 2
	.p2align 4
	.def	_ZNSt6vectorINSt7__cxx1112basic_stringIcSt11char_traitsIcESaIcEEESaIS5_EE17_M_realloc_insertIJRA35_KcEEEvN9__gnu_cxx17__normal_iteratorIPS5_S7_EEDpOT_;	.scl	3;	.type	32;	.endef
	.seh_proc	_ZNSt6vectorINSt7__cxx1112basic_stringIcSt11char_traitsIcESaIcEEESaIS5_EE17_M_realloc_insertIJRA35_KcEEEvN9__gnu_cxx17__normal_iteratorIPS5_S7_EEDpOT_
_ZNSt6vectorINSt7__cxx1112basic_stringIcSt11char_traitsIcESaIcEEESaIS5_EE17_M_realloc_insertIJRA35_KcEEEvN9__gnu_cxx17__normal_iteratorIPS5_S7_EEDpOT_:
	pushq	%r15
	.seh_pushreg	%r15
	pushq	%r14
	.seh_pushreg	%r14
	pushq	%r13
	.seh_pushreg	%r13
	pushq	%r12
	.seh_pushreg	%r12
	pushq	%rbp
	.seh_pushreg	%rbp
	pushq	%rdi
	.seh_pushreg	%rdi
	pushq	%rsi
	.seh_pushreg	%rsi
	pushq	%rbx
	.seh_pushreg	%rbx
	subq	$88, %rsp
	.seh_stackalloc	88
	vmovups	%xmm6, 64(%rsp)
	.seh_savexmm	%xmm6, 64
	.seh_endprologue
	movq	.refptr.__gcov_indirect_call(%rip), %rax
	movq	(%rax), %rax
	movq	%rcx, %r13
	movq	%rdx, %rbp
	movq	%r8, %r14
	testq	%rax, %rax
	jne	.L578
	addq	$1, __gcov0._ZNSt6vectorINSt7__cxx1112basic_stringIcSt11char_traitsIcESaIcEEESaIS5_EE17_M_realloc_insertIJRA35_KcEEEvN9__gnu_cxx17__normal_iteratorIPS5_S7_EEDpOT_(%rip)
	cmpq	$0, __gcov7._ZNSt6vectorINSt7__cxx1112basic_stringIcSt11char_traitsIcESaIcEEESaIS5_EE17_M_realloc_insertIJRA35_KcEEEvN9__gnu_cxx17__normal_iteratorIPS5_S7_EEDpOT_(%rip)
	movq	%rdx, %rbx
	je	.L569
.L545:
	cmpq	$0, __gcov7._ZNKSt6vectorINSt7__cxx1112basic_stringIcSt11char_traitsIcESaIcEEESaIS5_EE12_M_check_lenEyPKc(%rip)
	je	.L579
.L546:
	movq	8(%r13), %rdi
	movq	0(%r13), %r10
	movabsq	$288230376151711743, %rdx
	movq	%rdi, %rax
	subq	%r10, %rax
	sarq	$5, %rax
	cmpq	%rdx, %rax
	je	.L580
	movq	%rbp, %rsi
	subq	%r10, %rsi
	movq	%rsi, 40(%rsp)
	testq	%rax, %rax
	je	.L581
	leaq	(%rax,%rax), %rdx
	cmpq	%rdx, %rax
	jbe	.L550
	addq	$1, 16+__gcov0._ZNKSt6vectorINSt7__cxx1112basic_stringIcSt11char_traitsIcESaIcEEESaIS5_EE12_M_check_lenEyPKc(%rip)
	movabsq	$9223372036854775776, %r15
.L551:
	movq	.refptr.__gcov_indirect_call(%rip), %rax
	addq	$1, 8+__gcov0._ZNSt6vectorINSt7__cxx1112basic_stringIcSt11char_traitsIcESaIcEEESaIS5_EE17_M_realloc_insertIJRA35_KcEEEvN9__gnu_cxx17__normal_iteratorIPS5_S7_EEDpOT_(%rip)
	cmpq	$0, (%rax)
	jne	.L582
	cmpq	$0, __gcov7._ZN9__gnu_cxx13new_allocatorINSt7__cxx1112basic_stringIcSt11char_traitsIcESaIcEEEE8allocateEyPKv.lto_priv.0(%rip)
	je	.L583
.L553:
	movq	%r15, %rcx
	addq	$1, __gcov0._ZN9__gnu_cxx13new_allocatorINSt7__cxx1112basic_stringIcSt11char_traitsIcESaIcEEEE8allocateEyPKv.lto_priv.0(%rip)
	movq	%r10, 56(%rsp)
	call	_Znwy
	addq	$1, 24+__gcov0._ZN9__gnu_cxx13new_allocatorINSt7__cxx1112basic_stringIcSt11char_traitsIcESaIcEEEE8allocateEyPKv.lto_priv.0(%rip)
	movq	56(%rsp), %r10
	movq	%rax, %r12
	leaq	(%rax,%r15), %rax
	movq	40(%rsp), %r15
	addq	$1, 24+__gcov0._ZNSt6vectorINSt7__cxx1112basic_stringIcSt11char_traitsIcESaIcEEESaIS5_EE17_M_realloc_insertIJRA35_KcEEEvN9__gnu_cxx17__normal_iteratorIPS5_S7_EEDpOT_(%rip)
	movq	%rax, 48(%rsp)
	movq	.refptr.__gcov_indirect_call(%rip), %rax
	leaq	32(%r12), %rsi
	addq	%r12, %r15
	cmpq	$0, (%rax)
	jne	.L584
.L568:
	cmpq	$0, __gcov7._ZNSt7__cxx1112basic_stringIcSt11char_traitsIcESaIcEEC1IS3_EEPKcRKS3_.lto_priv.0(%rip)
	je	.L585
.L554:
	leaq	16(%r15), %rax
	movq	%r14, %rcx
	movq	%r10, 40(%rsp)
	movq	%rax, (%r15)
	addq	$1, __gcov0._ZNSt7__cxx1112basic_stringIcSt11char_traitsIcESaIcEEC1IS3_EEPKcRKS3_.lto_priv.0(%rip)
	call	strlen
	xorl	%r9d, %r9d
	movq	%r14, %rdx
	movq	%r15, %rcx
	leaq	(%r14,%rax), %r8
	call	_ZNSt7__cxx1112basic_stringIcSt11char_traitsIcESaIcEE12_M_constructIPKcEEvT_S8_St20forward_iterator_tag
	movq	40(%rsp), %r10
	addq	$1, 16+__gcov0._ZNSt7__cxx1112basic_stringIcSt11char_traitsIcESaIcEEC1IS3_EEPKcRKS3_.lto_priv.0(%rip)
	cmpq	%rbp, %r10
	je	.L555
	movq	%rbp, %rsi
	movq	%r10, %rdx
	movq	%r12, %rax
	subq	%r10, %rsi
	addq	%r12, %rsi
	jmp	.L559
	.p2align 4,,10
	.p2align 3
.L556:
	movq	%rcx, (%rax)
	movq	16(%rdx), %rcx
	addq	$1, 40+__gcov0._ZNSt6vectorINSt7__cxx1112basic_stringIcSt11char_traitsIcESaIcEEESaIS5_EE17_M_realloc_insertIJRA35_KcEEEvN9__gnu_cxx17__normal_iteratorIPS5_S7_EEDpOT_(%rip)
	movq	%rcx, 16(%rax)
.L577:
	movq	8(%rdx), %rcx
	addq	$32, %rax
	addq	$32, %rdx
	movq	%rcx, -24(%rax)
	cmpq	%rsi, %rax
	je	.L586
.L559:
	leaq	16(%rax), %rcx
	leaq	16(%rdx), %r8
	movq	%rcx, (%rax)
	movq	(%rdx), %rcx
	cmpq	%r8, %rcx
	jne	.L556
	vmovdqu	16(%rdx), %xmm0
	addq	$1, 32+__gcov0._ZNSt6vectorINSt7__cxx1112basic_stringIcSt11char_traitsIcESaIcEEESaIS5_EE17_M_realloc_insertIJRA35_KcEEEvN9__gnu_cxx17__normal_iteratorIPS5_S7_EEDpOT_(%rip)
	vmovdqu	%xmm0, 16(%rax)
	jmp	.L577
	.p2align 4,,10
	.p2align 3
.L550:
	addq	$1, 24+__gcov0._ZNKSt6vectorINSt7__cxx1112basic_stringIcSt11char_traitsIcESaIcEEESaIS5_EE12_M_check_lenEyPKc(%rip)
.L549:
	movabsq	$288230376151711743, %rax
	cmpq	%rax, %rdx
	cmovbe	%rdx, %rax
	movq	%rax, %r15
	salq	$5, %r15
	jmp	.L551
	.p2align 4,,10
	.p2align 3
.L586:
	addq	$32, %rsi
.L555:
	cmpq	%rbp, %rdi
	je	.L560
	movq	%rdi, %r8
	movq	%rsi, %rax
	subq	%rbp, %r8
	.p2align 4,,10
	.p2align 3
.L564:
	leaq	16(%rax), %rdx
	leaq	16(%rbx), %rcx
	movq	%rdx, (%rax)
	movq	(%rbx), %rdx
	cmpq	%rcx, %rdx
	je	.L587
	movq	%rdx, (%rax)
	movq	16(%rbx), %rdx
	addq	$32, %rbx
	addq	$32, %rax
	addq	$1, 56+__gcov0._ZNSt6vectorINSt7__cxx1112basic_stringIcSt11char_traitsIcESaIcEEESaIS5_EE17_M_realloc_insertIJRA35_KcEEEvN9__gnu_cxx17__normal_iteratorIPS5_S7_EEDpOT_(%rip)
	movq	%rdx, -16(%rax)
	movq	-24(%rbx), %rdx
	movq	%rdx, -24(%rax)
	cmpq	%rdi, %rbx
	jne	.L564
.L563:
	addq	%r8, %rsi
.L560:
	vmovq	%r12, %xmm2
	movq	16(%r13), %rdx
	vpinsrq	$1, %rsi, %xmm2, %xmm6
	testq	%r10, %r10
	je	.L588
	subq	%r10, %rdx
	movq	%r10, %rcx
	addq	$1, 64+__gcov0._ZNSt6vectorINSt7__cxx1112basic_stringIcSt11char_traitsIcESaIcEEESaIS5_EE17_M_realloc_insertIJRA35_KcEEEvN9__gnu_cxx17__normal_iteratorIPS5_S7_EEDpOT_(%rip)
	call	_ZdlPvy
	addq	$1, 80+__gcov0._ZNSt6vectorINSt7__cxx1112basic_stringIcSt11char_traitsIcESaIcEEESaIS5_EE17_M_realloc_insertIJRA35_KcEEEvN9__gnu_cxx17__normal_iteratorIPS5_S7_EEDpOT_(%rip)
.L566:
	movq	48(%rsp), %rax
	vmovdqu	%xmm6, 0(%r13)
	vmovups	64(%rsp), %xmm6
	movq	%rax, 16(%r13)
	addq	$88, %rsp
	popq	%rbx
	popq	%rsi
	popq	%rdi
	popq	%rbp
	popq	%r12
	popq	%r13
	popq	%r14
	popq	%r15
	ret
	.p2align 4,,10
	.p2align 3
.L587:
	vmovdqu	16(%rbx), %xmm1
	movq	8(%rbx), %rdx
	addq	$32, %rbx
	addq	$32, %rax
	addq	$1, 48+__gcov0._ZNSt6vectorINSt7__cxx1112basic_stringIcSt11char_traitsIcESaIcEEESaIS5_EE17_M_realloc_insertIJRA35_KcEEEvN9__gnu_cxx17__normal_iteratorIPS5_S7_EEDpOT_(%rip)
	vmovdqu	%xmm1, -16(%rax)
	movq	%rdx, -24(%rax)
	cmpq	%rbx, %rdi
	jne	.L564
	jmp	.L563
	.p2align 4,,10
	.p2align 3
.L588:
	addq	$1, 72+__gcov0._ZNSt6vectorINSt7__cxx1112basic_stringIcSt11char_traitsIcESaIcEEESaIS5_EE17_M_realloc_insertIJRA35_KcEEEvN9__gnu_cxx17__normal_iteratorIPS5_S7_EEDpOT_(%rip)
	jmp	.L566
	.p2align 4,,10
	.p2align 3
.L581:
	addq	$1, 8+__gcov0._ZNKSt6vectorINSt7__cxx1112basic_stringIcSt11char_traitsIcESaIcEEESaIS5_EE12_M_check_lenEyPKc(%rip)
	movl	$1, %edx
	addq	$1, 24+__gcov0._ZNKSt6vectorINSt7__cxx1112basic_stringIcSt11char_traitsIcESaIcEEESaIS5_EE12_M_check_lenEyPKc(%rip)
	jmp	.L549
	.p2align 4,,10
	.p2align 3
.L579:
	movq	.refptr.__gcov_time_profiler_counter(%rip), %rdx
	movq	(%rdx), %rax
	addq	$1, %rax
	movq	%rax, __gcov7._ZNKSt6vectorINSt7__cxx1112basic_stringIcSt11char_traitsIcESaIcEEESaIS5_EE12_M_check_lenEyPKc(%rip)
	movq	%rax, (%rdx)
	jmp	.L546
	.p2align 4,,10
	.p2align 3
.L578:
	leaq	_ZNSt6vectorINSt7__cxx1112basic_stringIcSt11char_traitsIcESaIcEEESaIS5_EE17_M_realloc_insertIJRA35_KcEEEvN9__gnu_cxx17__normal_iteratorIPS5_S7_EEDpOT_(%rip), %rdx
	movl	$740932513, %ecx
	call	__gcov_indirect_call_profiler_v4
	movq	.refptr.__gcov_indirect_call(%rip), %rax
	addq	$1, __gcov0._ZNSt6vectorINSt7__cxx1112basic_stringIcSt11char_traitsIcESaIcEEESaIS5_EE17_M_realloc_insertIJRA35_KcEEEvN9__gnu_cxx17__normal_iteratorIPS5_S7_EEDpOT_(%rip)
	cmpq	$0, __gcov7._ZNSt6vectorINSt7__cxx1112basic_stringIcSt11char_traitsIcESaIcEEESaIS5_EE17_M_realloc_insertIJRA35_KcEEEvN9__gnu_cxx17__normal_iteratorIPS5_S7_EEDpOT_(%rip)
	movq	(%rax), %rax
	jne	.L544
.L569:
	movq	.refptr.__gcov_time_profiler_counter(%rip), %rcx
	movq	(%rcx), %rdi
	leaq	1(%rdi), %rdx
	movq	%rdx, __gcov7._ZNSt6vectorINSt7__cxx1112basic_stringIcSt11char_traitsIcESaIcEEESaIS5_EE17_M_realloc_insertIJRA35_KcEEEvN9__gnu_cxx17__normal_iteratorIPS5_S7_EEDpOT_(%rip)
	movq	%rdx, (%rcx)
.L544:
	movq	%rbp, %rbx
	testq	%rax, %rax
	je	.L545
	leaq	_ZNKSt6vectorINSt7__cxx1112basic_stringIcSt11char_traitsIcESaIcEEESaIS5_EE12_M_check_lenEyPKc(%rip), %rdx
	movl	$1858249242, %ecx
	call	__gcov_indirect_call_profiler_v4
	jmp	.L545
	.p2align 4,,10
	.p2align 3
.L583:
	movq	.refptr.__gcov_time_profiler_counter(%rip), %rdx
	movq	(%rdx), %rax
	addq	$1, %rax
	movq	%rax, __gcov7._ZN9__gnu_cxx13new_allocatorINSt7__cxx1112basic_stringIcSt11char_traitsIcESaIcEEEE8allocateEyPKv.lto_priv.0(%rip)
	movq	%rax, (%rdx)
	jmp	.L553
	.p2align 4,,10
	.p2align 3
.L582:
	leaq	_ZN9__gnu_cxx13new_allocatorINSt7__cxx1112basic_stringIcSt11char_traitsIcESaIcEEEE8allocateEyPKv(%rip), %rdx
	movl	$774033910, %ecx
	movq	%r10, 48(%rsp)
	call	__gcov_indirect_call_profiler_v4
	cmpq	$0, __gcov7._ZN9__gnu_cxx13new_allocatorINSt7__cxx1112basic_stringIcSt11char_traitsIcESaIcEEEE8allocateEyPKv.lto_priv.0(%rip)
	movq	48(%rsp), %r10
	jne	.L553
	jmp	.L583
	.p2align 4,,10
	.p2align 3
.L585:
	movq	.refptr.__gcov_time_profiler_counter(%rip), %rdx
	movq	(%rdx), %rax
	addq	$1, %rax
	movq	%rax, __gcov7._ZNSt7__cxx1112basic_stringIcSt11char_traitsIcESaIcEEC1IS3_EEPKcRKS3_.lto_priv.0(%rip)
	movq	%rax, (%rdx)
	jmp	.L554
	.p2align 4,,10
	.p2align 3
.L584:
	leaq	_ZNSt7__cxx1112basic_stringIcSt11char_traitsIcESaIcEEC1IS3_EEPKcRKS3_(%rip), %rdx
	movl	$337037418, %ecx
	movq	%r10, 40(%rsp)
	call	__gcov_indirect_call_profiler_v4
	movq	40(%rsp), %r10
	jmp	.L568
.L580:
	leaq	.LC1(%rip), %rcx
	addq	$1, __gcov0._ZNKSt6vectorINSt7__cxx1112basic_stringIcSt11char_traitsIcESaIcEEESaIS5_EE12_M_check_lenEyPKc(%rip)
	call	_ZSt20__throw_length_errorPKc
	nop
	.seh_endproc
	.align 2
	.p2align 4
	.def	_ZNSt6vectorINSt7__cxx1112basic_stringIcSt11char_traitsIcESaIcEEESaIS5_EE12emplace_backIJRA35_KcEEERS5_DpOT_;	.scl	3;	.type	32;	.endef
	.seh_proc	_ZNSt6vectorINSt7__cxx1112basic_stringIcSt11char_traitsIcESaIcEEESaIS5_EE12emplace_backIJRA35_KcEEERS5_DpOT_
_ZNSt6vectorINSt7__cxx1112basic_stringIcSt11char_traitsIcESaIcEEESaIS5_EE12emplace_backIJRA35_KcEEERS5_DpOT_:
	pushq	%r13
	.seh_pushreg	%r13
	pushq	%r12
	.seh_pushreg	%r12
	pushq	%rsi
	.seh_pushreg	%rsi
	pushq	%rbx
	.seh_pushreg	%rbx
	subq	$40, %rsp
	.seh_stackalloc	40
	.seh_endprologue
	movq	.refptr.__gcov_indirect_call(%rip), %rsi
	cmpq	$0, (%rsi)
	movq	%rcx, %rbx
	movq	%rdx, %r12
	jne	.L596
.L590:
	cmpq	$0, __gcov7._ZNSt6vectorINSt7__cxx1112basic_stringIcSt11char_traitsIcESaIcEEESaIS5_EE12emplace_backIJRA35_KcEEERS5_DpOT_(%rip)
	je	.L597
.L591:
	movq	8(%rbx), %r13
	cmpq	16(%rbx), %r13
	je	.L592
	addq	$1, __gcov0._ZNSt6vectorINSt7__cxx1112basic_stringIcSt11char_traitsIcESaIcEEESaIS5_EE12emplace_backIJRA35_KcEEERS5_DpOT_(%rip)
	cmpq	$0, (%rsi)
	jne	.L598
	cmpq	$0, __gcov7._ZNSt7__cxx1112basic_stringIcSt11char_traitsIcESaIcEEC1IS3_EEPKcRKS3_.lto_priv.0(%rip)
	je	.L599
.L594:
	leaq	16(%r13), %rax
	movq	%r12, %rcx
	addq	$1, __gcov0._ZNSt7__cxx1112basic_stringIcSt11char_traitsIcESaIcEEC1IS3_EEPKcRKS3_.lto_priv.0(%rip)
	movq	%rax, 0(%r13)
	call	strlen
	movq	%r12, %rdx
	xorl	%r9d, %r9d
	movq	%r13, %rcx
	leaq	(%r12,%rax), %r8
	call	_ZNSt7__cxx1112basic_stringIcSt11char_traitsIcESaIcEE12_M_constructIPKcEEvT_S8_St20forward_iterator_tag
	addq	$1, 16+__gcov0._ZNSt7__cxx1112basic_stringIcSt11char_traitsIcESaIcEEC1IS3_EEPKcRKS3_.lto_priv.0(%rip)
	movq	8(%rbx), %rax
	addq	$1, 16+__gcov0._ZNSt6vectorINSt7__cxx1112basic_stringIcSt11char_traitsIcESaIcEEESaIS5_EE12emplace_backIJRA35_KcEEERS5_DpOT_(%rip)
	leaq	32(%rax), %rdx
	movq	%rdx, 8(%rbx)
	addq	$40, %rsp
	popq	%rbx
	popq	%rsi
	popq	%r12
	popq	%r13
	ret
	.p2align 4,,10
	.p2align 3
.L592:
	movq	%r12, %r8
	movq	%r13, %rdx
	movq	%rbx, %rcx
	addq	$1, 8+__gcov0._ZNSt6vectorINSt7__cxx1112basic_stringIcSt11char_traitsIcESaIcEEESaIS5_EE12emplace_backIJRA35_KcEEERS5_DpOT_(%rip)
	call	_ZNSt6vectorINSt7__cxx1112basic_stringIcSt11char_traitsIcESaIcEEESaIS5_EE17_M_realloc_insertIJRA35_KcEEEvN9__gnu_cxx17__normal_iteratorIPS5_S7_EEDpOT_
	addq	$1, 24+__gcov0._ZNSt6vectorINSt7__cxx1112basic_stringIcSt11char_traitsIcESaIcEEESaIS5_EE12emplace_backIJRA35_KcEEERS5_DpOT_(%rip)
	movq	8(%rbx), %rax
	subq	$32, %rax
	addq	$40, %rsp
	popq	%rbx
	popq	%rsi
	popq	%r12
	popq	%r13
	ret
	.p2align 4,,10
	.p2align 3
.L597:
	movq	.refptr.__gcov_time_profiler_counter(%rip), %rdx
	movq	(%rdx), %rax
	addq	$1, %rax
	movq	%rax, __gcov7._ZNSt6vectorINSt7__cxx1112basic_stringIcSt11char_traitsIcESaIcEEESaIS5_EE12emplace_backIJRA35_KcEEERS5_DpOT_(%rip)
	movq	%rax, (%rdx)
	jmp	.L591
	.p2align 4,,10
	.p2align 3
.L596:
	leaq	_ZNSt6vectorINSt7__cxx1112basic_stringIcSt11char_traitsIcESaIcEEESaIS5_EE12emplace_backIJRA35_KcEEERS5_DpOT_(%rip), %rdx
	movl	$2056617615, %ecx
	call	__gcov_indirect_call_profiler_v4
	jmp	.L590
	.p2align 4,,10
	.p2align 3
.L598:
	leaq	_ZNSt7__cxx1112basic_stringIcSt11char_traitsIcESaIcEEC1IS3_EEPKcRKS3_(%rip), %rdx
	movl	$337037418, %ecx
	call	__gcov_indirect_call_profiler_v4
	cmpq	$0, __gcov7._ZNSt7__cxx1112basic_stringIcSt11char_traitsIcESaIcEEC1IS3_EEPKcRKS3_.lto_priv.0(%rip)
	jne	.L594
	.p2align 4,,10
	.p2align 3
.L599:
	movq	.refptr.__gcov_time_profiler_counter(%rip), %rdx
	movq	(%rdx), %rax
	addq	$1, %rax
	movq	%rax, __gcov7._ZNSt7__cxx1112basic_stringIcSt11char_traitsIcESaIcEEC1IS3_EEPKcRKS3_.lto_priv.0(%rip)
	movq	%rax, (%rdx)
	jmp	.L594
	.seh_endproc
	.section .rdata,"dr"
.LC3:
	.ascii "16\0"
.LC4:
	.ascii "1\0"
.LC5:
	.ascii "13\0"
.LC6:
	.ascii "default\0"
.LC7:
	.ascii "depth\0"
.LC8:
	.ascii "mixed\0"
.LC9:
	.ascii "eval\0"
.LC10:
	.ascii "go \0"
.LC11:
	.ascii " \0"
.LC12:
	.ascii "current\0"
.LC13:
	.ascii "Unable to open file \0"
.LC14:
	.ascii "setoption name Threads value \0"
.LC15:
	.ascii "setoption name Hash value \0"
.LC16:
	.ascii "ucinewgame\0"
	.align 8
.LC17:
	.ascii "setoption name Use NNUE value true\0"
.LC18:
	.ascii "setoption\0"
.LC19:
	.ascii "classical\0"
	.align 8
.LC20:
	.ascii "setoption name Use NNUE value false\0"
.LC21:
	.ascii "NNUE\0"
.LC22:
	.ascii "position fen \0"
	.text
	.p2align 4
	.globl	_ZN8Polyfish11setup_benchB5cxx11ERKNS_8PositionERSi
	.def	_ZN8Polyfish11setup_benchB5cxx11ERKNS_8PositionERSi;	.scl	2;	.type	32;	.endef
	.seh_proc	_ZN8Polyfish11setup_benchB5cxx11ERKNS_8PositionERSi
_ZN8Polyfish11setup_benchB5cxx11ERKNS_8PositionERSi:
	pushq	%r15
	.seh_pushreg	%r15
	pushq	%r14
	.seh_pushreg	%r14
	pushq	%r13
	.seh_pushreg	%r13
	pushq	%r12
	.seh_pushreg	%r12
	pushq	%rbp
	.seh_pushreg	%rbp
	pushq	%rdi
	.seh_pushreg	%rdi
	pushq	%rsi
	.seh_pushreg	%rsi
	pushq	%rbx
	.seh_pushreg	%rbx
	subq	$1000, %rsp
	.seh_stackalloc	1000
	.seh_endprologue
	movq	.refptr.__gcov_indirect_call(%rip), %r15
	cmpq	$0, (%r15)
	movq	%rdx, 1080(%rsp)
	movq	%rcx, %r12
	movq	%r8, %r13
	jne	.L754
.L601:
	addq	$1, __gcov0._ZN8Polyfish11setup_benchB5cxx11ERKNS_8PositionERSi(%rip)
	cmpq	$0, __gcov7._ZN8Polyfish11setup_benchB5cxx11ERKNS_8PositionERSi(%rip)
	je	.L755
.L602:
	movq	$0, 16(%r12)
	vpxor	%xmm0, %xmm0, %xmm0
	movq	%r13, %rcx
	leaq	432(%rsp), %rax
	leaq	384(%rsp), %rdi
	movq	%rax, 48(%rsp)
	movq	%rax, 416(%rsp)
	movq	%rdi, %rdx
	leaq	400(%rsp), %rax
	vmovdqu	%xmm0, (%r12)
	movq	$0, 176(%rsp)
	movq	$0, 424(%rsp)
	movb	$0, 432(%rsp)
	movq	%rax, 56(%rsp)
	movq	%rax, 384(%rsp)
	movq	$0, 392(%rsp)
	movb	$0, 400(%rsp)
	vmovdqu	%xmm0, 160(%rsp)
	call	_ZStrsIcSt11char_traitsIcESaIcEERSt13basic_istreamIT_T0_ES7_RNSt7__cxx1112basic_stringIS4_S5_T1_EE
	movq	(%rax), %rdx
	movq	-24(%rdx), %rdx
	testb	$5, 32(%rax,%rdx)
	jne	.L603
	movq	384(%rsp), %rdx
	movq	392(%rsp), %r8
	leaq	368(%rsp), %rax
	leaq	352(%rsp), %rcx
	addq	$1, 8+__gcov0._ZN8Polyfish11setup_benchB5cxx11ERKNS_8PositionERSi(%rip)
	addq	%rdx, %r8
	movq	%rcx, 112(%rsp)
	movq	%rax, 120(%rsp)
	movq	%rax, 352(%rsp)
	call	_ZNSt7__cxx1112basic_stringIcSt11char_traitsIcESaIcEE12_M_constructIPcEEvT_S7_St20forward_iterator_tag.constprop.0
	addq	$1, 24+__gcov0._ZN8Polyfish11setup_benchB5cxx11ERKNS_8PositionERSi(%rip)
.L604:
	movq	%rdi, %rdx
	movq	%r13, %rcx
	call	_ZStrsIcSt11char_traitsIcESaIcEERSt13basic_istreamIT_T0_ES7_RNSt7__cxx1112basic_stringIS4_S5_T1_EE
	movq	(%rax), %rdx
	movq	-24(%rdx), %rdx
	testb	$5, 32(%rax,%rdx)
	jne	.L607
	movq	384(%rsp), %rdx
	movq	392(%rsp), %r8
	leaq	336(%rsp), %rax
	leaq	320(%rsp), %rcx
	addq	$1, 40+__gcov0._ZN8Polyfish11setup_benchB5cxx11ERKNS_8PositionERSi(%rip)
	addq	%rdx, %r8
	movq	%rcx, 96(%rsp)
	movq	%rax, 104(%rsp)
	movq	%rax, 320(%rsp)
	call	_ZNSt7__cxx1112basic_stringIcSt11char_traitsIcESaIcEE12_M_constructIPcEEvT_S7_St20forward_iterator_tag.constprop.0
	addq	$1, 56+__gcov0._ZN8Polyfish11setup_benchB5cxx11ERKNS_8PositionERSi(%rip)
.L608:
	movq	%rdi, %rdx
	movq	%r13, %rcx
	call	_ZStrsIcSt11char_traitsIcESaIcEERSt13basic_istreamIT_T0_ES7_RNSt7__cxx1112basic_stringIS4_S5_T1_EE
	movq	(%rax), %rdx
	movq	-24(%rdx), %rdx
	testb	$5, 32(%rax,%rdx)
	jne	.L611
	movq	384(%rsp), %rdx
	movq	392(%rsp), %r8
	leaq	304(%rsp), %rax
	leaq	288(%rsp), %rcx
	addq	$1, 72+__gcov0._ZN8Polyfish11setup_benchB5cxx11ERKNS_8PositionERSi(%rip)
	addq	%rdx, %r8
	movq	%rax, 88(%rsp)
	movq	%rax, 288(%rsp)
	call	_ZNSt7__cxx1112basic_stringIcSt11char_traitsIcESaIcEE12_M_constructIPcEEvT_S7_St20forward_iterator_tag.constprop.0
	addq	$1, 88+__gcov0._ZN8Polyfish11setup_benchB5cxx11ERKNS_8PositionERSi(%rip)
.L612:
	movq	%rdi, %rdx
	movq	%r13, %rcx
	call	_ZStrsIcSt11char_traitsIcESaIcEERSt13basic_istreamIT_T0_ES7_RNSt7__cxx1112basic_stringIS4_S5_T1_EE
	movq	(%rax), %rdx
	movq	-24(%rdx), %rdx
	testb	$5, 32(%rax,%rdx)
	jne	.L615
	movq	384(%rsp), %rdx
	movq	392(%rsp), %r8
	leaq	256(%rsp), %r14
	leaq	272(%rsp), %rax
	movq	%r14, %rcx
	movq	%rax, 80(%rsp)
	addq	%rdx, %r8
	movq	%rax, 256(%rsp)
	addq	$1, 104+__gcov0._ZN8Polyfish11setup_benchB5cxx11ERKNS_8PositionERSi(%rip)
	call	_ZNSt7__cxx1112basic_stringIcSt11char_traitsIcESaIcEE12_M_constructIPcEEvT_S7_St20forward_iterator_tag.constprop.0
	leaq	.LC6(%rip), %rax
	addq	$1, 120+__gcov0._ZN8Polyfish11setup_benchB5cxx11ERKNS_8PositionERSi(%rip)
	movq	%rax, 40(%rsp)
.L616:
	movq	%rdi, %rdx
	movq	%r13, %rcx
	call	_ZStrsIcSt11char_traitsIcESaIcEERSt13basic_istreamIT_T0_ES7_RNSt7__cxx1112basic_stringIS4_S5_T1_EE
	movq	(%rax), %rdx
	movq	-24(%rdx), %rdx
	testb	$5, 32(%rax,%rdx)
	jne	.L619
	movq	384(%rsp), %rdx
	movq	392(%rsp), %r8
	leaq	224(%rsp), %rbx
	leaq	240(%rsp), %rax
	movq	%rbx, %rcx
	addq	$1, 136+__gcov0._ZN8Polyfish11setup_benchB5cxx11ERKNS_8PositionERSi(%rip)
	addq	%rdx, %r8
	movq	%rax, 72(%rsp)
	movq	%rax, 224(%rsp)
	call	_ZNSt7__cxx1112basic_stringIcSt11char_traitsIcESaIcEE12_M_constructIPcEEvT_S7_St20forward_iterator_tag.constprop.0
	addq	$1, 152+__gcov0._ZN8Polyfish11setup_benchB5cxx11ERKNS_8PositionERSi(%rip)
.L620:
	movq	%rdi, %rdx
	movq	%r13, %rcx
	call	_ZStrsIcSt11char_traitsIcESaIcEERSt13basic_istreamIT_T0_ES7_RNSt7__cxx1112basic_stringIS4_S5_T1_EE
	movq	(%rax), %rdx
	movq	-24(%rdx), %rdx
	testb	$5, 32(%rax,%rdx)
	jne	.L623
	movq	384(%rsp), %rdx
	movq	392(%rsp), %r8
	leaq	192(%rsp), %r13
	leaq	208(%rsp), %rax
	movq	%r13, %rcx
	addq	$1, 168+__gcov0._ZN8Polyfish11setup_benchB5cxx11ERKNS_8PositionERSi(%rip)
	addq	%rdx, %r8
	movq	%rax, 64(%rsp)
	movq	%rax, 192(%rsp)
	call	_ZNSt7__cxx1112basic_stringIcSt11char_traitsIcESaIcEE12_M_constructIPcEEvT_S7_St20forward_iterator_tag.constprop.0
	addq	$1, 184+__gcov0._ZN8Polyfish11setup_benchB5cxx11ERKNS_8PositionERSi(%rip)
.L624:
	leaq	.LC9(%rip), %rsi
	movq	%rbx, %rcx
	movq	%rsi, %rdx
	call	_ZNKSt7__cxx1112basic_stringIcSt11char_traitsIcESaIcEE7compareEPKc
	testl	%eax, %eax
	jne	.L627
	addq	$1, 200+__gcov0._ZN8Polyfish11setup_benchB5cxx11ERKNS_8PositionERSi(%rip)
	cmpq	$0, (%r15)
	jne	.L756
	cmpq	$0, __gcov7._ZNSt7__cxx1112basic_stringIcSt11char_traitsIcESaIcEEC1IS3_EEPKcRKS3_.lto_priv.0(%rip)
	je	.L757
.L629:
	xorl	%r9d, %r9d
	leaq	448(%rsp), %rcx
	movq	%rsi, %rdx
	xorl	%edi, %edi
	leaq	464(%rsp), %rbx
	leaq	4+.LC9(%rip), %r8
	addq	$1, __gcov0._ZNSt7__cxx1112basic_stringIcSt11char_traitsIcESaIcEEC1IS3_EEPKcRKS3_.lto_priv.0(%rip)
	movq	%rbx, 448(%rsp)
	leaq	512(%rsp), %rbp
	call	_ZNSt7__cxx1112basic_stringIcSt11char_traitsIcESaIcEE12_M_constructIPKcEEvT_S8_St20forward_iterator_tag
	addq	$1, 16+__gcov0._ZNSt7__cxx1112basic_stringIcSt11char_traitsIcESaIcEEC1IS3_EEPKcRKS3_.lto_priv.0(%rip)
	addq	$1, 216+__gcov0._ZN8Polyfish11setup_benchB5cxx11ERKNS_8PositionERSi(%rip)
	cmpq	$0, __gcov7._ZNSt7__cxx1112basic_stringIcSt11char_traitsIcESaIcEEaSEOS4_.lto_priv.0(%rip)
	je	.L758
.L635:
	movq	448(%rsp), %rax
	movq	416(%rsp), %rsi
	movq	456(%rsp), %r8
	cmpq	%rbx, %rax
	je	.L759
	movq	464(%rsp), %rdx
	vmovq	%r8, %xmm1
	vpinsrq	$1, %rdx, %xmm1, %xmm0
	cmpq	48(%rsp), %rsi
	je	.L760
	movq	432(%rsp), %rcx
	addq	$1, 32+__gcov0._ZNSt7__cxx1112basic_stringIcSt11char_traitsIcESaIcEEaSEOS4_.lto_priv.0(%rip)
	movq	%rax, 416(%rsp)
	movq	%r8, 424(%rsp)
	movq	%rdx, 432(%rsp)
	testq	%rsi, %rsi
	je	.L641
	movq	%rsi, 448(%rsp)
	movq	%rcx, 464(%rsp)
.L639:
	movq	$0, 456(%rsp)
	movb	$0, (%rsi)
	movq	448(%rsp), %rcx
	cmpq	%rbx, %rcx
	je	.L761
	movq	464(%rsp), %rax
	addq	$1, 248+__gcov0._ZN8Polyfish11setup_benchB5cxx11ERKNS_8PositionERSi(%rip)
	leaq	1(%rax), %rdx
	call	_ZdlPvy
	addq	$1, 264+__gcov0._ZN8Polyfish11setup_benchB5cxx11ERKNS_8PositionERSi(%rip)
.L643:
	leaq	528(%rsp), %rax
	movq	%rax, 32(%rsp)
	testb	%dil, %dil
	je	.L718
	movq	480(%rsp), %rcx
	leaq	496(%rsp), %rax
	cmpq	%rax, %rcx
	je	.L762
	movq	496(%rsp), %rax
	addq	$1, 272+__gcov0._ZN8Polyfish11setup_benchB5cxx11ERKNS_8PositionERSi(%rip)
	leaq	1(%rax), %rdx
	call	_ZdlPvy
	addq	$1, 288+__gcov0._ZN8Polyfish11setup_benchB5cxx11ERKNS_8PositionERSi(%rip)
.L646:
	movq	512(%rsp), %rcx
	leaq	528(%rsp), %rax
	movq	%rax, 32(%rsp)
	cmpq	%rax, %rcx
	je	.L763
	movq	528(%rsp), %rax
	addq	$1, 296+__gcov0._ZN8Polyfish11setup_benchB5cxx11ERKNS_8PositionERSi(%rip)
	leaq	1(%rax), %rdx
	call	_ZdlPvy
	addq	$1, 312+__gcov0._ZN8Polyfish11setup_benchB5cxx11ERKNS_8PositionERSi(%rip)
.L718:
	movq	40(%rsp), %rdx
	movq	%r14, %rcx
	call	_ZNKSt7__cxx1112basic_stringIcSt11char_traitsIcESaIcEE7compareEPKc
	testl	%eax, %eax
	jne	.L649
	leaq	160(%rsp), %rcx
	leaq	_ZN12_GLOBAL__N_1L8DefaultsE.lto_priv.0(%rip), %rdx
	addq	$1, 320+__gcov0._ZN8Polyfish11setup_benchB5cxx11ERKNS_8PositionERSi(%rip)
	call	_ZNSt6vectorINSt7__cxx1112basic_stringIcSt11char_traitsIcESaIcEEESaIS5_EEaSERKS7_
	addq	$1, 336+__gcov0._ZN8Polyfish11setup_benchB5cxx11ERKNS_8PositionERSi(%rip)
.L650:
	movq	96(%rsp), %r8
	leaq	.LC14(%rip), %rdx
	movq	%rbp, %rcx
	call	_ZStplIcSt11char_traitsIcESaIcEENSt7__cxx1112basic_stringIT_T0_T1_EEPKS5_RKS8_
	movq	%r12, %rcx
	movq	%rbp, %rdx
	addq	$1, 496+__gcov0._ZN8Polyfish11setup_benchB5cxx11ERKNS_8PositionERSi(%rip)
	call	_ZNSt6vectorINSt7__cxx1112basic_stringIcSt11char_traitsIcESaIcEEESaIS5_EE12emplace_backIJS5_EEERS5_DpOT_
	movq	512(%rsp), %rcx
	cmpq	32(%rsp), %rcx
	je	.L764
	movq	528(%rsp), %rax
	addq	$1, 504+__gcov0._ZN8Polyfish11setup_benchB5cxx11ERKNS_8PositionERSi(%rip)
	leaq	1(%rax), %rdx
	call	_ZdlPvy
	addq	$1, 520+__gcov0._ZN8Polyfish11setup_benchB5cxx11ERKNS_8PositionERSi(%rip)
.L680:
	movq	112(%rsp), %r8
	leaq	.LC15(%rip), %rdx
	movq	%rbp, %rcx
	call	_ZStplIcSt11char_traitsIcESaIcEENSt7__cxx1112basic_stringIT_T0_T1_EEPKS5_RKS8_
	movq	%r12, %rcx
	movq	%rbp, %rdx
	addq	$1, 528+__gcov0._ZN8Polyfish11setup_benchB5cxx11ERKNS_8PositionERSi(%rip)
	call	_ZNSt6vectorINSt7__cxx1112basic_stringIcSt11char_traitsIcESaIcEEESaIS5_EE12emplace_backIJS5_EEERS5_DpOT_
	movq	512(%rsp), %rcx
	cmpq	32(%rsp), %rcx
	je	.L765
	movq	528(%rsp), %rax
	addq	$1, 536+__gcov0._ZN8Polyfish11setup_benchB5cxx11ERKNS_8PositionERSi(%rip)
	leaq	1(%rax), %rdx
	call	_ZdlPvy
	addq	$1, 552+__gcov0._ZN8Polyfish11setup_benchB5cxx11ERKNS_8PositionERSi(%rip)
.L682:
	leaq	.LC16(%rip), %rdx
	movq	%r12, %rcx
	leaq	.LC18(%rip), %rdi
	call	_ZNSt6vectorINSt7__cxx1112basic_stringIcSt11char_traitsIcESaIcEEESaIS5_EE12emplace_backIJRA11_KcEEERS5_DpOT_
	movq	168(%rsp), %rsi
	movq	160(%rsp), %rbx
	movq	$0, 40(%rsp)
	addq	$1, 560+__gcov0._ZN8Polyfish11setup_benchB5cxx11ERKNS_8PositionERSi(%rip)
	leaq	.LC19(%rip), %r14
	cmpq	%rbx, %rsi
	jne	.L697
	jmp	.L698
	.p2align 4,,10
	.p2align 3
.L766:
	movq	%rbx, %rdx
	movq	%r12, %rcx
	addq	$1, 568+__gcov0._ZN8Polyfish11setup_benchB5cxx11ERKNS_8PositionERSi(%rip)
	call	_ZNSt6vectorINSt7__cxx1112basic_stringIcSt11char_traitsIcESaIcEEESaIS5_EE12emplace_backIJRKS5_EEERS5_DpOT_
.L687:
	addq	$32, %rbx
	addq	$1, 720+__gcov0._ZN8Polyfish11setup_benchB5cxx11ERKNS_8PositionERSi(%rip)
	cmpq	%rbx, %rsi
	je	.L698
.L697:
	xorl	%r8d, %r8d
	movl	$9, %r9d
	movq	%rdi, %rdx
	movq	%rbx, %rcx
	call	_ZNKSt7__cxx1112basic_stringIcSt11char_traitsIcESaIcEE4findEPKcyy
	cmpq	$-1, %rax
	jne	.L766
	movq	%r14, %rdx
	movq	%r13, %rcx
	addq	$1, 576+__gcov0._ZN8Polyfish11setup_benchB5cxx11ERKNS_8PositionERSi(%rip)
	call	_ZNKSt7__cxx1112basic_stringIcSt11char_traitsIcESaIcEE7compareEPKc
	addq	$1, 584+__gcov0._ZN8Polyfish11setup_benchB5cxx11ERKNS_8PositionERSi(%rip)
	testl	%eax, %eax
	je	.L688
	leaq	.LC8(%rip), %rdx
	movq	%r13, %rcx
	addq	$1, 592+__gcov0._ZN8Polyfish11setup_benchB5cxx11ERKNS_8PositionERSi(%rip)
	call	_ZNKSt7__cxx1112basic_stringIcSt11char_traitsIcESaIcEE7compareEPKc
	testl	%eax, %eax
	jne	.L689
	addq	$1, 600+__gcov0._ZN8Polyfish11setup_benchB5cxx11ERKNS_8PositionERSi(%rip)
	testb	$1, 40(%rsp)
	jne	.L690
	addq	$1, 616+__gcov0._ZN8Polyfish11setup_benchB5cxx11ERKNS_8PositionERSi(%rip)
.L688:
	leaq	.LC20(%rip), %rdx
	movq	%r12, %rcx
	call	_ZNSt6vectorINSt7__cxx1112basic_stringIcSt11char_traitsIcESaIcEEESaIS5_EE12emplace_backIJRA36_KcEEERS5_DpOT_
	addq	$1, 624+__gcov0._ZN8Polyfish11setup_benchB5cxx11ERKNS_8PositionERSi(%rip)
.L691:
	movq	%rbx, %r8
	leaq	.LC22(%rip), %rdx
	movq	%rbp, %rcx
	call	_ZStplIcSt11char_traitsIcESaIcEENSt7__cxx1112basic_stringIT_T0_T1_EEPKS5_RKS8_
	movq	%r12, %rcx
	movq	%rbp, %rdx
	addq	$1, 680+__gcov0._ZN8Polyfish11setup_benchB5cxx11ERKNS_8PositionERSi(%rip)
	call	_ZNSt6vectorINSt7__cxx1112basic_stringIcSt11char_traitsIcESaIcEEESaIS5_EE12emplace_backIJS5_EEERS5_DpOT_
	movq	512(%rsp), %rcx
	cmpq	32(%rsp), %rcx
	je	.L767
	movq	528(%rsp), %rax
	addq	$1, 688+__gcov0._ZN8Polyfish11setup_benchB5cxx11ERKNS_8PositionERSi(%rip)
	leaq	1(%rax), %rdx
	call	_ZdlPvy
	addq	$1, 704+__gcov0._ZN8Polyfish11setup_benchB5cxx11ERKNS_8PositionERSi(%rip)
.L696:
	leaq	416(%rsp), %rdx
	movq	%r12, %rcx
	call	_ZNSt6vectorINSt7__cxx1112basic_stringIcSt11char_traitsIcESaIcEEESaIS5_EE12emplace_backIJRS5_EEES9_DpOT_
	addq	$1, 712+__gcov0._ZN8Polyfish11setup_benchB5cxx11ERKNS_8PositionERSi(%rip)
	addq	$1, 40(%rsp)
	jmp	.L687
	.p2align 4,,10
	.p2align 3
.L627:
	leaq	512(%rsp), %rbp
	movq	%rbx, %r8
	leaq	.LC10(%rip), %rdx
	addq	$1, 208+__gcov0._ZN8Polyfish11setup_benchB5cxx11ERKNS_8PositionERSi(%rip)
	movq	%rbp, %rcx
	leaq	480(%rsp), %rbx
	call	_ZStplIcSt11char_traitsIcESaIcEENSt7__cxx1112basic_stringIT_T0_T1_EEPKS5_RKS8_
	leaq	.LC11(%rip), %r8
	movq	%rbp, %rdx
	movq	%rbx, %rcx
	addq	$1, 224+__gcov0._ZN8Polyfish11setup_benchB5cxx11ERKNS_8PositionERSi(%rip)
	call	_ZStplIcSt11char_traitsIcESaIcEENSt7__cxx1112basic_stringIT_T0_T1_EEOS8_PKS5_
	addq	$1, 232+__gcov0._ZN8Polyfish11setup_benchB5cxx11ERKNS_8PositionERSi(%rip)
	cmpq	$0, (%r15)
	jne	.L768
.L631:
	addq	$1, __gcov0._ZStplIcSt11char_traitsIcESaIcEENSt7__cxx1112basic_stringIT_T0_T1_EEOS8_RKS8_.lto_priv.0(%rip)
	cmpq	$0, __gcov7._ZStplIcSt11char_traitsIcESaIcEENSt7__cxx1112basic_stringIT_T0_T1_EEOS8_RKS8_.lto_priv.0(%rip)
	je	.L769
.L632:
	movq	288(%rsp), %rdx
	movq	296(%rsp), %r8
	movq	%rbx, %rcx
	leaq	464(%rsp), %rbx
	call	_ZNSt7__cxx1112basic_stringIcSt11char_traitsIcESaIcEE9_M_appendEPKcy
	movq	%rbx, 448(%rsp)
	movq	(%rax), %rcx
	leaq	16(%rax), %rdx
	cmpq	%rdx, %rcx
	je	.L770
	movq	%rcx, 448(%rsp)
	movq	16(%rax), %rcx
	addq	$1, 16+__gcov0._ZStplIcSt11char_traitsIcESaIcEENSt7__cxx1112basic_stringIT_T0_T1_EEOS8_RKS8_.lto_priv.0(%rip)
	movq	%rcx, 464(%rsp)
.L634:
	movq	8(%rax), %rcx
	movb	$0, 16(%rax)
	movl	$1, %edi
	addq	$1, 240+__gcov0._ZN8Polyfish11setup_benchB5cxx11ERKNS_8PositionERSi(%rip)
	cmpq	$0, __gcov7._ZNSt7__cxx1112basic_stringIcSt11char_traitsIcESaIcEEaSEOS4_.lto_priv.0(%rip)
	movq	%rcx, 456(%rsp)
	movq	%rdx, (%rax)
	movq	$0, 8(%rax)
	jne	.L635
.L758:
	movq	.refptr.__gcov_time_profiler_counter(%rip), %rdx
	movq	(%rdx), %rax
	addq	$1, %rax
	movq	%rax, __gcov7._ZNSt7__cxx1112basic_stringIcSt11char_traitsIcESaIcEEaSEOS4_.lto_priv.0(%rip)
	movq	%rax, (%rdx)
	jmp	.L635
	.p2align 4,,10
	.p2align 3
.L623:
	addq	$1, 176+__gcov0._ZN8Polyfish11setup_benchB5cxx11ERKNS_8PositionERSi(%rip)
	cmpq	$0, (%r15)
	jne	.L771
	cmpq	$0, __gcov7._ZNSt7__cxx1112basic_stringIcSt11char_traitsIcESaIcEEC1IS3_EEPKcRKS3_.lto_priv.0(%rip)
	je	.L772
.L626:
	leaq	5+.LC8(%rip), %r8
	leaq	192(%rsp), %r13
	xorl	%r9d, %r9d
	addq	$1, __gcov0._ZNSt7__cxx1112basic_stringIcSt11char_traitsIcESaIcEEC1IS3_EEPKcRKS3_.lto_priv.0(%rip)
	leaq	208(%rsp), %rax
	leaq	-5(%r8), %rdx
	movq	%r13, %rcx
	movq	%rax, 64(%rsp)
	movq	%rax, 192(%rsp)
	call	_ZNSt7__cxx1112basic_stringIcSt11char_traitsIcESaIcEE12_M_constructIPKcEEvT_S8_St20forward_iterator_tag
	addq	$1, 16+__gcov0._ZNSt7__cxx1112basic_stringIcSt11char_traitsIcESaIcEEC1IS3_EEPKcRKS3_.lto_priv.0(%rip)
	addq	$1, 192+__gcov0._ZN8Polyfish11setup_benchB5cxx11ERKNS_8PositionERSi(%rip)
	jmp	.L624
	.p2align 4,,10
	.p2align 3
.L619:
	addq	$1, 144+__gcov0._ZN8Polyfish11setup_benchB5cxx11ERKNS_8PositionERSi(%rip)
	cmpq	$0, (%r15)
	jne	.L773
	cmpq	$0, __gcov7._ZNSt7__cxx1112basic_stringIcSt11char_traitsIcESaIcEEC1IS3_EEPKcRKS3_.lto_priv.0(%rip)
	je	.L774
.L622:
	leaq	5+.LC7(%rip), %r8
	leaq	224(%rsp), %rbx
	xorl	%r9d, %r9d
	addq	$1, __gcov0._ZNSt7__cxx1112basic_stringIcSt11char_traitsIcESaIcEEC1IS3_EEPKcRKS3_.lto_priv.0(%rip)
	leaq	240(%rsp), %rax
	leaq	-5(%r8), %rdx
	movq	%rbx, %rcx
	movq	%rax, 72(%rsp)
	movq	%rax, 224(%rsp)
	call	_ZNSt7__cxx1112basic_stringIcSt11char_traitsIcESaIcEE12_M_constructIPKcEEvT_S8_St20forward_iterator_tag
	addq	$1, 16+__gcov0._ZNSt7__cxx1112basic_stringIcSt11char_traitsIcESaIcEEC1IS3_EEPKcRKS3_.lto_priv.0(%rip)
	addq	$1, 160+__gcov0._ZN8Polyfish11setup_benchB5cxx11ERKNS_8PositionERSi(%rip)
	jmp	.L620
	.p2align 4,,10
	.p2align 3
.L615:
	addq	$1, 112+__gcov0._ZN8Polyfish11setup_benchB5cxx11ERKNS_8PositionERSi(%rip)
	cmpq	$0, (%r15)
	jne	.L775
	cmpq	$0, __gcov7._ZNSt7__cxx1112basic_stringIcSt11char_traitsIcESaIcEEC1IS3_EEPKcRKS3_.lto_priv.0(%rip)
	je	.L776
.L618:
	leaq	272(%rsp), %rax
	leaq	7+.LC6(%rip), %r8
	xorl	%r9d, %r9d
	addq	$1, __gcov0._ZNSt7__cxx1112basic_stringIcSt11char_traitsIcESaIcEEC1IS3_EEPKcRKS3_.lto_priv.0(%rip)
	movq	%rax, 80(%rsp)
	leaq	256(%rsp), %r14
	movq	%rax, 256(%rsp)
	leaq	-7(%r8), %rax
	movq	%r14, %rcx
	movq	%rax, %rdx
	movq	%rax, 40(%rsp)
	call	_ZNSt7__cxx1112basic_stringIcSt11char_traitsIcESaIcEE12_M_constructIPKcEEvT_S8_St20forward_iterator_tag
	addq	$1, 16+__gcov0._ZNSt7__cxx1112basic_stringIcSt11char_traitsIcESaIcEEC1IS3_EEPKcRKS3_.lto_priv.0(%rip)
	addq	$1, 128+__gcov0._ZN8Polyfish11setup_benchB5cxx11ERKNS_8PositionERSi(%rip)
	jmp	.L616
	.p2align 4,,10
	.p2align 3
.L611:
	addq	$1, 80+__gcov0._ZN8Polyfish11setup_benchB5cxx11ERKNS_8PositionERSi(%rip)
	cmpq	$0, (%r15)
	jne	.L777
	cmpq	$0, __gcov7._ZNSt7__cxx1112basic_stringIcSt11char_traitsIcESaIcEEC1IS3_EEPKcRKS3_.lto_priv.0(%rip)
	je	.L778
.L614:
	leaq	2+.LC5(%rip), %r8
	leaq	304(%rsp), %rax
	xorl	%r9d, %r9d
	addq	$1, __gcov0._ZNSt7__cxx1112basic_stringIcSt11char_traitsIcESaIcEEC1IS3_EEPKcRKS3_.lto_priv.0(%rip)
	leaq	288(%rsp), %rcx
	leaq	-2(%r8), %rdx
	movq	%rax, 88(%rsp)
	movq	%rax, 288(%rsp)
	call	_ZNSt7__cxx1112basic_stringIcSt11char_traitsIcESaIcEE12_M_constructIPKcEEvT_S8_St20forward_iterator_tag
	addq	$1, 16+__gcov0._ZNSt7__cxx1112basic_stringIcSt11char_traitsIcESaIcEEC1IS3_EEPKcRKS3_.lto_priv.0(%rip)
	addq	$1, 96+__gcov0._ZN8Polyfish11setup_benchB5cxx11ERKNS_8PositionERSi(%rip)
	jmp	.L612
	.p2align 4,,10
	.p2align 3
.L607:
	addq	$1, 48+__gcov0._ZN8Polyfish11setup_benchB5cxx11ERKNS_8PositionERSi(%rip)
	cmpq	$0, (%r15)
	jne	.L779
	cmpq	$0, __gcov7._ZNSt7__cxx1112basic_stringIcSt11char_traitsIcESaIcEEC1IS3_EEPKcRKS3_.lto_priv.0(%rip)
	je	.L780
.L610:
	leaq	1+.LC4(%rip), %r8
	leaq	336(%rsp), %rax
	xorl	%r9d, %r9d
	addq	$1, __gcov0._ZNSt7__cxx1112basic_stringIcSt11char_traitsIcESaIcEEC1IS3_EEPKcRKS3_.lto_priv.0(%rip)
	leaq	320(%rsp), %rcx
	leaq	-1(%r8), %rdx
	movq	%rax, 104(%rsp)
	movq	%rcx, 96(%rsp)
	movq	%rax, 320(%rsp)
	call	_ZNSt7__cxx1112basic_stringIcSt11char_traitsIcESaIcEE12_M_constructIPKcEEvT_S8_St20forward_iterator_tag
	addq	$1, 16+__gcov0._ZNSt7__cxx1112basic_stringIcSt11char_traitsIcESaIcEEC1IS3_EEPKcRKS3_.lto_priv.0(%rip)
	addq	$1, 64+__gcov0._ZN8Polyfish11setup_benchB5cxx11ERKNS_8PositionERSi(%rip)
	jmp	.L608
	.p2align 4,,10
	.p2align 3
.L603:
	addq	$1, 16+__gcov0._ZN8Polyfish11setup_benchB5cxx11ERKNS_8PositionERSi(%rip)
	cmpq	$0, (%r15)
	jne	.L781
	cmpq	$0, __gcov7._ZNSt7__cxx1112basic_stringIcSt11char_traitsIcESaIcEEC1IS3_EEPKcRKS3_.lto_priv.0(%rip)
	je	.L782
.L606:
	leaq	2+.LC3(%rip), %r8
	leaq	368(%rsp), %rax
	xorl	%r9d, %r9d
	addq	$1, __gcov0._ZNSt7__cxx1112basic_stringIcSt11char_traitsIcESaIcEEC1IS3_EEPKcRKS3_.lto_priv.0(%rip)
	leaq	352(%rsp), %rcx
	leaq	-2(%r8), %rdx
	movq	%rax, 120(%rsp)
	movq	%rcx, 112(%rsp)
	movq	%rax, 352(%rsp)
	call	_ZNSt7__cxx1112basic_stringIcSt11char_traitsIcESaIcEE12_M_constructIPKcEEvT_S8_St20forward_iterator_tag
	addq	$1, 16+__gcov0._ZNSt7__cxx1112basic_stringIcSt11char_traitsIcESaIcEEC1IS3_EEPKcRKS3_.lto_priv.0(%rip)
	addq	$1, 32+__gcov0._ZN8Polyfish11setup_benchB5cxx11ERKNS_8PositionERSi(%rip)
	jmp	.L604
	.p2align 4,,10
	.p2align 3
.L760:
	addq	$1, 40+__gcov0._ZNSt7__cxx1112basic_stringIcSt11char_traitsIcESaIcEEaSEOS4_.lto_priv.0(%rip)
	movq	%rax, 416(%rsp)
	vmovdqu	%xmm0, 424(%rsp)
.L641:
	movq	%rbx, 448(%rsp)
	leaq	464(%rsp), %rbx
	addq	$1, 48+__gcov0._ZNSt7__cxx1112basic_stringIcSt11char_traitsIcESaIcEEaSEOS4_.lto_priv.0(%rip)
	movq	%rbx, %rsi
	jmp	.L639
	.p2align 4,,10
	.p2align 3
.L767:
	addq	$1, 696+__gcov0._ZN8Polyfish11setup_benchB5cxx11ERKNS_8PositionERSi(%rip)
	jmp	.L696
	.p2align 4,,10
	.p2align 3
.L698:
	movq	%r12, %rcx
	leaq	.LC17(%rip), %rdx
	addq	$1, 728+__gcov0._ZN8Polyfish11setup_benchB5cxx11ERKNS_8PositionERSi(%rip)
	call	_ZNSt6vectorINSt7__cxx1112basic_stringIcSt11char_traitsIcESaIcEEESaIS5_EE12emplace_backIJRA35_KcEEERS5_DpOT_
	movq	192(%rsp), %rcx
	cmpq	64(%rsp), %rcx
	je	.L685
	movq	208(%rsp), %rax
	addq	$1, 736+__gcov0._ZN8Polyfish11setup_benchB5cxx11ERKNS_8PositionERSi(%rip)
	leaq	1(%rax), %rdx
	call	_ZdlPvy
	addq	$1, 744+__gcov0._ZN8Polyfish11setup_benchB5cxx11ERKNS_8PositionERSi(%rip)
.L685:
	movq	224(%rsp), %rcx
	cmpq	72(%rsp), %rcx
	je	.L783
	movq	240(%rsp), %rax
	addq	$1, 752+__gcov0._ZN8Polyfish11setup_benchB5cxx11ERKNS_8PositionERSi(%rip)
	leaq	1(%rax), %rdx
	call	_ZdlPvy
	addq	$1, 768+__gcov0._ZN8Polyfish11setup_benchB5cxx11ERKNS_8PositionERSi(%rip)
.L700:
	movq	256(%rsp), %rcx
	cmpq	80(%rsp), %rcx
	je	.L701
	movq	272(%rsp), %rax
	addq	$1, 776+__gcov0._ZN8Polyfish11setup_benchB5cxx11ERKNS_8PositionERSi(%rip)
	leaq	1(%rax), %rdx
	call	_ZdlPvy
	addq	$1, 784+__gcov0._ZN8Polyfish11setup_benchB5cxx11ERKNS_8PositionERSi(%rip)
.L701:
	movq	288(%rsp), %rcx
	cmpq	88(%rsp), %rcx
	je	.L702
	movq	304(%rsp), %rax
	addq	$1, 792+__gcov0._ZN8Polyfish11setup_benchB5cxx11ERKNS_8PositionERSi(%rip)
	leaq	1(%rax), %rdx
	call	_ZdlPvy
	addq	$1, 800+__gcov0._ZN8Polyfish11setup_benchB5cxx11ERKNS_8PositionERSi(%rip)
.L702:
	movq	320(%rsp), %rcx
	cmpq	104(%rsp), %rcx
	je	.L703
	movq	336(%rsp), %rax
	addq	$1, 808+__gcov0._ZN8Polyfish11setup_benchB5cxx11ERKNS_8PositionERSi(%rip)
	leaq	1(%rax), %rdx
	call	_ZdlPvy
	addq	$1, 816+__gcov0._ZN8Polyfish11setup_benchB5cxx11ERKNS_8PositionERSi(%rip)
.L703:
	movq	352(%rsp), %rcx
	cmpq	120(%rsp), %rcx
	je	.L704
	movq	368(%rsp), %rax
	addq	$1, 824+__gcov0._ZN8Polyfish11setup_benchB5cxx11ERKNS_8PositionERSi(%rip)
	leaq	1(%rax), %rdx
	call	_ZdlPvy
	addq	$1, 832+__gcov0._ZN8Polyfish11setup_benchB5cxx11ERKNS_8PositionERSi(%rip)
.L704:
	movq	384(%rsp), %rcx
	cmpq	56(%rsp), %rcx
	je	.L705
	movq	400(%rsp), %rax
	addq	$1, 840+__gcov0._ZN8Polyfish11setup_benchB5cxx11ERKNS_8PositionERSi(%rip)
	leaq	1(%rax), %rdx
	call	_ZdlPvy
	addq	$1, 848+__gcov0._ZN8Polyfish11setup_benchB5cxx11ERKNS_8PositionERSi(%rip)
.L705:
	movq	416(%rsp), %rcx
	cmpq	48(%rsp), %rcx
	je	.L706
	movq	432(%rsp), %rax
	addq	$1, 856+__gcov0._ZN8Polyfish11setup_benchB5cxx11ERKNS_8PositionERSi(%rip)
	leaq	1(%rax), %rdx
	call	_ZdlPvy
	addq	$1, 864+__gcov0._ZN8Polyfish11setup_benchB5cxx11ERKNS_8PositionERSi(%rip)
.L706:
	movq	(%r15), %rax
	testq	%rax, %rax
	jne	.L784
	addq	$1, __gcov0._ZNSt6vectorINSt7__cxx1112basic_stringIcSt11char_traitsIcESaIcEEESaIS5_EED1Ev.lto_priv.0(%rip)
	cmpq	$0, __gcov7._ZNSt6vectorINSt7__cxx1112basic_stringIcSt11char_traitsIcESaIcEEESaIS5_EED1Ev.lto_priv.0(%rip)
	je	.L719
	movq	168(%rsp), %rsi
	movq	160(%rsp), %rbx
.L709:
	addq	$1, __gcov0._ZNSt12_Destroy_auxILb0EE9__destroyIPNSt7__cxx1112basic_stringIcSt11char_traitsIcESaIcEEEEEvT_S9_.lto_priv.0(%rip)
	cmpq	$0, __gcov7._ZNSt12_Destroy_auxILb0EE9__destroyIPNSt7__cxx1112basic_stringIcSt11char_traitsIcESaIcEEEEEvT_S9_.lto_priv.0(%rip)
	jne	.L753
	jmp	.L785
	.p2align 4,,10
	.p2align 3
.L714:
	movq	16(%rbx), %rax
	addq	$1, 8+__gcov0._ZNSt12_Destroy_auxILb0EE9__destroyIPNSt7__cxx1112basic_stringIcSt11char_traitsIcESaIcEEEEEvT_S9_.lto_priv.0(%rip)
	addq	$32, %rbx
	leaq	1(%rax), %rdx
	call	_ZdlPvy
.L753:
	cmpq	%rsi, %rbx
	je	.L716
.L711:
	movq	(%rbx), %rcx
	leaq	16(%rbx), %rax
	cmpq	%rax, %rcx
	jne	.L714
	addq	$32, %rbx
	addq	$1, 16+__gcov0._ZNSt12_Destroy_auxILb0EE9__destroyIPNSt7__cxx1112basic_stringIcSt11char_traitsIcESaIcEEEEEvT_S9_.lto_priv.0(%rip)
	cmpq	%rsi, %rbx
	jne	.L711
.L716:
	movq	160(%rsp), %rcx
	addq	$1, 24+__gcov0._ZNSt12_Destroy_auxILb0EE9__destroyIPNSt7__cxx1112basic_stringIcSt11char_traitsIcESaIcEEEEEvT_S9_.lto_priv.0(%rip)
	movq	176(%rsp), %rdx
	testq	%rcx, %rcx
	je	.L786
	subq	%rcx, %rdx
	addq	$1, 8+__gcov0._ZNSt6vectorINSt7__cxx1112basic_stringIcSt11char_traitsIcESaIcEEESaIS5_EED1Ev.lto_priv.0(%rip)
	call	_ZdlPvy
	addq	$1, 24+__gcov0._ZNSt6vectorINSt7__cxx1112basic_stringIcSt11char_traitsIcESaIcEEESaIS5_EED1Ev.lto_priv.0(%rip)
.L717:
	addq	$1, 872+__gcov0._ZN8Polyfish11setup_benchB5cxx11ERKNS_8PositionERSi(%rip)
	movq	%r12, %rax
	addq	$1000, %rsp
	popq	%rbx
	popq	%rsi
	popq	%rdi
	popq	%rbp
	popq	%r12
	popq	%r13
	popq	%r14
	popq	%r15
	ret
	.p2align 4,,10
	.p2align 3
.L689:
	addq	$1, 608+__gcov0._ZN8Polyfish11setup_benchB5cxx11ERKNS_8PositionERSi(%rip)
.L690:
	leaq	.LC21(%rip), %rdx
	movq	%r13, %rcx
	call	_ZNKSt7__cxx1112basic_stringIcSt11char_traitsIcESaIcEE7compareEPKc
	addq	$1, 632+__gcov0._ZN8Polyfish11setup_benchB5cxx11ERKNS_8PositionERSi(%rip)
	testl	%eax, %eax
	je	.L692
	leaq	.LC8(%rip), %rdx
	movq	%r13, %rcx
	addq	$1, 640+__gcov0._ZN8Polyfish11setup_benchB5cxx11ERKNS_8PositionERSi(%rip)
	call	_ZNKSt7__cxx1112basic_stringIcSt11char_traitsIcESaIcEE7compareEPKc
	addq	$1, 648+__gcov0._ZN8Polyfish11setup_benchB5cxx11ERKNS_8PositionERSi(%rip)
	testl	%eax, %eax
	jne	.L691
	addq	$1, 656+__gcov0._ZN8Polyfish11setup_benchB5cxx11ERKNS_8PositionERSi(%rip)
	testb	$1, 40(%rsp)
	je	.L691
	addq	$1, 664+__gcov0._ZN8Polyfish11setup_benchB5cxx11ERKNS_8PositionERSi(%rip)
.L692:
	leaq	.LC17(%rip), %rdx
	movq	%r12, %rcx
	call	_ZNSt6vectorINSt7__cxx1112basic_stringIcSt11char_traitsIcESaIcEEESaIS5_EE12emplace_backIJRA35_KcEEERS5_DpOT_
	addq	$1, 672+__gcov0._ZN8Polyfish11setup_benchB5cxx11ERKNS_8PositionERSi(%rip)
	jmp	.L691
	.p2align 4,,10
	.p2align 3
.L649:
	leaq	.LC12(%rip), %rdx
	movq	%r14, %rcx
	addq	$1, 328+__gcov0._ZN8Polyfish11setup_benchB5cxx11ERKNS_8PositionERSi(%rip)
	call	_ZNKSt7__cxx1112basic_stringIcSt11char_traitsIcESaIcEE7compareEPKc
	testl	%eax, %eax
	jne	.L651
	movq	1080(%rsp), %rdx
	movq	%rbp, %rcx
	addq	$1, 344+__gcov0._ZN8Polyfish11setup_benchB5cxx11ERKNS_8PositionERSi(%rip)
	call	_ZNK8Polyfish8Position3fenB5cxx11Ev
	leaq	160(%rsp), %rcx
	movq	%rbp, %rdx
	addq	$1, 360+__gcov0._ZN8Polyfish11setup_benchB5cxx11ERKNS_8PositionERSi(%rip)
	call	_ZNSt6vectorINSt7__cxx1112basic_stringIcSt11char_traitsIcESaIcEEESaIS5_EE12emplace_backIJS5_EEERS5_DpOT_
	movq	512(%rsp), %rcx
	cmpq	32(%rsp), %rcx
	je	.L787
	movq	528(%rsp), %rax
	addq	$1, 368+__gcov0._ZN8Polyfish11setup_benchB5cxx11ERKNS_8PositionERSi(%rip)
	leaq	1(%rax), %rdx
	call	_ZdlPvy
	addq	$1, 384+__gcov0._ZN8Polyfish11setup_benchB5cxx11ERKNS_8PositionERSi(%rip)
	jmp	.L650
	.p2align 4,,10
	.p2align 3
.L761:
	addq	$1, 256+__gcov0._ZN8Polyfish11setup_benchB5cxx11ERKNS_8PositionERSi(%rip)
	jmp	.L643
	.p2align 4,,10
	.p2align 3
.L765:
	addq	$1, 544+__gcov0._ZN8Polyfish11setup_benchB5cxx11ERKNS_8PositionERSi(%rip)
	jmp	.L682
	.p2align 4,,10
	.p2align 3
.L764:
	addq	$1, 512+__gcov0._ZN8Polyfish11setup_benchB5cxx11ERKNS_8PositionERSi(%rip)
	jmp	.L680
	.p2align 4,,10
	.p2align 3
.L786:
	addq	$1, 16+__gcov0._ZNSt6vectorINSt7__cxx1112basic_stringIcSt11char_traitsIcESaIcEEESaIS5_EED1Ev.lto_priv.0(%rip)
	jmp	.L717
	.p2align 4,,10
	.p2align 3
.L783:
	addq	$1, 760+__gcov0._ZN8Polyfish11setup_benchB5cxx11ERKNS_8PositionERSi(%rip)
	jmp	.L700
	.p2align 4,,10
	.p2align 3
.L759:
	addq	$1, __gcov0._ZNSt7__cxx1112basic_stringIcSt11char_traitsIcESaIcEEaSEOS4_.lto_priv.0(%rip)
	testq	%r8, %r8
	je	.L637
	cmpq	$1, %r8
	je	.L788
	movq	%r8, %rdx
	leaq	__gcov3._ZNSt7__cxx1112basic_stringIcSt11char_traitsIcESaIcEEaSEOS4_.lto_priv.0(%rip), %rcx
	movq	%r8, 32(%rsp)
	addq	$1, 24+__gcov0._ZNSt7__cxx1112basic_stringIcSt11char_traitsIcESaIcEEaSEOS4_.lto_priv.0(%rip)
	call	__gcov_topn_values_profiler
	movq	32(%rsp), %rdx
	leaq	__gcov5._ZNSt7__cxx1112basic_stringIcSt11char_traitsIcESaIcEEaSEOS4_.lto_priv.0(%rip), %rcx
	call	__gcov_average_profiler
	movq	%rsi, %rdx
	leaq	__gcov6._ZNSt7__cxx1112basic_stringIcSt11char_traitsIcESaIcEEaSEOS4_.lto_priv.0(%rip), %rcx
	call	__gcov_ior_profiler
	movq	32(%rsp), %r8
	movq	%rsi, %rcx
	movq	%rbx, %rdx
	call	memcpy
	movq	456(%rsp), %r8
	movq	416(%rsp), %rsi
.L637:
	movq	%r8, 424(%rsp)
	movb	$0, (%rsi,%r8)
	movq	448(%rsp), %rsi
	jmp	.L639
	.p2align 4,,10
	.p2align 3
.L651:
	leaq	496(%rsp), %rax
	addq	$1, 352+__gcov0._ZN8Polyfish11setup_benchB5cxx11ERKNS_8PositionERSi(%rip)
	addq	$1, __gcov0._ZNSt14basic_ifstreamIcSt11char_traitsIcEEC1ERKNSt7__cxx1112basic_stringIcS1_SaIcEEESt13_Ios_Openmode.lto_priv.0(%rip)
	cmpq	$0, __gcov7._ZNSt14basic_ifstreamIcSt11char_traitsIcEEC1ERKNSt7__cxx1112basic_stringIcS1_SaIcEEESt13_Ios_Openmode.lto_priv.0(%rip)
	movq	%rax, 136(%rsp)
	movq	%rax, 480(%rsp)
	movq	$0, 488(%rsp)
	movb	$0, 496(%rsp)
	je	.L789
.L654:
	leaq	720(%rsp), %rsi
	movq	%rsi, %rcx
	movq	%rsi, 152(%rsp)
	call	_ZNSt8ios_baseC2Ev
	movq	.refptr._ZTVSt9basic_iosIcSt11char_traitsIcEE(%rip), %rax
	vpxor	%xmm0, %xmm0, %xmm0
	xorl	%edx, %edx
	vmovdqu	%ymm0, 952(%rsp)
	addq	$16, %rax
	addq	$1, 8+__gcov0._ZNSt14basic_ifstreamIcSt11char_traitsIcEEC1ERKNSt7__cxx1112basic_stringIcS1_SaIcEEESt13_Ios_Openmode.lto_priv.0(%rip)
	movq	%rax, 720(%rsp)
	xorl	%eax, %eax
	movw	%ax, 944(%rsp)
	movq	.refptr._ZTTSt14basic_ifstreamIcSt11char_traitsIcEE(%rip), %rax
	movq	$0, 936(%rsp)
	movq	8(%rax), %rdi
	movq	16(%rax), %rbx
	movq	-24(%rdi), %rax
	movq	%rdi, 512(%rsp)
	movq	%rdi, 40(%rsp)
	movq	%rbx, 512(%rsp,%rax)
	movq	$0, 520(%rsp)
	movq	-24(%rdi), %rcx
	movq	%rbx, 128(%rsp)
	addq	%rbp, %rcx
	vzeroupper
	call	_ZNSt9basic_iosIcSt11char_traitsIcEE4initEPSt15basic_streambufIcS1_E
	movq	.refptr._ZTVSt14basic_ifstreamIcSt11char_traitsIcEE(%rip), %rax
	movq	32(%rsp), %rdi
	addq	$1, 16+__gcov0._ZNSt14basic_ifstreamIcSt11char_traitsIcEEC1ERKNSt7__cxx1112basic_stringIcS1_SaIcEEESt13_Ios_Openmode.lto_priv.0(%rip)
	addq	$24, %rax
	movq	%rdi, %rcx
	movq	%rax, 512(%rsp)
	movq	.refptr._ZTVSt14basic_ifstreamIcSt11char_traitsIcEE(%rip), %rax
	addq	$64, %rax
	movq	%rax, 720(%rsp)
	call	_ZNSt13basic_filebufIcSt11char_traitsIcEEC1Ev
	movq	%rdi, %rdx
	movq	%rsi, %rcx
	addq	$1, 24+__gcov0._ZNSt14basic_ifstreamIcSt11char_traitsIcEEC1ERKNSt7__cxx1112basic_stringIcS1_SaIcEEESt13_Ios_Openmode.lto_priv.0(%rip)
	call	_ZNSt9basic_iosIcSt11char_traitsIcEE4initEPSt15basic_streambufIcS1_E
	addq	$1, 32+__gcov0._ZNSt14basic_ifstreamIcSt11char_traitsIcEEC1ERKNSt7__cxx1112basic_stringIcS1_SaIcEEESt13_Ios_Openmode.lto_priv.0(%rip)
	movq	256(%rsp), %rdx
	addq	$1, __gcov0._ZNSt14basic_ifstreamIcSt11char_traitsIcEE4openERKNSt7__cxx1112basic_stringIcS1_SaIcEEESt13_Ios_Openmode.lto_priv.0(%rip)
	cmpq	$0, __gcov7._ZNSt14basic_ifstreamIcSt11char_traitsIcEE4openERKNSt7__cxx1112basic_stringIcS1_SaIcEEESt13_Ios_Openmode.lto_priv.0(%rip)
	je	.L790
.L655:
	movq	32(%rsp), %rcx
	movl	$8, %r8d
	call	_ZNSt13basic_filebufIcSt11char_traitsIcEE4openEPKcSt13_Ios_Openmode
	testq	%rax, %rax
	je	.L791
	movq	512(%rsp), %rax
	xorl	%edx, %edx
	addq	$1, 16+__gcov0._ZNSt14basic_ifstreamIcSt11char_traitsIcEE4openERKNSt7__cxx1112basic_stringIcS1_SaIcEEESt13_Ios_Openmode.lto_priv.0(%rip)
	movq	-24(%rax), %rcx
	addq	%rbp, %rcx
	call	_ZNSt9basic_iosIcSt11char_traitsIcEE5clearESt12_Ios_Iostate
	addq	$1, 32+__gcov0._ZNSt14basic_ifstreamIcSt11char_traitsIcEE4openERKNSt7__cxx1112basic_stringIcS1_SaIcEEESt13_Ios_Openmode.lto_priv.0(%rip)
.L657:
	leaq	600(%rsp), %rax
	addq	$1, 40+__gcov0._ZNSt14basic_ifstreamIcSt11char_traitsIcEEC1ERKNSt7__cxx1112basic_stringIcS1_SaIcEEESt13_Ios_Openmode.lto_priv.0(%rip)
	movq	%rax, %rcx
	addq	$1, 392+__gcov0._ZN8Polyfish11setup_benchB5cxx11ERKNS_8PositionERSi(%rip)
	movq	%rax, 144(%rsp)
	call	_ZNKSt12__basic_fileIcE7is_openEv
	testb	%al, %al
	je	.L747
	movq	.refptr.__gcov_time_profiler_counter(%rip), %rdi
	leaq	__gcov7._ZSt7getlineIcSt11char_traitsIcESaIcEERSt13basic_istreamIT_T0_ES7_RNSt7__cxx1112basic_stringIS4_S5_T1_EE.lto_priv.0(%rip), %rbx
.L658:
	movq	.refptr.__gcov_time_profiler_counter(%rip), %rsi
	jmp	.L659
	.p2align 4,,10
	.p2align 3
.L798:
	addq	$1, __gcov0._ZNKSt5ctypeIcE5widenEc.lto_priv.0(%rip)
	movzbl	67(%r14), %eax
.L669:
	leaq	480(%rsp), %r14
	movsbl	%al, %r8d
	movq	%rbp, %rcx
	addq	$1, 16+__gcov0._ZSt7getlineIcSt11char_traitsIcESaIcEERSt13basic_istreamIT_T0_ES7_RNSt7__cxx1112basic_stringIS4_S5_T1_EE.lto_priv.0(%rip)
	movq	%r14, %rdx
	call	_ZSt7getlineIcSt11char_traitsIcESaIcEERSt13basic_istreamIT_T0_ES7_RNSt7__cxx1112basic_stringIS4_S5_T1_EES4_
	addq	$1, 24+__gcov0._ZSt7getlineIcSt11char_traitsIcESaIcEERSt13basic_istreamIT_T0_ES7_RNSt7__cxx1112basic_stringIS4_S5_T1_EE.lto_priv.0(%rip)
	movq	(%rax), %rdx
	movq	-24(%rdx), %rdx
	testb	$5, 32(%rax,%rdx)
	jne	.L792
	addq	$1, 448+__gcov0._ZN8Polyfish11setup_benchB5cxx11ERKNS_8PositionERSi(%rip)
	cmpq	$0, 488(%rsp)
	jne	.L793
.L659:
	cmpq	$0, (%rbx)
	je	.L794
.L664:
	movq	512(%rsp), %rax
	movq	-24(%rax), %rax
	movq	752(%rsp,%rax), %r14
	testq	%r14, %r14
	je	.L795
	addq	$1, 8+__gcov0._ZSt7getlineIcSt11char_traitsIcESaIcEERSt13basic_istreamIT_T0_ES7_RNSt7__cxx1112basic_stringIS4_S5_T1_EE.lto_priv.0(%rip)
	cmpq	$0, (%r15)
	jne	.L796
.L666:
	cmpq	$0, __gcov7._ZNKSt5ctypeIcE5widenEc.lto_priv.0(%rip)
	je	.L797
.L667:
	cmpb	$0, 56(%r14)
	jne	.L798
	movq	%r14, %rcx
	addq	$1, 8+__gcov0._ZNKSt5ctypeIcE5widenEc.lto_priv.0(%rip)
	call	_ZNKSt5ctypeIcE13_M_widen_initEv
	movq	(%r14), %rax
	movl	$10, %edx
	leaq	__gcov4._ZNKSt5ctypeIcE5widenEc.lto_priv.0(%rip), %rcx
	movq	%rcx, 8(%r15)
	movq	%r14, %rcx
	movq	48(%rax), %rax
	addq	$1, 16+__gcov0._ZNKSt5ctypeIcE5widenEc.lto_priv.0(%rip)
	movq	%rax, (%r15)
	call	*%rax
	addq	$1, 24+__gcov0._ZNKSt5ctypeIcE5widenEc.lto_priv.0(%rip)
	jmp	.L669
	.p2align 4,,10
	.p2align 3
.L763:
	addq	$1, 304+__gcov0._ZN8Polyfish11setup_benchB5cxx11ERKNS_8PositionERSi(%rip)
	jmp	.L718
	.p2align 4,,10
	.p2align 3
.L762:
	addq	$1, 280+__gcov0._ZN8Polyfish11setup_benchB5cxx11ERKNS_8PositionERSi(%rip)
	jmp	.L646
	.p2align 4,,10
	.p2align 3
.L755:
	movq	.refptr.__gcov_time_profiler_counter(%rip), %rdx
	movq	(%rdx), %rax
	addq	$1, %rax
	movq	%rax, __gcov7._ZN8Polyfish11setup_benchB5cxx11ERKNS_8PositionERSi(%rip)
	movq	%rax, (%rdx)
	jmp	.L602
	.p2align 4,,10
	.p2align 3
.L754:
	leaq	_ZN8Polyfish11setup_benchB5cxx11ERKNS_8PositionERSi(%rip), %rdx
	movl	$515729224, %ecx
	call	__gcov_indirect_call_profiler_v4
	jmp	.L601
	.p2align 4,,10
	.p2align 3
.L770:
	vmovdqu	16(%rax), %xmm2
	addq	$1, 8+__gcov0._ZStplIcSt11char_traitsIcESaIcEENSt7__cxx1112basic_stringIT_T0_T1_EEOS8_RKS8_.lto_priv.0(%rip)
	vmovdqu	%xmm2, 464(%rsp)
	jmp	.L634
	.p2align 4,,10
	.p2align 3
.L787:
	addq	$1, 376+__gcov0._ZN8Polyfish11setup_benchB5cxx11ERKNS_8PositionERSi(%rip)
	jmp	.L650
	.p2align 4,,10
	.p2align 3
.L769:
	movq	.refptr.__gcov_time_profiler_counter(%rip), %rdx
	movq	(%rdx), %rax
	addq	$1, %rax
	movq	%rax, __gcov7._ZStplIcSt11char_traitsIcESaIcEENSt7__cxx1112basic_stringIT_T0_T1_EEOS8_RKS8_.lto_priv.0(%rip)
	movq	%rax, (%rdx)
	jmp	.L632
	.p2align 4,,10
	.p2align 3
.L773:
	leaq	_ZNSt7__cxx1112basic_stringIcSt11char_traitsIcESaIcEEC1IS3_EEPKcRKS3_(%rip), %rdx
	movl	$337037418, %ecx
	call	__gcov_indirect_call_profiler_v4
	cmpq	$0, __gcov7._ZNSt7__cxx1112basic_stringIcSt11char_traitsIcESaIcEEC1IS3_EEPKcRKS3_.lto_priv.0(%rip)
	jne	.L622
	jmp	.L774
	.p2align 4,,10
	.p2align 3
.L768:
	leaq	_ZStplIcSt11char_traitsIcESaIcEENSt7__cxx1112basic_stringIT_T0_T1_EEOS8_RKS8_(%rip), %rdx
	movl	$1605650492, %ecx
	call	__gcov_indirect_call_profiler_v4
	jmp	.L631
	.p2align 4,,10
	.p2align 3
.L782:
	movq	.refptr.__gcov_time_profiler_counter(%rip), %rdx
	movq	(%rdx), %rax
	addq	$1, %rax
	movq	%rax, __gcov7._ZNSt7__cxx1112basic_stringIcSt11char_traitsIcESaIcEEC1IS3_EEPKcRKS3_.lto_priv.0(%rip)
	movq	%rax, (%rdx)
	jmp	.L606
	.p2align 4,,10
	.p2align 3
.L756:
	leaq	_ZNSt7__cxx1112basic_stringIcSt11char_traitsIcESaIcEEC1IS3_EEPKcRKS3_(%rip), %rdx
	movl	$337037418, %ecx
	call	__gcov_indirect_call_profiler_v4
	cmpq	$0, __gcov7._ZNSt7__cxx1112basic_stringIcSt11char_traitsIcESaIcEEC1IS3_EEPKcRKS3_.lto_priv.0(%rip)
	jne	.L629
	jmp	.L757
	.p2align 4,,10
	.p2align 3
.L774:
	movq	.refptr.__gcov_time_profiler_counter(%rip), %rdx
	movq	(%rdx), %rax
	addq	$1, %rax
	movq	%rax, __gcov7._ZNSt7__cxx1112basic_stringIcSt11char_traitsIcESaIcEEC1IS3_EEPKcRKS3_.lto_priv.0(%rip)
	movq	%rax, (%rdx)
	jmp	.L622
	.p2align 4,,10
	.p2align 3
.L775:
	leaq	_ZNSt7__cxx1112basic_stringIcSt11char_traitsIcESaIcEEC1IS3_EEPKcRKS3_(%rip), %rdx
	movl	$337037418, %ecx
	call	__gcov_indirect_call_profiler_v4
	cmpq	$0, __gcov7._ZNSt7__cxx1112basic_stringIcSt11char_traitsIcESaIcEEC1IS3_EEPKcRKS3_.lto_priv.0(%rip)
	jne	.L618
	.p2align 4,,10
	.p2align 3
.L776:
	movq	.refptr.__gcov_time_profiler_counter(%rip), %rdx
	movq	(%rdx), %rax
	addq	$1, %rax
	movq	%rax, __gcov7._ZNSt7__cxx1112basic_stringIcSt11char_traitsIcESaIcEEC1IS3_EEPKcRKS3_.lto_priv.0(%rip)
	movq	%rax, (%rdx)
	jmp	.L618
	.p2align 4,,10
	.p2align 3
.L777:
	leaq	_ZNSt7__cxx1112basic_stringIcSt11char_traitsIcESaIcEEC1IS3_EEPKcRKS3_(%rip), %rdx
	movl	$337037418, %ecx
	call	__gcov_indirect_call_profiler_v4
	cmpq	$0, __gcov7._ZNSt7__cxx1112basic_stringIcSt11char_traitsIcESaIcEEC1IS3_EEPKcRKS3_.lto_priv.0(%rip)
	jne	.L614
	.p2align 4,,10
	.p2align 3
.L778:
	movq	.refptr.__gcov_time_profiler_counter(%rip), %rdx
	movq	(%rdx), %rax
	addq	$1, %rax
	movq	%rax, __gcov7._ZNSt7__cxx1112basic_stringIcSt11char_traitsIcESaIcEEC1IS3_EEPKcRKS3_.lto_priv.0(%rip)
	movq	%rax, (%rdx)
	jmp	.L614
	.p2align 4,,10
	.p2align 3
.L779:
	leaq	_ZNSt7__cxx1112basic_stringIcSt11char_traitsIcESaIcEEC1IS3_EEPKcRKS3_(%rip), %rdx
	movl	$337037418, %ecx
	call	__gcov_indirect_call_profiler_v4
	cmpq	$0, __gcov7._ZNSt7__cxx1112basic_stringIcSt11char_traitsIcESaIcEEC1IS3_EEPKcRKS3_.lto_priv.0(%rip)
	jne	.L610
	.p2align 4,,10
	.p2align 3
.L780:
	movq	.refptr.__gcov_time_profiler_counter(%rip), %rdx
	movq	(%rdx), %rax
	addq	$1, %rax
	movq	%rax, __gcov7._ZNSt7__cxx1112basic_stringIcSt11char_traitsIcESaIcEEC1IS3_EEPKcRKS3_.lto_priv.0(%rip)
	movq	%rax, (%rdx)
	jmp	.L610
	.p2align 4,,10
	.p2align 3
.L781:
	leaq	_ZNSt7__cxx1112basic_stringIcSt11char_traitsIcESaIcEEC1IS3_EEPKcRKS3_(%rip), %rdx
	movl	$337037418, %ecx
	call	__gcov_indirect_call_profiler_v4
	cmpq	$0, __gcov7._ZNSt7__cxx1112basic_stringIcSt11char_traitsIcESaIcEEC1IS3_EEPKcRKS3_.lto_priv.0(%rip)
	jne	.L606
	jmp	.L782
	.p2align 4,,10
	.p2align 3
.L771:
	leaq	_ZNSt7__cxx1112basic_stringIcSt11char_traitsIcESaIcEEC1IS3_EEPKcRKS3_(%rip), %rdx
	movl	$337037418, %ecx
	call	__gcov_indirect_call_profiler_v4
	cmpq	$0, __gcov7._ZNSt7__cxx1112basic_stringIcSt11char_traitsIcESaIcEEC1IS3_EEPKcRKS3_.lto_priv.0(%rip)
	jne	.L626
	.p2align 4,,10
	.p2align 3
.L772:
	movq	.refptr.__gcov_time_profiler_counter(%rip), %rdx
	movq	(%rdx), %rax
	addq	$1, %rax
	movq	%rax, __gcov7._ZNSt7__cxx1112basic_stringIcSt11char_traitsIcESaIcEEC1IS3_EEPKcRKS3_.lto_priv.0(%rip)
	movq	%rax, (%rdx)
	jmp	.L626
	.p2align 4,,10
	.p2align 3
.L757:
	movq	.refptr.__gcov_time_profiler_counter(%rip), %rdx
	movq	(%rdx), %rax
	addq	$1, %rax
	movq	%rax, __gcov7._ZNSt7__cxx1112basic_stringIcSt11char_traitsIcESaIcEEC1IS3_EEPKcRKS3_.lto_priv.0(%rip)
	movq	%rax, (%rdx)
	jmp	.L629
.L791:
	movq	512(%rsp), %rax
	addq	$1, 8+__gcov0._ZNSt14basic_ifstreamIcSt11char_traitsIcEE4openERKNSt7__cxx1112basic_stringIcS1_SaIcEEESt13_Ios_Openmode.lto_priv.0(%rip)
	movq	-24(%rax), %rcx
	addq	%rbp, %rcx
	movl	32(%rcx), %edx
	orl	$4, %edx
	call	_ZNSt9basic_iosIcSt11char_traitsIcEE5clearESt12_Ios_Iostate
	addq	$1, 24+__gcov0._ZNSt14basic_ifstreamIcSt11char_traitsIcEE4openERKNSt7__cxx1112basic_stringIcS1_SaIcEEESt13_Ios_Openmode.lto_priv.0(%rip)
	jmp	.L657
	.p2align 4,,10
	.p2align 3
.L794:
	movq	(%rdi), %rax
	addq	$1, %rax
	movq	%rax, (%rbx)
	movq	%rax, (%rdi)
	jmp	.L664
	.p2align 4,,10
	.p2align 3
.L797:
	movq	(%rsi), %rax
	addq	$1, %rax
	movq	%rax, __gcov7._ZNKSt5ctypeIcE5widenEc.lto_priv.0(%rip)
	movq	%rax, (%rsi)
	jmp	.L667
	.p2align 4,,10
	.p2align 3
.L796:
	leaq	_ZNKSt5ctypeIcE5widenEc(%rip), %rdx
	movl	$1827960770, %ecx
	call	__gcov_indirect_call_profiler_v4
	jmp	.L666
	.p2align 4,,10
	.p2align 3
.L792:
	addq	$1, 456+__gcov0._ZN8Polyfish11setup_benchB5cxx11ERKNS_8PositionERSi(%rip)
	addq	$1, __gcov0._ZNSt14basic_ifstreamIcSt11char_traitsIcEE5closeEv.lto_priv.0(%rip)
	cmpq	$0, __gcov7._ZNSt14basic_ifstreamIcSt11char_traitsIcEE5closeEv.lto_priv.0(%rip)
	je	.L799
.L671:
	movq	32(%rsp), %rcx
	call	_ZNSt13basic_filebufIcSt11char_traitsIcEE5closeEv
	addq	$1, 8+__gcov0._ZNSt14basic_ifstreamIcSt11char_traitsIcEE5closeEv.lto_priv.0(%rip)
	testq	%rax, %rax
	je	.L800
.L672:
	addq	$1, 464+__gcov0._ZN8Polyfish11setup_benchB5cxx11ERKNS_8PositionERSi(%rip)
	cmpq	$0, (%r15)
	je	.L673
	movq	.refptr._ZNSt14basic_ifstreamIcSt11char_traitsIcEED1Ev(%rip), %rdx
	movl	$264073443, %ecx
	call	__gcov_indirect_call_profiler_v4
.L673:
	addq	$1, __gcov0._ZNSt14basic_ifstreamIcSt11char_traitsIcEED1Ev.lto_priv.0(%rip)
	cmpq	$0, __gcov7._ZNSt14basic_ifstreamIcSt11char_traitsIcEED1Ev.lto_priv.0(%rip)
	je	.L801
.L674:
	movq	.refptr._ZTVSt14basic_ifstreamIcSt11char_traitsIcEE(%rip), %rax
	addq	$24, %rax
	movq	%rax, 512(%rsp)
	movq	.refptr._ZTVSt14basic_ifstreamIcSt11char_traitsIcEE(%rip), %rax
	addq	$64, %rax
	cmpq	$0, (%r15)
	movq	%rax, 720(%rsp)
	jne	.L802
.L675:
	addq	$1, __gcov0._ZNSt13basic_filebufIcSt11char_traitsIcEED2Ev.lto_priv.0(%rip)
	cmpq	$0, __gcov7._ZNSt13basic_filebufIcSt11char_traitsIcEED2Ev.lto_priv.0(%rip)
	je	.L803
.L676:
	movq	.refptr._ZTVSt13basic_filebufIcSt11char_traitsIcEE(%rip), %rax
	movq	32(%rsp), %rcx
	addq	$16, %rax
	movq	%rax, 528(%rsp)
	call	_ZNSt13basic_filebufIcSt11char_traitsIcEE5closeEv
	movq	144(%rsp), %rcx
	addq	$1, 8+__gcov0._ZNSt13basic_filebufIcSt11char_traitsIcEED2Ev.lto_priv.0(%rip)
	call	_ZNSt12__basic_fileIcED1Ev
	movq	.refptr._ZTVSt15basic_streambufIcSt11char_traitsIcEE(%rip), %rax
	leaq	584(%rsp), %rcx
	addq	$1, 16+__gcov0._ZNSt13basic_filebufIcSt11char_traitsIcEED2Ev.lto_priv.0(%rip)
	addq	$16, %rax
	movq	%rax, 528(%rsp)
	call	_ZNSt6localeD1Ev
	movq	40(%rsp), %rax
	movq	128(%rsp), %rdi
	movq	152(%rsp), %rcx
	addq	$1, 24+__gcov0._ZNSt13basic_filebufIcSt11char_traitsIcEED2Ev.lto_priv.0(%rip)
	movq	%rax, 512(%rsp)
	movq	-24(%rax), %rax
	addq	$1, 8+__gcov0._ZNSt14basic_ifstreamIcSt11char_traitsIcEED1Ev.lto_priv.0(%rip)
	movq	%rdi, 512(%rsp,%rax)
	movq	.refptr._ZTVSt9basic_iosIcSt11char_traitsIcEE(%rip), %rax
	movq	$0, 520(%rsp)
	addq	$16, %rax
	movq	%rax, 720(%rsp)
	call	_ZNSt8ios_baseD2Ev
	addq	$1, 16+__gcov0._ZNSt14basic_ifstreamIcSt11char_traitsIcEED1Ev.lto_priv.0(%rip)
	movq	480(%rsp), %rcx
	cmpq	136(%rsp), %rcx
	je	.L804
	movq	496(%rsp), %rax
	addq	$1, 472+__gcov0._ZN8Polyfish11setup_benchB5cxx11ERKNS_8PositionERSi(%rip)
	leaq	1(%rax), %rdx
	call	_ZdlPvy
	addq	$1, 488+__gcov0._ZN8Polyfish11setup_benchB5cxx11ERKNS_8PositionERSi(%rip)
	jmp	.L650
	.p2align 4,,10
	.p2align 3
.L793:
	addq	$1, 432+__gcov0._ZN8Polyfish11setup_benchB5cxx11ERKNS_8PositionERSi(%rip)
	cmpq	$0, (%r15)
	jne	.L805
.L660:
	cmpq	$0, __gcov7._ZNSt6vectorINSt7__cxx1112basic_stringIcSt11char_traitsIcESaIcEEESaIS5_EE9push_backERKS5_(%rip)
	je	.L806
.L661:
	movq	168(%rsp), %rcx
	cmpq	176(%rsp), %rcx
	je	.L662
	leaq	16(%rcx), %rax
	movq	488(%rsp), %r8
	addq	$1, __gcov0._ZNSt6vectorINSt7__cxx1112basic_stringIcSt11char_traitsIcESaIcEEESaIS5_EE9push_backERKS5_(%rip)
	movq	%rax, (%rcx)
	movq	480(%rsp), %rdx
	addq	%rdx, %r8
	call	_ZNSt7__cxx1112basic_stringIcSt11char_traitsIcESaIcEE12_M_constructIPcEEvT_S7_St20forward_iterator_tag.constprop.0
	addq	$1, 16+__gcov0._ZNSt6vectorINSt7__cxx1112basic_stringIcSt11char_traitsIcESaIcEEESaIS5_EE9push_backERKS5_(%rip)
	addq	$32, 168(%rsp)
.L663:
	addq	$1, 440+__gcov0._ZN8Polyfish11setup_benchB5cxx11ERKNS_8PositionERSi(%rip)
	jmp	.L658
	.p2align 4,,10
	.p2align 3
.L785:
	movq	.refptr.__gcov_time_profiler_counter(%rip), %rdx
	movq	(%rdx), %rax
	addq	$1, %rax
	movq	%rax, __gcov7._ZNSt12_Destroy_auxILb0EE9__destroyIPNSt7__cxx1112basic_stringIcSt11char_traitsIcESaIcEEEEEvT_S9_.lto_priv.0(%rip)
	movq	%rax, (%rdx)
	jmp	.L753
	.p2align 4,,10
	.p2align 3
.L784:
	leaq	_ZNSt6vectorINSt7__cxx1112basic_stringIcSt11char_traitsIcESaIcEEESaIS5_EED1Ev(%rip), %rdx
	movl	$890895920, %ecx
	call	__gcov_indirect_call_profiler_v4
	addq	$1, __gcov0._ZNSt6vectorINSt7__cxx1112basic_stringIcSt11char_traitsIcESaIcEEESaIS5_EED1Ev.lto_priv.0(%rip)
	movq	(%r15), %rax
	cmpq	$0, __gcov7._ZNSt6vectorINSt7__cxx1112basic_stringIcSt11char_traitsIcESaIcEEESaIS5_EED1Ev.lto_priv.0(%rip)
	jne	.L708
	.p2align 4,,10
	.p2align 3
.L719:
	movq	.refptr.__gcov_time_profiler_counter(%rip), %rcx
	movq	(%rcx), %rdi
	leaq	1(%rdi), %rdx
	movq	%rdx, __gcov7._ZNSt6vectorINSt7__cxx1112basic_stringIcSt11char_traitsIcESaIcEEESaIS5_EED1Ev.lto_priv.0(%rip)
	movq	%rdx, (%rcx)
.L708:
	movq	168(%rsp), %rsi
	movq	160(%rsp), %rbx
	testq	%rax, %rax
	je	.L709
	leaq	_ZNSt12_Destroy_auxILb0EE9__destroyIPNSt7__cxx1112basic_stringIcSt11char_traitsIcESaIcEEEEEvT_S9_(%rip), %rdx
	movl	$32020916, %ecx
	call	__gcov_indirect_call_profiler_v4
	jmp	.L709
	.p2align 4,,10
	.p2align 3
.L804:
	addq	$1, 480+__gcov0._ZN8Polyfish11setup_benchB5cxx11ERKNS_8PositionERSi(%rip)
	jmp	.L650
.L662:
	leaq	160(%rsp), %r9
	movq	%rcx, %rdx
	movq	%r14, %r8
	addq	$1, 8+__gcov0._ZNSt6vectorINSt7__cxx1112basic_stringIcSt11char_traitsIcESaIcEEESaIS5_EE9push_backERKS5_(%rip)
	movq	%r9, %rcx
	call	_ZNSt6vectorINSt7__cxx1112basic_stringIcSt11char_traitsIcESaIcEEESaIS5_EE17_M_realloc_insertIJRKS5_EEEvN9__gnu_cxx17__normal_iteratorIPS5_S7_EEDpOT_
	addq	$1, 24+__gcov0._ZNSt6vectorINSt7__cxx1112basic_stringIcSt11char_traitsIcESaIcEEESaIS5_EE9push_backERKS5_(%rip)
	jmp	.L663
.L790:
	movq	.refptr.__gcov_time_profiler_counter(%rip), %rcx
	movq	(%rcx), %rax
	addq	$1, %rax
	movq	%rax, __gcov7._ZNSt14basic_ifstreamIcSt11char_traitsIcEE4openERKNSt7__cxx1112basic_stringIcS1_SaIcEEESt13_Ios_Openmode.lto_priv.0(%rip)
	movq	%rax, (%rcx)
	jmp	.L655
.L789:
	movq	.refptr.__gcov_time_profiler_counter(%rip), %rdx
	movq	(%rdx), %rax
	addq	$1, %rax
	movq	%rax, __gcov7._ZNSt14basic_ifstreamIcSt11char_traitsIcEEC1ERKNSt7__cxx1112basic_stringIcS1_SaIcEEESt13_Ios_Openmode.lto_priv.0(%rip)
	movq	%rax, (%rdx)
	jmp	.L654
.L799:
	movq	.refptr.__gcov_time_profiler_counter(%rip), %rdx
	movq	(%rdx), %rax
	addq	$1, %rax
	movq	%rax, __gcov7._ZNSt14basic_ifstreamIcSt11char_traitsIcEE5closeEv.lto_priv.0(%rip)
	movq	%rax, (%rdx)
	jmp	.L671
.L803:
	movq	.refptr.__gcov_time_profiler_counter(%rip), %rdx
	movq	(%rdx), %rax
	addq	$1, %rax
	movq	%rax, __gcov7._ZNSt13basic_filebufIcSt11char_traitsIcEED2Ev.lto_priv.0(%rip)
	movq	%rax, (%rdx)
	jmp	.L676
.L802:
	movq	.refptr._ZNSt13basic_filebufIcSt11char_traitsIcEED2Ev(%rip), %rdx
	movl	$646146352, %ecx
	call	__gcov_indirect_call_profiler_v4
	jmp	.L675
.L801:
	movq	.refptr.__gcov_time_profiler_counter(%rip), %rdx
	movq	(%rdx), %rax
	addq	$1, %rax
	movq	%rax, __gcov7._ZNSt14basic_ifstreamIcSt11char_traitsIcEED1Ev.lto_priv.0(%rip)
	movq	%rax, (%rdx)
	jmp	.L674
.L806:
	movq	.refptr.__gcov_time_profiler_counter(%rip), %rdx
	movq	(%rdx), %rax
	addq	$1, %rax
	movq	%rax, __gcov7._ZNSt6vectorINSt7__cxx1112basic_stringIcSt11char_traitsIcESaIcEEESaIS5_EE9push_backERKS5_(%rip)
	movq	%rax, (%rdx)
	jmp	.L661
.L805:
	leaq	_ZNSt6vectorINSt7__cxx1112basic_stringIcSt11char_traitsIcESaIcEEESaIS5_EE9push_backERKS5_(%rip), %rdx
	movl	$1296707613, %ecx
	call	__gcov_indirect_call_profiler_v4
	jmp	.L660
.L788:
	movzbl	464(%rsp), %eax
	addq	$1, 16+__gcov0._ZNSt7__cxx1112basic_stringIcSt11char_traitsIcESaIcEEaSEOS4_.lto_priv.0(%rip)
	movb	%al, (%rsi)
	movq	456(%rsp), %r8
	movq	416(%rsp), %rsi
	jmp	.L637
.L800:
	movq	512(%rsp), %rax
	addq	$1, 16+__gcov0._ZNSt14basic_ifstreamIcSt11char_traitsIcEE5closeEv.lto_priv.0(%rip)
	movq	-24(%rax), %rcx
	addq	%rbp, %rcx
	movl	32(%rcx), %edx
	orl	$4, %edx
	call	_ZNSt9basic_iosIcSt11char_traitsIcEE5clearESt12_Ios_Iostate
	addq	$1, 24+__gcov0._ZNSt14basic_ifstreamIcSt11char_traitsIcEE5closeEv.lto_priv.0(%rip)
	jmp	.L672
.L795:
	addq	$1, __gcov0._ZSt7getlineIcSt11char_traitsIcESaIcEERSt13basic_istreamIT_T0_ES7_RNSt7__cxx1112basic_stringIS4_S5_T1_EE.lto_priv.0(%rip)
	call	_ZSt16__throw_bad_castv
.L747:
	movq	.refptr._ZSt4cerr(%rip), %r12
	movl	$20, %r8d
	leaq	.LC13(%rip), %rdx
	addq	$1, 400+__gcov0._ZN8Polyfish11setup_benchB5cxx11ERKNS_8PositionERSi(%rip)
	movq	%r12, %rcx
	call	_ZSt16__ostream_insertIcSt11char_traitsIcEERSt13basic_ostreamIT_T0_ES6_PKS3_x
	movq	264(%rsp), %r8
	movq	%r12, %rcx
	movq	256(%rsp), %rdx
	addq	$1, 408+__gcov0._ZN8Polyfish11setup_benchB5cxx11ERKNS_8PositionERSi(%rip)
	call	_ZSt16__ostream_insertIcSt11char_traitsIcEERSt13basic_ostreamIT_T0_ES6_PKS3_x
	addq	$1, 416+__gcov0._ZN8Polyfish11setup_benchB5cxx11ERKNS_8PositionERSi(%rip)
	movq	%rax, %rcx
	call	_ZSt4endlIcSt11char_traitsIcEERSt13basic_ostreamIT_T0_ES6_
	movl	$1, %ecx
	addq	$1, 424+__gcov0._ZN8Polyfish11setup_benchB5cxx11ERKNS_8PositionERSi(%rip)
	call	exit
	nop
	.seh_endproc
	.align 2
	.p2align 4
	.globl	_ZNSt7__cxx1112basic_stringIcSt11char_traitsIcESaIcEE12_M_constructIPcEEvT_S7_St20forward_iterator_tag
	.def	_ZNSt7__cxx1112basic_stringIcSt11char_traitsIcESaIcEE12_M_constructIPcEEvT_S7_St20forward_iterator_tag;	.scl	2;	.type	32;	.endef
	.seh_proc	_ZNSt7__cxx1112basic_stringIcSt11char_traitsIcESaIcEE12_M_constructIPcEEvT_S7_St20forward_iterator_tag
_ZNSt7__cxx1112basic_stringIcSt11char_traitsIcESaIcEE12_M_constructIPcEEvT_S7_St20forward_iterator_tag:
	pushq	%r13
	.seh_pushreg	%r13
	pushq	%r12
	.seh_pushreg	%r12
	pushq	%rsi
	.seh_pushreg	%rsi
	pushq	%rbx
	.seh_pushreg	%rbx
	subq	$56, %rsp
	.seh_stackalloc	56
	.seh_endprologue
	movq	.refptr.__gcov_indirect_call(%rip), %rax
	cmpq	$0, (%rax)
	movq	%rcx, %rsi
	movq	%rdx, %r12
	movq	%r8, %rbx
	je	.L808
	leaq	_ZNSt7__cxx1112basic_stringIcSt11char_traitsIcESaIcEE12_M_constructIPcEEvT_S7_St20forward_iterator_tag(%rip), %rdx
	movl	$1823456052, %ecx
	call	__gcov_indirect_call_profiler_v4
.L808:
	cmpq	$0, __gcov7._ZNSt7__cxx1112basic_stringIcSt11char_traitsIcESaIcEE12_M_constructIPcEEvT_S7_St20forward_iterator_tag.lto_priv.0(%rip)
	jne	.L809
	movq	.refptr.__gcov_time_profiler_counter(%rip), %rdx
	movq	(%rdx), %rax
	addq	$1, %rax
	movq	%rax, __gcov7._ZNSt7__cxx1112basic_stringIcSt11char_traitsIcESaIcEE12_M_constructIPcEEvT_S7_St20forward_iterator_tag.lto_priv.0(%rip)
	movq	%rax, (%rdx)
.L809:
	testq	%r12, %r12
	je	.L821
	subq	%r12, %rbx
	movq	%rbx, 40(%rsp)
	cmpq	$15, %rbx
	ja	.L822
	movq	(%rsi), %r13
	cmpq	$1, %rbx
	jne	.L814
	movzbl	(%r12), %eax
	addq	$1, 32+__gcov0._ZNSt7__cxx1112basic_stringIcSt11char_traitsIcESaIcEE12_M_constructIPcEEvT_S7_St20forward_iterator_tag.lto_priv.0(%rip)
	movb	%al, 0(%r13)
	movq	(%rsi), %r13
.L815:
	movq	40(%rsp), %rax
	movq	%rax, 8(%rsi)
	movb	$0, 0(%r13,%rax)
	addq	$56, %rsp
	popq	%rbx
	popq	%rsi
	popq	%r12
	popq	%r13
	ret
	.p2align 4,,10
	.p2align 3
.L822:
	leaq	40(%rsp), %rdx
	xorl	%r8d, %r8d
	movq	%rsi, %rcx
	addq	$1, 16+__gcov0._ZNSt7__cxx1112basic_stringIcSt11char_traitsIcESaIcEE12_M_constructIPcEEvT_S7_St20forward_iterator_tag.lto_priv.0(%rip)
	call	_ZNSt7__cxx1112basic_stringIcSt11char_traitsIcESaIcEE9_M_createERyy
	addq	$1, 24+__gcov0._ZNSt7__cxx1112basic_stringIcSt11char_traitsIcESaIcEE12_M_constructIPcEEvT_S7_St20forward_iterator_tag.lto_priv.0(%rip)
	movq	%rax, (%rsi)
	movq	%rax, %r13
	movq	40(%rsp), %rax
	addq	$1, 40+__gcov0._ZNSt7__cxx1112basic_stringIcSt11char_traitsIcESaIcEE12_M_constructIPcEEvT_S7_St20forward_iterator_tag.lto_priv.0(%rip)
	movq	%rax, 16(%rsi)
.L813:
	movq	%rbx, %rdx
	leaq	__gcov3._ZNSt7__cxx1112basic_stringIcSt11char_traitsIcESaIcEE12_M_constructIPcEEvT_S7_St20forward_iterator_tag.lto_priv.0(%rip), %rcx
	addq	$1, 48+__gcov0._ZNSt7__cxx1112basic_stringIcSt11char_traitsIcESaIcEE12_M_constructIPcEEvT_S7_St20forward_iterator_tag.lto_priv.0(%rip)
	call	__gcov_topn_values_profiler
	movq	%rbx, %rdx
	leaq	__gcov5._ZNSt7__cxx1112basic_stringIcSt11char_traitsIcESaIcEE12_M_constructIPcEEvT_S7_St20forward_iterator_tag.lto_priv.0(%rip), %rcx
	call	__gcov_average_profiler
	movq	%r13, %rdx
	leaq	__gcov6._ZNSt7__cxx1112basic_stringIcSt11char_traitsIcESaIcEE12_M_constructIPcEEvT_S7_St20forward_iterator_tag.lto_priv.0(%rip), %rcx
	call	__gcov_ior_profiler
	movq	%r13, %rcx
	movq	%rbx, %r8
	movq	%r12, %rdx
	call	memcpy
	movq	(%rsi), %r13
	jmp	.L815
	.p2align 4,,10
	.p2align 3
.L821:
	addq	$1, __gcov0._ZNSt7__cxx1112basic_stringIcSt11char_traitsIcESaIcEE12_M_constructIPcEEvT_S7_St20forward_iterator_tag.lto_priv.0(%rip)
	testq	%rbx, %rbx
	jne	.L823
	addq	$1, 40+__gcov0._ZNSt7__cxx1112basic_stringIcSt11char_traitsIcESaIcEE12_M_constructIPcEEvT_S7_St20forward_iterator_tag.lto_priv.0(%rip)
	movq	(%rsi), %r13
	movq	$0, 40(%rsp)
	jmp	.L815
	.p2align 4,,10
	.p2align 3
.L814:
	addq	$1, 40+__gcov0._ZNSt7__cxx1112basic_stringIcSt11char_traitsIcESaIcEE12_M_constructIPcEEvT_S7_St20forward_iterator_tag.lto_priv.0(%rip)
	testq	%rbx, %rbx
	jne	.L813
	jmp	.L815
.L823:
	leaq	.LC2(%rip), %rcx
	addq	$1, 8+__gcov0._ZNSt7__cxx1112basic_stringIcSt11char_traitsIcESaIcEE12_M_constructIPcEEvT_S7_St20forward_iterator_tag.lto_priv.0(%rip)
	call	_ZSt19__throw_logic_errorPKc
	nop
	.seh_endproc
	.section .rdata,"dr"
	.align 8
.LC23:
	.ascii "cannot create std::vector larger than max_size()\0"
	.text
	.align 2
	.p2align 4
	.globl	_ZNSt6vectorINSt7__cxx1112basic_stringIcSt11char_traitsIcESaIcEEESaIS5_EE19_M_range_initializeIPKS5_EEvT_SB_St20forward_iterator_tag
	.def	_ZNSt6vectorINSt7__cxx1112basic_stringIcSt11char_traitsIcESaIcEEESaIS5_EE19_M_range_initializeIPKS5_EEvT_SB_St20forward_iterator_tag;	.scl	2;	.type	32;	.endef
	.seh_proc	_ZNSt6vectorINSt7__cxx1112basic_stringIcSt11char_traitsIcESaIcEEESaIS5_EE19_M_range_initializeIPKS5_EEvT_SB_St20forward_iterator_tag
_ZNSt6vectorINSt7__cxx1112basic_stringIcSt11char_traitsIcESaIcEEESaIS5_EE19_M_range_initializeIPKS5_EEvT_SB_St20forward_iterator_tag:
	pushq	%r15
	.seh_pushreg	%r15
	pushq	%r14
	.seh_pushreg	%r14
	pushq	%r13
	.seh_pushreg	%r13
	pushq	%r12
	.seh_pushreg	%r12
	pushq	%rbp
	.seh_pushreg	%rbp
	pushq	%rdi
	.seh_pushreg	%rdi
	pushq	%rsi
	.seh_pushreg	%rsi
	pushq	%rbx
	.seh_pushreg	%rbx
	subq	$72, %rsp
	.seh_stackalloc	72
	.seh_endprologue
	movq	.refptr.__gcov_indirect_call(%rip), %rdi
	cmpq	$0, (%rdi)
	movq	%rcx, 144(%rsp)
	movq	%rdx, %r15
	movq	%r8, %rsi
	jne	.L853
.L825:
	cmpq	$0, __gcov7._ZNSt6vectorINSt7__cxx1112basic_stringIcSt11char_traitsIcESaIcEEESaIS5_EE19_M_range_initializeIPKS5_EEvT_SB_St20forward_iterator_tag.lto_priv.0(%rip)
	je	.L854
.L826:
	movabsq	$9223372036854775776, %rax
	movq	%rsi, %rbp
	subq	%r15, %rbp
	cmpq	%rax, %rbp
	ja	.L855
	movq	(%rdi), %rax
	testq	%rbp, %rbp
	je	.L856
	addq	$1, 8+__gcov0._ZNSt6vectorINSt7__cxx1112basic_stringIcSt11char_traitsIcESaIcEEESaIS5_EE19_M_range_initializeIPKS5_EEvT_SB_St20forward_iterator_tag.lto_priv.0(%rip)
	testq	%rax, %rax
	jne	.L857
	cmpq	$0, __gcov7._ZN9__gnu_cxx13new_allocatorINSt7__cxx1112basic_stringIcSt11char_traitsIcESaIcEEEE8allocateEyPKv.lto_priv.0(%rip)
	je	.L858
.L831:
	movq	%rbp, %rcx
	addq	$1, __gcov0._ZN9__gnu_cxx13new_allocatorINSt7__cxx1112basic_stringIcSt11char_traitsIcESaIcEEEE8allocateEyPKv.lto_priv.0(%rip)
	call	_Znwy
	addq	$1, 24+__gcov0._ZN9__gnu_cxx13new_allocatorINSt7__cxx1112basic_stringIcSt11char_traitsIcESaIcEEEE8allocateEyPKv.lto_priv.0(%rip)
	addq	$1, 24+__gcov0._ZNSt6vectorINSt7__cxx1112basic_stringIcSt11char_traitsIcESaIcEEESaIS5_EE19_M_range_initializeIPKS5_EEvT_SB_St20forward_iterator_tag.lto_priv.0(%rip)
	movq	%rax, %rbx
.L829:
	movq	144(%rsp), %rax
	addq	%rbx, %rbp
	cmpq	$0, (%rdi)
	movq	%rbx, (%rax)
	movq	%rbp, 16(%rax)
	jne	.L859
.L832:
	addq	$1, __gcov0._ZNSt20__uninitialized_copyILb0EE13__uninit_copyIPKNSt7__cxx1112basic_stringIcSt11char_traitsIcESaIcEEEPS7_EET0_T_SC_SB_.lto_priv.0(%rip)
	cmpq	$0, __gcov7._ZNSt20__uninitialized_copyILb0EE13__uninit_copyIPKNSt7__cxx1112basic_stringIcSt11char_traitsIcESaIcEEEPS7_EET0_T_SC_SB_.lto_priv.0(%rip)
	je	.L860
.L833:
	cmpq	%rsi, %r15
	je	.L834
	leaq	__gcov7._ZNSt7__cxx1112basic_stringIcSt11char_traitsIcESaIcEE12_M_constructIPcEEvT_S7_St20forward_iterator_tag.lto_priv.0(%rip), %rbp
	jmp	.L843
	.p2align 4,,10
	.p2align 3
.L865:
	movzbl	0(%r13), %edx
	addq	$1, 32+__gcov0._ZNSt7__cxx1112basic_stringIcSt11char_traitsIcESaIcEE12_M_constructIPcEEvT_S7_St20forward_iterator_tag.lto_priv.0(%rip)
	movb	%dl, (%r14)
	movq	56(%rsp), %r12
	movq	(%rbx), %r14
.L842:
	addq	$32, %r15
	movq	%r12, 8(%rbx)
	addq	$32, %rbx
	addq	$1, 8+__gcov0._ZNSt20__uninitialized_copyILb0EE13__uninit_copyIPKNSt7__cxx1112basic_stringIcSt11char_traitsIcESaIcEEEPS7_EET0_T_SC_SB_.lto_priv.0(%rip)
	movb	$0, (%r14,%r12)
	cmpq	%r15, %rsi
	je	.L834
.L843:
	leaq	16(%rbx), %rax
	cmpq	$0, (%rdi)
	movq	(%r15), %r13
	movq	%rax, (%rbx)
	movq	8(%r15), %r12
	jne	.L861
.L835:
	cmpq	$0, 0(%rbp)
	je	.L862
.L836:
	testq	%r13, %r13
	je	.L863
	movq	%r12, 56(%rsp)
	cmpq	$15, %r12
	ja	.L864
.L839:
	movq	(%rbx), %r14
	cmpq	$1, %r12
	je	.L865
	addq	$1, 40+__gcov0._ZNSt7__cxx1112basic_stringIcSt11char_traitsIcESaIcEE12_M_constructIPcEEvT_S7_St20forward_iterator_tag.lto_priv.0(%rip)
	testq	%r12, %r12
	je	.L842
	jmp	.L840
	.p2align 4,,10
	.p2align 3
.L864:
	leaq	56(%rsp), %rdx
	xorl	%r8d, %r8d
	movq	%rbx, %rcx
	addq	$1, 16+__gcov0._ZNSt7__cxx1112basic_stringIcSt11char_traitsIcESaIcEE12_M_constructIPcEEvT_S7_St20forward_iterator_tag.lto_priv.0(%rip)
	call	_ZNSt7__cxx1112basic_stringIcSt11char_traitsIcESaIcEE9_M_createERyy
	movq	56(%rsp), %rdx
	addq	$1, 24+__gcov0._ZNSt7__cxx1112basic_stringIcSt11char_traitsIcESaIcEE12_M_constructIPcEEvT_S7_St20forward_iterator_tag.lto_priv.0(%rip)
	addq	$1, 40+__gcov0._ZNSt7__cxx1112basic_stringIcSt11char_traitsIcESaIcEE12_M_constructIPcEEvT_S7_St20forward_iterator_tag.lto_priv.0(%rip)
	movq	%rax, %r14
	movq	%rax, (%rbx)
	movq	%rdx, 16(%rbx)
.L840:
	movq	%r12, %rdx
	leaq	__gcov3._ZNSt7__cxx1112basic_stringIcSt11char_traitsIcESaIcEE12_M_constructIPcEEvT_S7_St20forward_iterator_tag.lto_priv.0(%rip), %rcx
	addq	$1, 48+__gcov0._ZNSt7__cxx1112basic_stringIcSt11char_traitsIcESaIcEE12_M_constructIPcEEvT_S7_St20forward_iterator_tag.lto_priv.0(%rip)
	call	__gcov_topn_values_profiler
	movq	%r12, %rdx
	leaq	__gcov5._ZNSt7__cxx1112basic_stringIcSt11char_traitsIcESaIcEE12_M_constructIPcEEvT_S7_St20forward_iterator_tag.lto_priv.0(%rip), %rcx
	call	__gcov_average_profiler
	movq	%r14, %rdx
	leaq	__gcov6._ZNSt7__cxx1112basic_stringIcSt11char_traitsIcESaIcEE12_M_constructIPcEEvT_S7_St20forward_iterator_tag.lto_priv.0(%rip), %rcx
	call	__gcov_ior_profiler
	movq	%r12, %r8
	movq	%r14, %rcx
	movq	%r13, %rdx
	call	memcpy
	movq	56(%rsp), %r12
	movq	(%rbx), %r14
	jmp	.L842
	.p2align 4,,10
	.p2align 3
.L863:
	addq	$1, __gcov0._ZNSt7__cxx1112basic_stringIcSt11char_traitsIcESaIcEE12_M_constructIPcEEvT_S7_St20forward_iterator_tag.lto_priv.0(%rip)
	testq	%r12, %r12
	jne	.L866
	movq	$0, 56(%rsp)
	jmp	.L839
	.p2align 4,,10
	.p2align 3
.L862:
	movq	.refptr.__gcov_time_profiler_counter(%rip), %rax
	movq	.refptr.__gcov_time_profiler_counter(%rip), %rcx
	movq	(%rax), %rax
	movq	%rax, 40(%rsp)
	addq	$1, %rax
	movq	%rax, 0(%rbp)
	movq	%rax, (%rcx)
	jmp	.L836
	.p2align 4,,10
	.p2align 3
.L861:
	leaq	_ZNSt7__cxx1112basic_stringIcSt11char_traitsIcESaIcEE12_M_constructIPcEEvT_S7_St20forward_iterator_tag(%rip), %rdx
	movl	$1823456052, %ecx
	call	__gcov_indirect_call_profiler_v4
	jmp	.L835
	.p2align 4,,10
	.p2align 3
.L834:
	addq	$1, 16+__gcov0._ZNSt20__uninitialized_copyILb0EE13__uninit_copyIPKNSt7__cxx1112basic_stringIcSt11char_traitsIcESaIcEEEPS7_EET0_T_SC_SB_.lto_priv.0(%rip)
	movq	144(%rsp), %rax
	addq	$1, 32+__gcov0._ZNSt6vectorINSt7__cxx1112basic_stringIcSt11char_traitsIcESaIcEEESaIS5_EE19_M_range_initializeIPKS5_EEvT_SB_St20forward_iterator_tag.lto_priv.0(%rip)
	movq	%rbx, 8(%rax)
	addq	$72, %rsp
	popq	%rbx
	popq	%rsi
	popq	%rdi
	popq	%rbp
	popq	%r12
	popq	%r13
	popq	%r14
	popq	%r15
	ret
	.p2align 4,,10
	.p2align 3
.L856:
	addq	$1, 16+__gcov0._ZNSt6vectorINSt7__cxx1112basic_stringIcSt11char_traitsIcESaIcEEESaIS5_EE19_M_range_initializeIPKS5_EEvT_SB_St20forward_iterator_tag.lto_priv.0(%rip)
	xorl	%ebx, %ebx
	jmp	.L829
	.p2align 4,,10
	.p2align 3
.L858:
	movq	.refptr.__gcov_time_profiler_counter(%rip), %rdx
	movq	(%rdx), %rax
	addq	$1, %rax
	movq	%rax, __gcov7._ZN9__gnu_cxx13new_allocatorINSt7__cxx1112basic_stringIcSt11char_traitsIcESaIcEEEE8allocateEyPKv.lto_priv.0(%rip)
	movq	%rax, (%rdx)
	jmp	.L831
	.p2align 4,,10
	.p2align 3
.L857:
	leaq	_ZN9__gnu_cxx13new_allocatorINSt7__cxx1112basic_stringIcSt11char_traitsIcESaIcEEEE8allocateEyPKv(%rip), %rdx
	movl	$774033910, %ecx
	call	__gcov_indirect_call_profiler_v4
	cmpq	$0, __gcov7._ZN9__gnu_cxx13new_allocatorINSt7__cxx1112basic_stringIcSt11char_traitsIcESaIcEEEE8allocateEyPKv.lto_priv.0(%rip)
	jne	.L831
	jmp	.L858
	.p2align 4,,10
	.p2align 3
.L854:
	movq	.refptr.__gcov_time_profiler_counter(%rip), %rdx
	movq	(%rdx), %rax
	addq	$1, %rax
	movq	%rax, __gcov7._ZNSt6vectorINSt7__cxx1112basic_stringIcSt11char_traitsIcESaIcEEESaIS5_EE19_M_range_initializeIPKS5_EEvT_SB_St20forward_iterator_tag.lto_priv.0(%rip)
	movq	%rax, (%rdx)
	jmp	.L826
	.p2align 4,,10
	.p2align 3
.L853:
	leaq	_ZNSt6vectorINSt7__cxx1112basic_stringIcSt11char_traitsIcESaIcEEESaIS5_EE19_M_range_initializeIPKS5_EEvT_SB_St20forward_iterator_tag(%rip), %rdx
	movl	$1616564229, %ecx
	call	__gcov_indirect_call_profiler_v4
	jmp	.L825
	.p2align 4,,10
	.p2align 3
.L860:
	movq	.refptr.__gcov_time_profiler_counter(%rip), %rdx
	movq	(%rdx), %rax
	addq	$1, %rax
	movq	%rax, __gcov7._ZNSt20__uninitialized_copyILb0EE13__uninit_copyIPKNSt7__cxx1112basic_stringIcSt11char_traitsIcESaIcEEEPS7_EET0_T_SC_SB_.lto_priv.0(%rip)
	movq	%rax, (%rdx)
	jmp	.L833
	.p2align 4,,10
	.p2align 3
.L859:
	leaq	_ZNSt20__uninitialized_copyILb0EE13__uninit_copyIPKNSt7__cxx1112basic_stringIcSt11char_traitsIcESaIcEEEPS7_EET0_T_SC_SB_(%rip), %rdx
	movl	$1699058223, %ecx
	call	__gcov_indirect_call_profiler_v4
	jmp	.L832
.L866:
	leaq	.LC2(%rip), %rcx
	addq	$1, 8+__gcov0._ZNSt7__cxx1112basic_stringIcSt11char_traitsIcESaIcEE12_M_constructIPcEEvT_S7_St20forward_iterator_tag.lto_priv.0(%rip)
	call	_ZSt19__throw_logic_errorPKc
.L855:
	leaq	.LC23(%rip), %rcx
	addq	$1, __gcov0._ZNSt6vectorINSt7__cxx1112basic_stringIcSt11char_traitsIcESaIcEEESaIS5_EE19_M_range_initializeIPKS5_EEvT_SB_St20forward_iterator_tag.lto_priv.0(%rip)
	call	_ZSt20__throw_length_errorPKc
	nop
	.seh_endproc
	.align 2
	.p2align 4
	.def	_ZNSt6vectorINSt7__cxx1112basic_stringIcSt11char_traitsIcESaIcEEESaIS5_EE20_M_allocate_and_copyIN9__gnu_cxx17__normal_iteratorIPKS5_S7_EEEEPS5_yT_SF_;	.scl	3;	.type	32;	.endef
	.seh_proc	_ZNSt6vectorINSt7__cxx1112basic_stringIcSt11char_traitsIcESaIcEEESaIS5_EE20_M_allocate_and_copyIN9__gnu_cxx17__normal_iteratorIPKS5_S7_EEEEPS5_yT_SF_
_ZNSt6vectorINSt7__cxx1112basic_stringIcSt11char_traitsIcESaIcEEESaIS5_EE20_M_allocate_and_copyIN9__gnu_cxx17__normal_iteratorIPKS5_S7_EEEEPS5_yT_SF_:
	pushq	%r15
	.seh_pushreg	%r15
	pushq	%r14
	.seh_pushreg	%r14
	pushq	%r13
	.seh_pushreg	%r13
	pushq	%r12
	.seh_pushreg	%r12
	pushq	%rbp
	.seh_pushreg	%rbp
	pushq	%rdi
	.seh_pushreg	%rdi
	pushq	%rsi
	.seh_pushreg	%rsi
	pushq	%rbx
	.seh_pushreg	%rbx
	subq	$72, %rsp
	.seh_stackalloc	72
	.seh_endprologue
	movq	.refptr.__gcov_indirect_call(%rip), %rdi
	movq	(%rdi), %rax
	movq	%rdx, %rbx
	movq	%r8, %r13
	movq	%r9, %rsi
	testq	%rax, %rax
	jne	.L904
	cmpq	$0, __gcov7._ZNSt6vectorINSt7__cxx1112basic_stringIcSt11char_traitsIcESaIcEEESaIS5_EE20_M_allocate_and_copyIN9__gnu_cxx17__normal_iteratorIPKS5_S7_EEEEPS5_yT_SF_(%rip)
	je	.L905
.L869:
	testq	%rbx, %rbx
	je	.L906
	addq	$1, __gcov0._ZNSt6vectorINSt7__cxx1112basic_stringIcSt11char_traitsIcESaIcEEESaIS5_EE20_M_allocate_and_copyIN9__gnu_cxx17__normal_iteratorIPKS5_S7_EEEEPS5_yT_SF_(%rip)
	testq	%rax, %rax
	jne	.L907
	cmpq	$0, __gcov7._ZN9__gnu_cxx13new_allocatorINSt7__cxx1112basic_stringIcSt11char_traitsIcESaIcEEEE8allocateEyPKv.lto_priv.0(%rip)
	je	.L908
.L873:
	movq	%rbx, %rax
	shrq	$58, %rax
	jne	.L909
.L874:
	movq	%rbx, %rcx
	addq	$1, __gcov0._ZN9__gnu_cxx13new_allocatorINSt7__cxx1112basic_stringIcSt11char_traitsIcESaIcEEEE8allocateEyPKv.lto_priv.0(%rip)
	salq	$5, %rcx
	call	_Znwy
	addq	$1, 24+__gcov0._ZN9__gnu_cxx13new_allocatorINSt7__cxx1112basic_stringIcSt11char_traitsIcESaIcEEEE8allocateEyPKv.lto_priv.0(%rip)
	movq	%rax, 40(%rsp)
	movq	(%rdi), %rax
	addq	$1, 16+__gcov0._ZNSt6vectorINSt7__cxx1112basic_stringIcSt11char_traitsIcESaIcEEESaIS5_EE20_M_allocate_and_copyIN9__gnu_cxx17__normal_iteratorIPKS5_S7_EEEEPS5_yT_SF_(%rip)
	testq	%rax, %rax
	jne	.L910
.L876:
	addq	$1, __gcov0._ZNSt20__uninitialized_copyILb0EE13__uninit_copyIN9__gnu_cxx17__normal_iteratorIPKNSt7__cxx1112basic_stringIcSt11char_traitsIcESaIcEEESt6vectorIS9_SaIS9_EEEEPS9_EET0_T_SI_SH_(%rip)
	cmpq	$0, __gcov7._ZNSt20__uninitialized_copyILb0EE13__uninit_copyIN9__gnu_cxx17__normal_iteratorIPKNSt7__cxx1112basic_stringIcSt11char_traitsIcESaIcEEESt6vectorIS9_SaIS9_EEEEPS9_EET0_T_SI_SH_(%rip)
	je	.L911
.L877:
	movq	40(%rsp), %rbx
	leaq	__gcov7._ZNSt7__cxx1112basic_stringIcSt11char_traitsIcESaIcEE12_M_constructIPcEEvT_S7_St20forward_iterator_tag.lto_priv.0(%rip), %rbp
	cmpq	%r13, %rsi
	jne	.L887
	jmp	.L888
	.p2align 4,,10
	.p2align 3
.L916:
	movzbl	(%r15), %edx
	addq	$1, 32+__gcov0._ZNSt7__cxx1112basic_stringIcSt11char_traitsIcESaIcEE12_M_constructIPcEEvT_S7_St20forward_iterator_tag.lto_priv.0(%rip)
	movb	%dl, (%r14)
	movq	56(%rsp), %r12
	movq	(%rbx), %r14
.L886:
	addq	$32, %r13
	movq	%r12, 8(%rbx)
	addq	$32, %rbx
	addq	$1, 8+__gcov0._ZNSt20__uninitialized_copyILb0EE13__uninit_copyIN9__gnu_cxx17__normal_iteratorIPKNSt7__cxx1112basic_stringIcSt11char_traitsIcESaIcEEESt6vectorIS9_SaIS9_EEEEPS9_EET0_T_SI_SH_(%rip)
	movb	$0, (%r14,%r12)
	cmpq	%r13, %rsi
	je	.L888
.L887:
	leaq	16(%rbx), %rax
	cmpq	$0, (%rdi)
	movq	0(%r13), %r15
	movq	%rax, (%rbx)
	movq	8(%r13), %r12
	jne	.L912
.L879:
	cmpq	$0, 0(%rbp)
	je	.L913
.L880:
	testq	%r15, %r15
	je	.L914
	movq	%r12, 56(%rsp)
	cmpq	$15, %r12
	ja	.L915
.L883:
	movq	(%rbx), %r14
	cmpq	$1, %r12
	je	.L916
	addq	$1, 40+__gcov0._ZNSt7__cxx1112basic_stringIcSt11char_traitsIcESaIcEE12_M_constructIPcEEvT_S7_St20forward_iterator_tag.lto_priv.0(%rip)
	testq	%r12, %r12
	je	.L886
	jmp	.L884
	.p2align 4,,10
	.p2align 3
.L915:
	leaq	56(%rsp), %rdx
	xorl	%r8d, %r8d
	movq	%rbx, %rcx
	addq	$1, 16+__gcov0._ZNSt7__cxx1112basic_stringIcSt11char_traitsIcESaIcEE12_M_constructIPcEEvT_S7_St20forward_iterator_tag.lto_priv.0(%rip)
	call	_ZNSt7__cxx1112basic_stringIcSt11char_traitsIcESaIcEE9_M_createERyy
	movq	56(%rsp), %rdx
	addq	$1, 24+__gcov0._ZNSt7__cxx1112basic_stringIcSt11char_traitsIcESaIcEE12_M_constructIPcEEvT_S7_St20forward_iterator_tag.lto_priv.0(%rip)
	addq	$1, 40+__gcov0._ZNSt7__cxx1112basic_stringIcSt11char_traitsIcESaIcEE12_M_constructIPcEEvT_S7_St20forward_iterator_tag.lto_priv.0(%rip)
	movq	%rax, %r14
	movq	%rax, (%rbx)
	movq	%rdx, 16(%rbx)
.L884:
	movq	%r12, %rdx
	leaq	__gcov3._ZNSt7__cxx1112basic_stringIcSt11char_traitsIcESaIcEE12_M_constructIPcEEvT_S7_St20forward_iterator_tag.lto_priv.0(%rip), %rcx
	addq	$1, 48+__gcov0._ZNSt7__cxx1112basic_stringIcSt11char_traitsIcESaIcEE12_M_constructIPcEEvT_S7_St20forward_iterator_tag.lto_priv.0(%rip)
	call	__gcov_topn_values_profiler
	movq	%r12, %rdx
	leaq	__gcov5._ZNSt7__cxx1112basic_stringIcSt11char_traitsIcESaIcEE12_M_constructIPcEEvT_S7_St20forward_iterator_tag.lto_priv.0(%rip), %rcx
	call	__gcov_average_profiler
	movq	%r14, %rdx
	leaq	__gcov6._ZNSt7__cxx1112basic_stringIcSt11char_traitsIcESaIcEE12_M_constructIPcEEvT_S7_St20forward_iterator_tag.lto_priv.0(%rip), %rcx
	call	__gcov_ior_profiler
	movq	%r12, %r8
	movq	%r14, %rcx
	movq	%r15, %rdx
	call	memcpy
	movq	56(%rsp), %r12
	movq	(%rbx), %r14
	jmp	.L886
	.p2align 4,,10
	.p2align 3
.L914:
	addq	$1, __gcov0._ZNSt7__cxx1112basic_stringIcSt11char_traitsIcESaIcEE12_M_constructIPcEEvT_S7_St20forward_iterator_tag.lto_priv.0(%rip)
	testq	%r12, %r12
	jne	.L917
	movq	$0, 56(%rsp)
	jmp	.L883
	.p2align 4,,10
	.p2align 3
.L913:
	movq	.refptr.__gcov_time_profiler_counter(%rip), %rax
	movq	.refptr.__gcov_time_profiler_counter(%rip), %rcx
	movq	(%rax), %rax
	movq	%rax, 32(%rsp)
	addq	$1, %rax
	movq	%rax, 0(%rbp)
	movq	%rax, (%rcx)
	jmp	.L880
	.p2align 4,,10
	.p2align 3
.L912:
	leaq	_ZNSt7__cxx1112basic_stringIcSt11char_traitsIcESaIcEE12_M_constructIPcEEvT_S7_St20forward_iterator_tag(%rip), %rdx
	movl	$1823456052, %ecx
	call	__gcov_indirect_call_profiler_v4
	jmp	.L879
	.p2align 4,,10
	.p2align 3
.L888:
	addq	$1, 16+__gcov0._ZNSt20__uninitialized_copyILb0EE13__uninit_copyIN9__gnu_cxx17__normal_iteratorIPKNSt7__cxx1112basic_stringIcSt11char_traitsIcESaIcEEESt6vectorIS9_SaIS9_EEEEPS9_EET0_T_SI_SH_(%rip)
	movq	40(%rsp), %rax
	addq	$1, 24+__gcov0._ZNSt6vectorINSt7__cxx1112basic_stringIcSt11char_traitsIcESaIcEEESaIS5_EE20_M_allocate_and_copyIN9__gnu_cxx17__normal_iteratorIPKS5_S7_EEEEPS5_yT_SF_(%rip)
	addq	$72, %rsp
	popq	%rbx
	popq	%rsi
	popq	%rdi
	popq	%rbp
	popq	%r12
	popq	%r13
	popq	%r14
	popq	%r15
	ret
	.p2align 4,,10
	.p2align 3
.L906:
	addq	$1, 8+__gcov0._ZNSt6vectorINSt7__cxx1112basic_stringIcSt11char_traitsIcESaIcEEESaIS5_EE20_M_allocate_and_copyIN9__gnu_cxx17__normal_iteratorIPKS5_S7_EEEEPS5_yT_SF_(%rip)
	movq	$0, 40(%rsp)
	testq	%rax, %rax
	je	.L876
.L910:
	leaq	_ZNSt20__uninitialized_copyILb0EE13__uninit_copyIN9__gnu_cxx17__normal_iteratorIPKNSt7__cxx1112basic_stringIcSt11char_traitsIcESaIcEEESt6vectorIS9_SaIS9_EEEEPS9_EET0_T_SI_SH_(%rip), %rdx
	movl	$119295020, %ecx
	call	__gcov_indirect_call_profiler_v4
	jmp	.L876
	.p2align 4,,10
	.p2align 3
.L908:
	movq	.refptr.__gcov_time_profiler_counter(%rip), %rdx
	movq	(%rdx), %rax
	addq	$1, %rax
	movq	%rax, __gcov7._ZN9__gnu_cxx13new_allocatorINSt7__cxx1112basic_stringIcSt11char_traitsIcESaIcEEEE8allocateEyPKv.lto_priv.0(%rip)
	movq	%rax, (%rdx)
	movq	%rbx, %rax
	shrq	$58, %rax
	je	.L874
	jmp	.L909
	.p2align 4,,10
	.p2align 3
.L907:
	leaq	_ZN9__gnu_cxx13new_allocatorINSt7__cxx1112basic_stringIcSt11char_traitsIcESaIcEEEE8allocateEyPKv(%rip), %rdx
	movl	$774033910, %ecx
	call	__gcov_indirect_call_profiler_v4
	cmpq	$0, __gcov7._ZN9__gnu_cxx13new_allocatorINSt7__cxx1112basic_stringIcSt11char_traitsIcESaIcEEEE8allocateEyPKv.lto_priv.0(%rip)
	jne	.L873
	jmp	.L908
.L909:
	shrq	$59, %rbx
	je	.L875
	addq	$1, 8+__gcov0._ZN9__gnu_cxx13new_allocatorINSt7__cxx1112basic_stringIcSt11char_traitsIcESaIcEEEE8allocateEyPKv.lto_priv.0(%rip)
	call	_ZSt28__throw_bad_array_new_lengthv
	.p2align 4,,10
	.p2align 3
.L904:
	leaq	_ZNSt6vectorINSt7__cxx1112basic_stringIcSt11char_traitsIcESaIcEEESaIS5_EE20_M_allocate_and_copyIN9__gnu_cxx17__normal_iteratorIPKS5_S7_EEEEPS5_yT_SF_(%rip), %rdx
	movl	$1645280589, %ecx
	call	__gcov_indirect_call_profiler_v4
	cmpq	$0, __gcov7._ZNSt6vectorINSt7__cxx1112basic_stringIcSt11char_traitsIcESaIcEEESaIS5_EE20_M_allocate_and_copyIN9__gnu_cxx17__normal_iteratorIPKS5_S7_EEEEPS5_yT_SF_(%rip)
	movq	(%rdi), %rax
	jne	.L869
	.p2align 4,,10
	.p2align 3
.L905:
	movq	.refptr.__gcov_time_profiler_counter(%rip), %rcx
	movq	(%rcx), %rdx
	addq	$1, %rdx
	movq	%rdx, __gcov7._ZNSt6vectorINSt7__cxx1112basic_stringIcSt11char_traitsIcESaIcEEESaIS5_EE20_M_allocate_and_copyIN9__gnu_cxx17__normal_iteratorIPKS5_S7_EEEEPS5_yT_SF_(%rip)
	movq	%rdx, (%rcx)
	jmp	.L869
	.p2align 4,,10
	.p2align 3
.L911:
	movq	.refptr.__gcov_time_profiler_counter(%rip), %rdx
	movq	(%rdx), %rax
	addq	$1, %rax
	movq	%rax, __gcov7._ZNSt20__uninitialized_copyILb0EE13__uninit_copyIN9__gnu_cxx17__normal_iteratorIPKNSt7__cxx1112basic_stringIcSt11char_traitsIcESaIcEEESt6vectorIS9_SaIS9_EEEEPS9_EET0_T_SI_SH_(%rip)
	movq	%rax, (%rdx)
	jmp	.L877
.L875:
	addq	$1, 16+__gcov0._ZN9__gnu_cxx13new_allocatorINSt7__cxx1112basic_stringIcSt11char_traitsIcESaIcEEEE8allocateEyPKv.lto_priv.0(%rip)
	call	_ZSt17__throw_bad_allocv
.L917:
	leaq	.LC2(%rip), %rcx
	addq	$1, 8+__gcov0._ZNSt7__cxx1112basic_stringIcSt11char_traitsIcESaIcEE12_M_constructIPcEEvT_S7_St20forward_iterator_tag.lto_priv.0(%rip)
	call	_ZSt19__throw_logic_errorPKc
	nop
	.seh_endproc
	.p2align 4
	.def	_ZNSt20__uninitialized_copyILb0EE13__uninit_copyIPNSt7__cxx1112basic_stringIcSt11char_traitsIcESaIcEEES8_EET0_T_SA_S9_;	.scl	3;	.type	32;	.endef
	.seh_proc	_ZNSt20__uninitialized_copyILb0EE13__uninit_copyIPNSt7__cxx1112basic_stringIcSt11char_traitsIcESaIcEEES8_EET0_T_SA_S9_
_ZNSt20__uninitialized_copyILb0EE13__uninit_copyIPNSt7__cxx1112basic_stringIcSt11char_traitsIcESaIcEEES8_EET0_T_SA_S9_:
	pushq	%r15
	.seh_pushreg	%r15
	pushq	%r14
	.seh_pushreg	%r14
	pushq	%r13
	.seh_pushreg	%r13
	pushq	%r12
	.seh_pushreg	%r12
	pushq	%rbp
	.seh_pushreg	%rbp
	pushq	%rdi
	.seh_pushreg	%rdi
	pushq	%rsi
	.seh_pushreg	%rsi
	pushq	%rbx
	.seh_pushreg	%rbx
	subq	$72, %rsp
	.seh_stackalloc	72
	.seh_endprologue
	movq	.refptr.__gcov_indirect_call(%rip), %rbp
	cmpq	$0, 0(%rbp)
	movq	%rcx, %r15
	movq	%rdx, %rsi
	movq	%r8, %r12
	jne	.L936
.L919:
	addq	$1, __gcov0._ZNSt20__uninitialized_copyILb0EE13__uninit_copyIPNSt7__cxx1112basic_stringIcSt11char_traitsIcESaIcEEES8_EET0_T_SA_S9_(%rip)
	cmpq	$0, __gcov7._ZNSt20__uninitialized_copyILb0EE13__uninit_copyIPNSt7__cxx1112basic_stringIcSt11char_traitsIcESaIcEEES8_EET0_T_SA_S9_(%rip)
	je	.L937
.L920:
	cmpq	%rsi, %r15
	je	.L921
	leaq	__gcov7._ZNSt7__cxx1112basic_stringIcSt11char_traitsIcESaIcEE12_M_constructIPcEEvT_S7_St20forward_iterator_tag.lto_priv.0(%rip), %rdi
	jmp	.L930
	.p2align 4,,10
	.p2align 3
.L942:
	movzbl	0(%r13), %eax
	addq	$1, 32+__gcov0._ZNSt7__cxx1112basic_stringIcSt11char_traitsIcESaIcEE12_M_constructIPcEEvT_S7_St20forward_iterator_tag.lto_priv.0(%rip)
	movb	%al, (%r14)
	movq	56(%rsp), %rbx
	movq	(%r12), %r14
.L929:
	addq	$32, %r15
	movq	%rbx, 8(%r12)
	addq	$32, %r12
	addq	$1, 8+__gcov0._ZNSt20__uninitialized_copyILb0EE13__uninit_copyIPNSt7__cxx1112basic_stringIcSt11char_traitsIcESaIcEEES8_EET0_T_SA_S9_(%rip)
	movb	$0, (%r14,%rbx)
	cmpq	%r15, %rsi
	je	.L921
.L930:
	leaq	16(%r12), %rax
	movq	8(%r15), %rbx
	movq	%rax, (%r12)
	cmpq	$0, 0(%rbp)
	movq	(%r15), %r13
	jne	.L938
.L922:
	cmpq	$0, (%rdi)
	je	.L939
.L923:
	testq	%r13, %r13
	je	.L940
	movq	%rbx, 56(%rsp)
	cmpq	$15, %rbx
	ja	.L941
.L926:
	movq	(%r12), %r14
	cmpq	$1, %rbx
	je	.L942
	addq	$1, 40+__gcov0._ZNSt7__cxx1112basic_stringIcSt11char_traitsIcESaIcEE12_M_constructIPcEEvT_S7_St20forward_iterator_tag.lto_priv.0(%rip)
	testq	%rbx, %rbx
	je	.L929
	jmp	.L927
	.p2align 4,,10
	.p2align 3
.L941:
	leaq	56(%rsp), %rdx
	xorl	%r8d, %r8d
	movq	%r12, %rcx
	addq	$1, 16+__gcov0._ZNSt7__cxx1112basic_stringIcSt11char_traitsIcESaIcEE12_M_constructIPcEEvT_S7_St20forward_iterator_tag.lto_priv.0(%rip)
	call	_ZNSt7__cxx1112basic_stringIcSt11char_traitsIcESaIcEE9_M_createERyy
	addq	$1, 24+__gcov0._ZNSt7__cxx1112basic_stringIcSt11char_traitsIcESaIcEE12_M_constructIPcEEvT_S7_St20forward_iterator_tag.lto_priv.0(%rip)
	movq	%rax, (%r12)
	movq	%rax, %r14
	movq	56(%rsp), %rax
	addq	$1, 40+__gcov0._ZNSt7__cxx1112basic_stringIcSt11char_traitsIcESaIcEE12_M_constructIPcEEvT_S7_St20forward_iterator_tag.lto_priv.0(%rip)
	movq	%rax, 16(%r12)
.L927:
	movq	%rbx, %rdx
	leaq	__gcov3._ZNSt7__cxx1112basic_stringIcSt11char_traitsIcESaIcEE12_M_constructIPcEEvT_S7_St20forward_iterator_tag.lto_priv.0(%rip), %rcx
	addq	$1, 48+__gcov0._ZNSt7__cxx1112basic_stringIcSt11char_traitsIcESaIcEE12_M_constructIPcEEvT_S7_St20forward_iterator_tag.lto_priv.0(%rip)
	call	__gcov_topn_values_profiler
	movq	%rbx, %rdx
	leaq	__gcov5._ZNSt7__cxx1112basic_stringIcSt11char_traitsIcESaIcEE12_M_constructIPcEEvT_S7_St20forward_iterator_tag.lto_priv.0(%rip), %rcx
	call	__gcov_average_profiler
	movq	%r14, %rdx
	leaq	__gcov6._ZNSt7__cxx1112basic_stringIcSt11char_traitsIcESaIcEE12_M_constructIPcEEvT_S7_St20forward_iterator_tag.lto_priv.0(%rip), %rcx
	call	__gcov_ior_profiler
	movq	%rbx, %r8
	movq	%r14, %rcx
	movq	%r13, %rdx
	call	memcpy
	movq	56(%rsp), %rbx
	movq	(%r12), %r14
	jmp	.L929
	.p2align 4,,10
	.p2align 3
.L940:
	addq	$1, __gcov0._ZNSt7__cxx1112basic_stringIcSt11char_traitsIcESaIcEE12_M_constructIPcEEvT_S7_St20forward_iterator_tag.lto_priv.0(%rip)
	testq	%rbx, %rbx
	jne	.L943
	movq	$0, 56(%rsp)
	jmp	.L926
	.p2align 4,,10
	.p2align 3
.L939:
	movq	.refptr.__gcov_time_profiler_counter(%rip), %rax
	movq	.refptr.__gcov_time_profiler_counter(%rip), %rdx
	movq	(%rax), %rax
	movq	%rax, 40(%rsp)
	addq	$1, %rax
	movq	%rax, (%rdi)
	movq	%rax, (%rdx)
	jmp	.L923
	.p2align 4,,10
	.p2align 3
.L938:
	leaq	_ZNSt7__cxx1112basic_stringIcSt11char_traitsIcESaIcEE12_M_constructIPcEEvT_S7_St20forward_iterator_tag(%rip), %rdx
	movl	$1823456052, %ecx
	call	__gcov_indirect_call_profiler_v4
	jmp	.L922
	.p2align 4,,10
	.p2align 3
.L921:
	addq	$1, 16+__gcov0._ZNSt20__uninitialized_copyILb0EE13__uninit_copyIPNSt7__cxx1112basic_stringIcSt11char_traitsIcESaIcEEES8_EET0_T_SA_S9_(%rip)
	movq	%r12, %rax
	addq	$72, %rsp
	popq	%rbx
	popq	%rsi
	popq	%rdi
	popq	%rbp
	popq	%r12
	popq	%r13
	popq	%r14
	popq	%r15
	ret
	.p2align 4,,10
	.p2align 3
.L936:
	leaq	_ZNSt20__uninitialized_copyILb0EE13__uninit_copyIPNSt7__cxx1112basic_stringIcSt11char_traitsIcESaIcEEES8_EET0_T_SA_S9_(%rip), %rdx
	movl	$1891653375, %ecx
	call	__gcov_indirect_call_profiler_v4
	jmp	.L919
	.p2align 4,,10
	.p2align 3
.L937:
	movq	.refptr.__gcov_time_profiler_counter(%rip), %rdx
	movq	(%rdx), %rax
	addq	$1, %rax
	movq	%rax, __gcov7._ZNSt20__uninitialized_copyILb0EE13__uninit_copyIPNSt7__cxx1112basic_stringIcSt11char_traitsIcESaIcEEES8_EET0_T_SA_S9_(%rip)
	movq	%rax, (%rdx)
	jmp	.L920
.L943:
	leaq	.LC2(%rip), %rcx
	addq	$1, 8+__gcov0._ZNSt7__cxx1112basic_stringIcSt11char_traitsIcESaIcEE12_M_constructIPcEEvT_S7_St20forward_iterator_tag.lto_priv.0(%rip)
	call	_ZSt19__throw_logic_errorPKc
	nop
	.seh_endproc
	.p2align 4
	.globl	_ZNSt20__uninitialized_copyILb0EE13__uninit_copyIPKNSt7__cxx1112basic_stringIcSt11char_traitsIcESaIcEEEPS7_EET0_T_SC_SB_
	.def	_ZNSt20__uninitialized_copyILb0EE13__uninit_copyIPKNSt7__cxx1112basic_stringIcSt11char_traitsIcESaIcEEEPS7_EET0_T_SC_SB_;	.scl	2;	.type	32;	.endef
	.seh_proc	_ZNSt20__uninitialized_copyILb0EE13__uninit_copyIPKNSt7__cxx1112basic_stringIcSt11char_traitsIcESaIcEEEPS7_EET0_T_SC_SB_
_ZNSt20__uninitialized_copyILb0EE13__uninit_copyIPKNSt7__cxx1112basic_stringIcSt11char_traitsIcESaIcEEEPS7_EET0_T_SC_SB_:
	pushq	%r15
	.seh_pushreg	%r15
	pushq	%r14
	.seh_pushreg	%r14
	pushq	%r13
	.seh_pushreg	%r13
	pushq	%r12
	.seh_pushreg	%r12
	pushq	%rbp
	.seh_pushreg	%rbp
	pushq	%rdi
	.seh_pushreg	%rdi
	pushq	%rsi
	.seh_pushreg	%rsi
	pushq	%rbx
	.seh_pushreg	%rbx
	subq	$72, %rsp
	.seh_stackalloc	72
	.seh_endprologue
	movq	.refptr.__gcov_indirect_call(%rip), %rbp
	cmpq	$0, 0(%rbp)
	movq	%rcx, %r15
	movq	%rdx, %rsi
	movq	%r8, %r12
	jne	.L962
.L945:
	addq	$1, __gcov0._ZNSt20__uninitialized_copyILb0EE13__uninit_copyIPKNSt7__cxx1112basic_stringIcSt11char_traitsIcESaIcEEEPS7_EET0_T_SC_SB_.lto_priv.0(%rip)
	cmpq	$0, __gcov7._ZNSt20__uninitialized_copyILb0EE13__uninit_copyIPKNSt7__cxx1112basic_stringIcSt11char_traitsIcESaIcEEEPS7_EET0_T_SC_SB_.lto_priv.0(%rip)
	je	.L963
.L946:
	cmpq	%rsi, %r15
	je	.L947
	leaq	__gcov7._ZNSt7__cxx1112basic_stringIcSt11char_traitsIcESaIcEE12_M_constructIPcEEvT_S7_St20forward_iterator_tag.lto_priv.0(%rip), %rdi
	jmp	.L956
	.p2align 4,,10
	.p2align 3
.L968:
	movzbl	0(%r13), %eax
	addq	$1, 32+__gcov0._ZNSt7__cxx1112basic_stringIcSt11char_traitsIcESaIcEE12_M_constructIPcEEvT_S7_St20forward_iterator_tag.lto_priv.0(%rip)
	movb	%al, (%r14)
	movq	56(%rsp), %rbx
	movq	(%r12), %r14
.L955:
	addq	$32, %r15
	movq	%rbx, 8(%r12)
	addq	$32, %r12
	addq	$1, 8+__gcov0._ZNSt20__uninitialized_copyILb0EE13__uninit_copyIPKNSt7__cxx1112basic_stringIcSt11char_traitsIcESaIcEEEPS7_EET0_T_SC_SB_.lto_priv.0(%rip)
	movb	$0, (%r14,%rbx)
	cmpq	%r15, %rsi
	je	.L947
.L956:
	leaq	16(%r12), %rax
	movq	8(%r15), %rbx
	movq	%rax, (%r12)
	cmpq	$0, 0(%rbp)
	movq	(%r15), %r13
	jne	.L964
.L948:
	cmpq	$0, (%rdi)
	je	.L965
.L949:
	testq	%r13, %r13
	je	.L966
	movq	%rbx, 56(%rsp)
	cmpq	$15, %rbx
	ja	.L967
.L952:
	movq	(%r12), %r14
	cmpq	$1, %rbx
	je	.L968
	addq	$1, 40+__gcov0._ZNSt7__cxx1112basic_stringIcSt11char_traitsIcESaIcEE12_M_constructIPcEEvT_S7_St20forward_iterator_tag.lto_priv.0(%rip)
	testq	%rbx, %rbx
	je	.L955
	jmp	.L953
	.p2align 4,,10
	.p2align 3
.L967:
	leaq	56(%rsp), %rdx
	xorl	%r8d, %r8d
	movq	%r12, %rcx
	addq	$1, 16+__gcov0._ZNSt7__cxx1112basic_stringIcSt11char_traitsIcESaIcEE12_M_constructIPcEEvT_S7_St20forward_iterator_tag.lto_priv.0(%rip)
	call	_ZNSt7__cxx1112basic_stringIcSt11char_traitsIcESaIcEE9_M_createERyy
	addq	$1, 24+__gcov0._ZNSt7__cxx1112basic_stringIcSt11char_traitsIcESaIcEE12_M_constructIPcEEvT_S7_St20forward_iterator_tag.lto_priv.0(%rip)
	movq	%rax, (%r12)
	movq	%rax, %r14
	movq	56(%rsp), %rax
	addq	$1, 40+__gcov0._ZNSt7__cxx1112basic_stringIcSt11char_traitsIcESaIcEE12_M_constructIPcEEvT_S7_St20forward_iterator_tag.lto_priv.0(%rip)
	movq	%rax, 16(%r12)
.L953:
	movq	%rbx, %rdx
	leaq	__gcov3._ZNSt7__cxx1112basic_stringIcSt11char_traitsIcESaIcEE12_M_constructIPcEEvT_S7_St20forward_iterator_tag.lto_priv.0(%rip), %rcx
	addq	$1, 48+__gcov0._ZNSt7__cxx1112basic_stringIcSt11char_traitsIcESaIcEE12_M_constructIPcEEvT_S7_St20forward_iterator_tag.lto_priv.0(%rip)
	call	__gcov_topn_values_profiler
	movq	%rbx, %rdx
	leaq	__gcov5._ZNSt7__cxx1112basic_stringIcSt11char_traitsIcESaIcEE12_M_constructIPcEEvT_S7_St20forward_iterator_tag.lto_priv.0(%rip), %rcx
	call	__gcov_average_profiler
	movq	%r14, %rdx
	leaq	__gcov6._ZNSt7__cxx1112basic_stringIcSt11char_traitsIcESaIcEE12_M_constructIPcEEvT_S7_St20forward_iterator_tag.lto_priv.0(%rip), %rcx
	call	__gcov_ior_profiler
	movq	%rbx, %r8
	movq	%r14, %rcx
	movq	%r13, %rdx
	call	memcpy
	movq	56(%rsp), %rbx
	movq	(%r12), %r14
	jmp	.L955
	.p2align 4,,10
	.p2align 3
.L966:
	addq	$1, __gcov0._ZNSt7__cxx1112basic_stringIcSt11char_traitsIcESaIcEE12_M_constructIPcEEvT_S7_St20forward_iterator_tag.lto_priv.0(%rip)
	testq	%rbx, %rbx
	jne	.L969
	movq	$0, 56(%rsp)
	jmp	.L952
	.p2align 4,,10
	.p2align 3
.L965:
	movq	.refptr.__gcov_time_profiler_counter(%rip), %rax
	movq	.refptr.__gcov_time_profiler_counter(%rip), %rdx
	movq	(%rax), %rax
	movq	%rax, 40(%rsp)
	addq	$1, %rax
	movq	%rax, (%rdi)
	movq	%rax, (%rdx)
	jmp	.L949
	.p2align 4,,10
	.p2align 3
.L964:
	leaq	_ZNSt7__cxx1112basic_stringIcSt11char_traitsIcESaIcEE12_M_constructIPcEEvT_S7_St20forward_iterator_tag(%rip), %rdx
	movl	$1823456052, %ecx
	call	__gcov_indirect_call_profiler_v4
	jmp	.L948
	.p2align 4,,10
	.p2align 3
.L947:
	addq	$1, 16+__gcov0._ZNSt20__uninitialized_copyILb0EE13__uninit_copyIPKNSt7__cxx1112basic_stringIcSt11char_traitsIcESaIcEEEPS7_EET0_T_SC_SB_.lto_priv.0(%rip)
	movq	%r12, %rax
	addq	$72, %rsp
	popq	%rbx
	popq	%rsi
	popq	%rdi
	popq	%rbp
	popq	%r12
	popq	%r13
	popq	%r14
	popq	%r15
	ret
	.p2align 4,,10
	.p2align 3
.L962:
	leaq	_ZNSt20__uninitialized_copyILb0EE13__uninit_copyIPKNSt7__cxx1112basic_stringIcSt11char_traitsIcESaIcEEEPS7_EET0_T_SC_SB_(%rip), %rdx
	movl	$1699058223, %ecx
	call	__gcov_indirect_call_profiler_v4
	jmp	.L945
	.p2align 4,,10
	.p2align 3
.L963:
	movq	.refptr.__gcov_time_profiler_counter(%rip), %rdx
	movq	(%rdx), %rax
	addq	$1, %rax
	movq	%rax, __gcov7._ZNSt20__uninitialized_copyILb0EE13__uninit_copyIPKNSt7__cxx1112basic_stringIcSt11char_traitsIcESaIcEEEPS7_EET0_T_SC_SB_.lto_priv.0(%rip)
	movq	%rax, (%rdx)
	jmp	.L946
.L969:
	leaq	.LC2(%rip), %rcx
	addq	$1, 8+__gcov0._ZNSt7__cxx1112basic_stringIcSt11char_traitsIcESaIcEE12_M_constructIPcEEvT_S7_St20forward_iterator_tag.lto_priv.0(%rip)
	call	_ZSt19__throw_logic_errorPKc
	nop
	.seh_endproc
	.p2align 4
	.def	_ZNSt20__uninitialized_copyILb0EE13__uninit_copyIN9__gnu_cxx17__normal_iteratorIPKNSt7__cxx1112basic_stringIcSt11char_traitsIcESaIcEEESt6vectorIS9_SaIS9_EEEEPS9_EET0_T_SI_SH_;	.scl	3;	.type	32;	.endef
	.seh_proc	_ZNSt20__uninitialized_copyILb0EE13__uninit_copyIN9__gnu_cxx17__normal_iteratorIPKNSt7__cxx1112basic_stringIcSt11char_traitsIcESaIcEEESt6vectorIS9_SaIS9_EEEEPS9_EET0_T_SI_SH_
_ZNSt20__uninitialized_copyILb0EE13__uninit_copyIN9__gnu_cxx17__normal_iteratorIPKNSt7__cxx1112basic_stringIcSt11char_traitsIcESaIcEEESt6vectorIS9_SaIS9_EEEEPS9_EET0_T_SI_SH_:
	pushq	%r15
	.seh_pushreg	%r15
	pushq	%r14
	.seh_pushreg	%r14
	pushq	%r13
	.seh_pushreg	%r13
	pushq	%r12
	.seh_pushreg	%r12
	pushq	%rbp
	.seh_pushreg	%rbp
	pushq	%rdi
	.seh_pushreg	%rdi
	pushq	%rsi
	.seh_pushreg	%rsi
	pushq	%rbx
	.seh_pushreg	%rbx
	subq	$72, %rsp
	.seh_stackalloc	72
	.seh_endprologue
	movq	.refptr.__gcov_indirect_call(%rip), %rbp
	cmpq	$0, 0(%rbp)
	movq	%rcx, %r15
	movq	%rdx, %rsi
	movq	%r8, %r12
	jne	.L989
.L971:
	addq	$1, __gcov0._ZNSt20__uninitialized_copyILb0EE13__uninit_copyIN9__gnu_cxx17__normal_iteratorIPKNSt7__cxx1112basic_stringIcSt11char_traitsIcESaIcEEESt6vectorIS9_SaIS9_EEEEPS9_EET0_T_SI_SH_(%rip)
	cmpq	$0, __gcov7._ZNSt20__uninitialized_copyILb0EE13__uninit_copyIN9__gnu_cxx17__normal_iteratorIPKNSt7__cxx1112basic_stringIcSt11char_traitsIcESaIcEEESt6vectorIS9_SaIS9_EEEEPS9_EET0_T_SI_SH_(%rip)
	je	.L990
.L972:
	cmpq	%rsi, %r15
	je	.L973
	leaq	__gcov7._ZNSt7__cxx1112basic_stringIcSt11char_traitsIcESaIcEE12_M_constructIPcEEvT_S7_St20forward_iterator_tag.lto_priv.0(%rip), %rdi
	jmp	.L982
	.p2align 4,,10
	.p2align 3
.L995:
	movzbl	0(%r13), %eax
	addq	$1, 32+__gcov0._ZNSt7__cxx1112basic_stringIcSt11char_traitsIcESaIcEE12_M_constructIPcEEvT_S7_St20forward_iterator_tag.lto_priv.0(%rip)
	movb	%al, (%r14)
	movq	56(%rsp), %rbx
	movq	(%r12), %r14
.L981:
	addq	$32, %r15
	movq	%rbx, 8(%r12)
	addq	$32, %r12
	addq	$1, 8+__gcov0._ZNSt20__uninitialized_copyILb0EE13__uninit_copyIN9__gnu_cxx17__normal_iteratorIPKNSt7__cxx1112basic_stringIcSt11char_traitsIcESaIcEEESt6vectorIS9_SaIS9_EEEEPS9_EET0_T_SI_SH_(%rip)
	movb	$0, (%r14,%rbx)
	cmpq	%r15, %rsi
	je	.L973
.L982:
	leaq	16(%r12), %rax
	movq	8(%r15), %rbx
	movq	%rax, (%r12)
	cmpq	$0, 0(%rbp)
	movq	(%r15), %r13
	jne	.L991
.L974:
	cmpq	$0, (%rdi)
	je	.L992
.L975:
	testq	%r13, %r13
	je	.L993
	movq	%rbx, 56(%rsp)
	cmpq	$15, %rbx
	ja	.L994
.L978:
	movq	(%r12), %r14
	cmpq	$1, %rbx
	je	.L995
	addq	$1, 40+__gcov0._ZNSt7__cxx1112basic_stringIcSt11char_traitsIcESaIcEE12_M_constructIPcEEvT_S7_St20forward_iterator_tag.lto_priv.0(%rip)
	testq	%rbx, %rbx
	je	.L981
	jmp	.L979
	.p2align 4,,10
	.p2align 3
.L994:
	leaq	56(%rsp), %rdx
	xorl	%r8d, %r8d
	movq	%r12, %rcx
	addq	$1, 16+__gcov0._ZNSt7__cxx1112basic_stringIcSt11char_traitsIcESaIcEE12_M_constructIPcEEvT_S7_St20forward_iterator_tag.lto_priv.0(%rip)
	call	_ZNSt7__cxx1112basic_stringIcSt11char_traitsIcESaIcEE9_M_createERyy
	addq	$1, 24+__gcov0._ZNSt7__cxx1112basic_stringIcSt11char_traitsIcESaIcEE12_M_constructIPcEEvT_S7_St20forward_iterator_tag.lto_priv.0(%rip)
	movq	%rax, (%r12)
	movq	%rax, %r14
	movq	56(%rsp), %rax
	addq	$1, 40+__gcov0._ZNSt7__cxx1112basic_stringIcSt11char_traitsIcESaIcEE12_M_constructIPcEEvT_S7_St20forward_iterator_tag.lto_priv.0(%rip)
	movq	%rax, 16(%r12)
.L979:
	movq	%rbx, %rdx
	leaq	__gcov3._ZNSt7__cxx1112basic_stringIcSt11char_traitsIcESaIcEE12_M_constructIPcEEvT_S7_St20forward_iterator_tag.lto_priv.0(%rip), %rcx
	addq	$1, 48+__gcov0._ZNSt7__cxx1112basic_stringIcSt11char_traitsIcESaIcEE12_M_constructIPcEEvT_S7_St20forward_iterator_tag.lto_priv.0(%rip)
	call	__gcov_topn_values_profiler
	movq	%rbx, %rdx
	leaq	__gcov5._ZNSt7__cxx1112basic_stringIcSt11char_traitsIcESaIcEE12_M_constructIPcEEvT_S7_St20forward_iterator_tag.lto_priv.0(%rip), %rcx
	call	__gcov_average_profiler
	movq	%r14, %rdx
	leaq	__gcov6._ZNSt7__cxx1112basic_stringIcSt11char_traitsIcESaIcEE12_M_constructIPcEEvT_S7_St20forward_iterator_tag.lto_priv.0(%rip), %rcx
	call	__gcov_ior_profiler
	movq	%rbx, %r8
	movq	%r14, %rcx
	movq	%r13, %rdx
	call	memcpy
	movq	56(%rsp), %rbx
	movq	(%r12), %r14
	jmp	.L981
	.p2align 4,,10
	.p2align 3
.L993:
	addq	$1, __gcov0._ZNSt7__cxx1112basic_stringIcSt11char_traitsIcESaIcEE12_M_constructIPcEEvT_S7_St20forward_iterator_tag.lto_priv.0(%rip)
	testq	%rbx, %rbx
	jne	.L996
	movq	$0, 56(%rsp)
	jmp	.L978
	.p2align 4,,10
	.p2align 3
.L992:
	movq	.refptr.__gcov_time_profiler_counter(%rip), %rax
	movq	.refptr.__gcov_time_profiler_counter(%rip), %rdx
	movq	(%rax), %rax
	movq	%rax, 40(%rsp)
	addq	$1, %rax
	movq	%rax, (%rdi)
	movq	%rax, (%rdx)
	jmp	.L975
	.p2align 4,,10
	.p2align 3
.L991:
	leaq	_ZNSt7__cxx1112basic_stringIcSt11char_traitsIcESaIcEE12_M_constructIPcEEvT_S7_St20forward_iterator_tag(%rip), %rdx
	movl	$1823456052, %ecx
	call	__gcov_indirect_call_profiler_v4
	jmp	.L974
	.p2align 4,,10
	.p2align 3
.L973:
	addq	$1, 16+__gcov0._ZNSt20__uninitialized_copyILb0EE13__uninit_copyIN9__gnu_cxx17__normal_iteratorIPKNSt7__cxx1112basic_stringIcSt11char_traitsIcESaIcEEESt6vectorIS9_SaIS9_EEEEPS9_EET0_T_SI_SH_(%rip)
	movq	%r12, %rax
	addq	$72, %rsp
	popq	%rbx
	popq	%rsi
	popq	%rdi
	popq	%rbp
	popq	%r12
	popq	%r13
	popq	%r14
	popq	%r15
	ret
	.p2align 4,,10
	.p2align 3
.L989:
	leaq	_ZNSt20__uninitialized_copyILb0EE13__uninit_copyIN9__gnu_cxx17__normal_iteratorIPKNSt7__cxx1112basic_stringIcSt11char_traitsIcESaIcEEESt6vectorIS9_SaIS9_EEEEPS9_EET0_T_SI_SH_(%rip), %rdx
	movl	$119295020, %ecx
	call	__gcov_indirect_call_profiler_v4
	jmp	.L971
	.p2align 4,,10
	.p2align 3
.L990:
	movq	.refptr.__gcov_time_profiler_counter(%rip), %rdx
	movq	(%rdx), %rax
	addq	$1, %rax
	movq	%rax, __gcov7._ZNSt20__uninitialized_copyILb0EE13__uninit_copyIN9__gnu_cxx17__normal_iteratorIPKNSt7__cxx1112basic_stringIcSt11char_traitsIcESaIcEEESt6vectorIS9_SaIS9_EEEEPS9_EET0_T_SI_SH_(%rip)
	movq	%rax, (%rdx)
	jmp	.L972
.L996:
	leaq	.LC2(%rip), %rcx
	addq	$1, 8+__gcov0._ZNSt7__cxx1112basic_stringIcSt11char_traitsIcESaIcEE12_M_constructIPcEEvT_S7_St20forward_iterator_tag.lto_priv.0(%rip)
	call	_ZSt19__throw_logic_errorPKc
	nop
	.seh_endproc
	.p2align 4
	.globl	__tcf_1.lto_priv.0
	.def	__tcf_1.lto_priv.0;	.scl	2;	.type	32;	.endef
	.seh_proc	__tcf_1.lto_priv.0
__tcf_1.lto_priv.0:
	subq	$40, %rsp
	.seh_stackalloc	40
	.seh_endprologue
	movq	.refptr.__gcov_indirect_call(%rip), %rax
	cmpq	$0, (%rax)
	je	.L998
	leaq	__tcf_1.lto_priv.0(%rip), %rdx
	movl	$260174198, %ecx
	call	__gcov_indirect_call_profiler_v4
.L998:
	addq	$1, __gcov0.__tcf_1.lto_priv.0(%rip)
	cmpq	$0, __gcov7.__tcf_1.lto_priv.0(%rip)
	jne	.L999
	movq	.refptr.__gcov_time_profiler_counter(%rip), %rdx
	movq	(%rdx), %rax
	addq	$1, %rax
	movq	%rax, __gcov7.__tcf_1.lto_priv.0(%rip)
	movq	%rax, (%rdx)
.L999:
	leaq	_ZStL8__ioinit.lto_priv.0(%rip), %rcx
	call	_ZNSt8ios_base4InitD1Ev
	addq	$1, 8+__gcov0.__tcf_1.lto_priv.0(%rip)
	addq	$40, %rsp
	ret
	.seh_endproc
	.p2align 4
	.globl	__tcf_1.lto_priv.1
	.def	__tcf_1.lto_priv.1;	.scl	2;	.type	32;	.endef
	.seh_proc	__tcf_1.lto_priv.1
__tcf_1.lto_priv.1:
	subq	$40, %rsp
	.seh_stackalloc	40
	.seh_endprologue
	movq	.refptr.__gcov_indirect_call(%rip), %rax
	cmpq	$0, (%rax)
	je	.L1001
	leaq	__tcf_1.lto_priv.1(%rip), %rdx
	movl	$1419372631, %ecx
	call	__gcov_indirect_call_profiler_v4
.L1001:
	addq	$1, __gcov0.__tcf_1.lto_priv.1(%rip)
	cmpq	$0, __gcov7.__tcf_1.lto_priv.1(%rip)
	jne	.L1002
	movq	.refptr.__gcov_time_profiler_counter(%rip), %rdx
	movq	(%rdx), %rax
	addq	$1, %rax
	movq	%rax, __gcov7.__tcf_1.lto_priv.1(%rip)
	movq	%rax, (%rdx)
.L1002:
	leaq	_ZStL8__ioinit.lto_priv.1(%rip), %rcx
	call	_ZNSt8ios_base4InitD1Ev
	addq	$1, 8+__gcov0.__tcf_1.lto_priv.1(%rip)
	addq	$40, %rsp
	ret
	.seh_endproc
	.section .rdata,"dr"
.LC24:
	.ascii "bitset::set\0"
	.align 8
.LC25:
	.ascii "%s: __position (which is %zu) >= _Nb (which is %zu)\0"
	.text
	.align 2
	.p2align 4
	.def	_ZNSt6bitsetILy196608EE3setEyb;	.scl	3;	.type	32;	.endef
	.seh_proc	_ZNSt6bitsetILy196608EE3setEyb
_ZNSt6bitsetILy196608EE3setEyb:
	pushq	%r12
	.seh_pushreg	%r12
	pushq	%rsi
	.seh_pushreg	%rsi
	pushq	%rbx
	.seh_pushreg	%rbx
	subq	$32, %rsp
	.seh_stackalloc	32
	.seh_endprologue
	movq	.refptr.__gcov_indirect_call(%rip), %rax
	cmpq	$0, (%rax)
	movq	%rcx, %r12
	movq	%rdx, %rbx
	movl	%r8d, %esi
	je	.L1004
	leaq	_ZNSt6bitsetILy196608EE3setEyb(%rip), %rdx
	movl	$954937316, %ecx
	call	__gcov_indirect_call_profiler_v4
.L1004:
	cmpq	$0, __gcov7._ZNSt6bitsetILy196608EE3setEyb(%rip)
	jne	.L1005
	movq	.refptr.__gcov_time_profiler_counter(%rip), %rdx
	movq	(%rdx), %rax
	addq	$1, %rax
	movq	%rax, __gcov7._ZNSt6bitsetILy196608EE3setEyb(%rip)
	movq	%rax, (%rdx)
.L1005:
	cmpq	$196607, %rbx
	ja	.L1009
	movq	%rbx, %rcx
	movl	$1, %eax
	shrq	$5, %rbx
	andl	$31, %ecx
	movl	(%r12,%rbx,4), %edx
	sall	%cl, %eax
	testb	%sil, %sil
	jne	.L1010
	addq	$1, 16+__gcov0._ZNSt6bitsetILy196608EE3setEyb(%rip)
	notl	%eax
	andl	%edx, %eax
	movl	%eax, (%r12,%rbx,4)
	movq	%r12, %rax
	addq	$32, %rsp
	popq	%rbx
	popq	%rsi
	popq	%r12
	ret
	.p2align 4,,10
	.p2align 3
.L1010:
	addq	$1, 8+__gcov0._ZNSt6bitsetILy196608EE3setEyb(%rip)
	orl	%edx, %eax
	movl	%eax, (%r12,%rbx,4)
	movq	%r12, %rax
	addq	$32, %rsp
	popq	%rbx
	popq	%rsi
	popq	%r12
	ret
.L1009:
	movl	$196608, %r9d
	movq	%rbx, %r8
	leaq	.LC24(%rip), %rdx
	addq	$1, __gcov0._ZNSt6bitsetILy196608EE3setEyb(%rip)
	leaq	.LC25(%rip), %rcx
	call	_ZSt24__throw_out_of_range_fmtPKcz
	nop
	.seh_endproc
	.align 2
	.p2align 4
	.def	_ZNK8Polyfish7EndgameILNS_11EndgameCodeE4ENS_5ValueEEclERKNS_8PositionE;	.scl	3;	.type	32;	.endef
	.seh_proc	_ZNK8Polyfish7EndgameILNS_11EndgameCodeE4ENS_5ValueEEclERKNS_8PositionE
_ZNK8Polyfish7EndgameILNS_11EndgameCodeE4ENS_5ValueEEclERKNS_8PositionE:
	pushq	%rsi
	.seh_pushreg	%rsi
	pushq	%rbx
	.seh_pushreg	%rbx
	subq	$40, %rsp
	.seh_stackalloc	40
	.seh_endprologue
	movq	.refptr.__gcov_indirect_call(%rip), %rax
	cmpq	$0, (%rax)
	movq	%rcx, %rsi
	movq	%rdx, %rbx
	je	.L1012
	leaq	_ZNK8Polyfish7EndgameILNS_11EndgameCodeE4ENS_5ValueEEclERKNS_8PositionE(%rip), %rdx
	movl	$462232830, %ecx
	call	__gcov_indirect_call_profiler_v4
.L1012:
	cmpq	$0, __gcov7._ZNK8Polyfish7EndgameILNS_11EndgameCodeE4ENS_5ValueEEclERKNS_8PositionE.lto_priv.0(%rip)
	jne	.L1013
	movq	.refptr.__gcov_time_profiler_counter(%rip), %rdx
	movq	(%rdx), %rax
	addq	$1, %rax
	movq	%rax, __gcov7._ZNK8Polyfish7EndgameILNS_11EndgameCodeE4ENS_5ValueEEclERKNS_8PositionE.lto_priv.0(%rip)
	movq	%rax, (%rdx)
.L1013:
	movslq	8(%rsi), %rax
	xorl	%r9d, %r9d
	movq	320(%rbx,%rax,8), %rdx
	movq	%rax, %r8
	movq	304(%rbx), %rax
	movq	%rdx, %rcx
	andq	280(%rbx), %rdx
	andq	%rax, %rcx
	rep bsfq	%rdx, %rdx
	rep bsfq	%rcx, %r9
	movslq	12(%rsi), %rcx
	andq	320(%rbx,%rcx,8), %rax
	movl	%edx, %ecx
	sarl	$3, %ecx
	rep bsfq	%rax, %rax
	addl	%ecx, %edx
	movl	%eax, %ecx
	andl	$1, %edx
	je	.L1014
	addq	$1, __gcov0._ZNK8Polyfish7EndgameILNS_11EndgameCodeE4ENS_5ValueEEclERKNS_8PositionE.lto_priv.0(%rip)
	xorl	$7, %ecx
.L1014:
	movl	%ecx, %r10d
	movl	$7, %edx
	andl	$7, %ecx
	cltq
	sarl	$3, %r10d
	subl	%r10d, %edx
	subl	%ecx, %edx
	movl	%edx, %ecx
	negl	%ecx
	cmovns	%ecx, %edx
	movslq	%r9d, %rcx
	leaq	_ZN8Polyfish14SquareDistanceE(%rip), %r9
	salq	$6, %rcx
	addq	%r9, %rcx
	imull	$420, %edx, %edx
	movzbl	(%rcx,%rax), %eax
	imull	$-20, %eax, %eax
	leal	13660(%rdx,%rax), %eax
	cmpl	868(%rbx), %r8d
	je	.L1019
	addq	$1, 8+__gcov0._ZNK8Polyfish7EndgameILNS_11EndgameCodeE4ENS_5ValueEEclERKNS_8PositionE.lto_priv.0(%rip)
	negl	%eax
	addq	$40, %rsp
	popq	%rbx
	popq	%rsi
	ret
	.p2align 4,,10
	.p2align 3
.L1019:
	addq	$1, 16+__gcov0._ZNK8Polyfish7EndgameILNS_11EndgameCodeE4ENS_5ValueEEclERKNS_8PositionE.lto_priv.0(%rip)
	addq	$40, %rsp
	popq	%rbx
	popq	%rsi
	ret
	.seh_endproc
	.align 2
	.p2align 4
	.def	_ZNK8Polyfish7EndgameILNS_11EndgameCodeE5ENS_5ValueEEclERKNS_8PositionE;	.scl	3;	.type	32;	.endef
	.seh_proc	_ZNK8Polyfish7EndgameILNS_11EndgameCodeE5ENS_5ValueEEclERKNS_8PositionE
_ZNK8Polyfish7EndgameILNS_11EndgameCodeE5ENS_5ValueEEclERKNS_8PositionE:
	pushq	%r14
	.seh_pushreg	%r14
	pushq	%r13
	.seh_pushreg	%r13
	pushq	%r12
	.seh_pushreg	%r12
	pushq	%rbp
	.seh_pushreg	%rbp
	pushq	%rdi
	.seh_pushreg	%rdi
	pushq	%rsi
	.seh_pushreg	%rsi
	pushq	%rbx
	.seh_pushreg	%rbx
	subq	$32, %rsp
	.seh_stackalloc	32
	.seh_endprologue
	movq	.refptr.__gcov_indirect_call(%rip), %r12
	cmpq	$0, (%r12)
	movq	%rcx, %rbp
	movq	%rdx, %rdi
	je	.L1021
	leaq	_ZNK8Polyfish7EndgameILNS_11EndgameCodeE5ENS_5ValueEEclERKNS_8PositionE(%rip), %rdx
	movl	$157536169, %ecx
	call	__gcov_indirect_call_profiler_v4
.L1021:
	addq	$1, __gcov0._ZNK8Polyfish7EndgameILNS_11EndgameCodeE5ENS_5ValueEEclERKNS_8PositionE.lto_priv.0(%rip)
	cmpq	$0, __gcov7._ZNK8Polyfish7EndgameILNS_11EndgameCodeE5ENS_5ValueEEclERKNS_8PositionE.lto_priv.0(%rip)
	je	.L1039
.L1022:
	movslq	8(%rbp), %rax
	movq	304(%rdi), %rdx
	movq	%rax, %r8
	movq	320(%rdi,%rax,8), %rax
	movq	%rax, %rcx
	andq	264(%rdi), %rax
	rep bsfq	%rax, %rax
	andq	%rdx, %rcx
	rep bsfq	%rcx, %rcx
	movl	%eax, %r9d
	movl	%eax, %r13d
	movl	%ecx, %r14d
	andl	$4, %r9d
	je	.L1023
	addq	$1, 8+__gcov0._ZNK8Polyfish7EndgameILNS_11EndgameCodeE5ENS_5ValueEEclERKNS_8PositionE.lto_priv.0(%rip)
	xorl	$7, %r14d
	testl	%r8d, %r8d
	je	.L1025
	movl	%ecx, %r14d
	movslq	12(%rbp), %rcx
	addq	$1, 16+__gcov0._ZNK8Polyfish7EndgameILNS_11EndgameCodeE5ENS_5ValueEEclERKNS_8PositionE.lto_priv.0(%rip)
	xorl	%esi, %esi
	addq	$1, 24+__gcov0._ZNK8Polyfish7EndgameILNS_11EndgameCodeE5ENS_5ValueEEclERKNS_8PositionE.lto_priv.0(%rip)
	xorl	$63, %r14d
	xorl	$63, %r13d
	addq	$1, 32+__gcov0._ZNK8Polyfish7EndgameILNS_11EndgameCodeE5ENS_5ValueEEclERKNS_8PositionE.lto_priv.0(%rip)
	andq	320(%rdi,%rcx,8), %rdx
	addq	$1, 40+__gcov0._ZNK8Polyfish7EndgameILNS_11EndgameCodeE5ENS_5ValueEEclERKNS_8PositionE.lto_priv.0(%rip)
	rep bsfq	%rdx, %rsi
	xorl	$7, %esi
.L1035:
	addq	$1, 48+__gcov0._ZNK8Polyfish7EndgameILNS_11EndgameCodeE5ENS_5ValueEEclERKNS_8PositionE.lto_priv.0(%rip)
	xorl	$56, %esi
.L1033:
	cmpl	%r8d, 868(%rdi)
	setne	%bl
	cmpq	$0, (%r12)
	jne	.L1040
.L1028:
	addq	$1, __gcov0._ZN8Polyfish8Bitbases5probeENS_6SquareES1_S1_NS_5ColorE(%rip)
	cmpq	$0, __gcov7._ZN8Polyfish8Bitbases5probeENS_6SquareES1_S1_NS_5ColorE(%rip)
	je	.L1041
.L1029:
	movzbl	%bl, %ecx
	movl	%r13d, %r8d
	sall	$6, %esi
	movl	$6, %eax
	sall	$12, %ecx
	sarl	$3, %r8d
	orl	%r14d, %ecx
	sall	$13, %r13d
	subl	%r8d, %eax
	orl	%esi, %ecx
	movzwl	%r13w, %r13d
	sall	$15, %eax
	orl	%r13d, %ecx
	orl	%eax, %ecx
	movl	$1, %eax
	movl	%ecx, %edx
	sall	%cl, %eax
	leaq	_ZN8Polyfish12_GLOBAL__N_110KPKBitbaseE(%rip), %rcx
	shrq	$5, %rdx
	andl	(%rcx,%rdx,4), %eax
	je	.L1042
	movl	868(%rdi), %eax
	cmpl	%eax, 8(%rbp)
	je	.L1043
	addq	$1, 64+__gcov0._ZNK8Polyfish7EndgameILNS_11EndgameCodeE5ENS_5ValueEEclERKNS_8PositionE.lto_priv.0(%rip)
	movl	$-10208, %eax
	subl	%r8d, %eax
	addq	$32, %rsp
	popq	%rbx
	popq	%rsi
	popq	%rdi
	popq	%rbp
	popq	%r12
	popq	%r13
	popq	%r14
	ret
	.p2align 4,,10
	.p2align 3
.L1023:
	testl	%r8d, %r8d
	jne	.L1044
.L1025:
	movslq	12(%rbp), %rcx
	andq	320(%rdi,%rcx,8), %rdx
	rep bsfq	%rdx, %rdx
	movl	%edx, %esi
	testl	%r9d, %r9d
	je	.L1033
	movl	%eax, %r13d
	movl	%edx, %esi
	addq	$1, 24+__gcov0._ZNK8Polyfish7EndgameILNS_11EndgameCodeE5ENS_5ValueEEclERKNS_8PositionE.lto_priv.0(%rip)
	addq	$1, 40+__gcov0._ZNK8Polyfish7EndgameILNS_11EndgameCodeE5ENS_5ValueEEclERKNS_8PositionE.lto_priv.0(%rip)
	xorl	$7, %r13d
	xorl	$7, %esi
	jmp	.L1033
	.p2align 4,,10
	.p2align 3
.L1044:
	movslq	12(%rbp), %rcx
	xorl	%esi, %esi
	xorl	$56, %r14d
	xorl	$56, %r13d
	addq	$1, 16+__gcov0._ZNK8Polyfish7EndgameILNS_11EndgameCodeE5ENS_5ValueEEclERKNS_8PositionE.lto_priv.0(%rip)
	andq	320(%rdi,%rcx,8), %rdx
	addq	$1, 32+__gcov0._ZNK8Polyfish7EndgameILNS_11EndgameCodeE5ENS_5ValueEEclERKNS_8PositionE.lto_priv.0(%rip)
	rep bsfq	%rdx, %rsi
	jmp	.L1035
	.p2align 4,,10
	.p2align 3
.L1043:
	addq	$1, 72+__gcov0._ZNK8Polyfish7EndgameILNS_11EndgameCodeE5ENS_5ValueEEclERKNS_8PositionE.lto_priv.0(%rip)
	leal	10208(%r8), %eax
	addq	$32, %rsp
	popq	%rbx
	popq	%rsi
	popq	%rdi
	popq	%rbp
	popq	%r12
	popq	%r13
	popq	%r14
	ret
	.p2align 4,,10
	.p2align 3
.L1042:
	addq	$1, 56+__gcov0._ZNK8Polyfish7EndgameILNS_11EndgameCodeE5ENS_5ValueEEclERKNS_8PositionE.lto_priv.0(%rip)
	addq	$32, %rsp
	popq	%rbx
	popq	%rsi
	popq	%rdi
	popq	%rbp
	popq	%r12
	popq	%r13
	popq	%r14
	ret
	.p2align 4,,10
	.p2align 3
.L1041:
	movq	.refptr.__gcov_time_profiler_counter(%rip), %rdx
	movq	(%rdx), %rax
	addq	$1, %rax
	movq	%rax, __gcov7._ZN8Polyfish8Bitbases5probeENS_6SquareES1_S1_NS_5ColorE(%rip)
	movq	%rax, (%rdx)
	jmp	.L1029
	.p2align 4,,10
	.p2align 3
.L1039:
	movq	.refptr.__gcov_time_profiler_counter(%rip), %rdx
	movq	(%rdx), %rax
	addq	$1, %rax
	movq	%rax, __gcov7._ZNK8Polyfish7EndgameILNS_11EndgameCodeE5ENS_5ValueEEclERKNS_8PositionE.lto_priv.0(%rip)
	movq	%rax, (%rdx)
	jmp	.L1022
	.p2align 4,,10
	.p2align 3
.L1040:
	leaq	_ZN8Polyfish8Bitbases5probeENS_6SquareES1_S1_NS_5ColorE(%rip), %rdx
	movl	$629721908, %ecx
	call	__gcov_indirect_call_profiler_v4
	jmp	.L1028
	.seh_endproc
	.align 2
	.p2align 4
	.def	_ZNK8Polyfish7EndgameILNS_11EndgameCodeE6ENS_5ValueEEclERKNS_8PositionE;	.scl	3;	.type	32;	.endef
	.seh_proc	_ZNK8Polyfish7EndgameILNS_11EndgameCodeE6ENS_5ValueEEclERKNS_8PositionE
_ZNK8Polyfish7EndgameILNS_11EndgameCodeE6ENS_5ValueEEclERKNS_8PositionE:
	pushq	%r14
	.seh_pushreg	%r14
	pushq	%r13
	.seh_pushreg	%r13
	pushq	%r12
	.seh_pushreg	%r12
	pushq	%rbp
	.seh_pushreg	%rbp
	pushq	%rdi
	.seh_pushreg	%rdi
	pushq	%rsi
	.seh_pushreg	%rsi
	pushq	%rbx
	.seh_pushreg	%rbx
	subq	$32, %rsp
	.seh_stackalloc	32
	.seh_endprologue
	movq	.refptr.__gcov_indirect_call(%rip), %rax
	cmpq	$0, (%rax)
	movq	%rcx, %rsi
	movq	%rdx, %rbx
	je	.L1046
	leaq	_ZNK8Polyfish7EndgameILNS_11EndgameCodeE6ENS_5ValueEEclERKNS_8PositionE(%rip), %rdx
	movl	$1045477968, %ecx
	call	__gcov_indirect_call_profiler_v4
.L1046:
	cmpq	$0, __gcov7._ZNK8Polyfish7EndgameILNS_11EndgameCodeE6ENS_5ValueEEclERKNS_8PositionE.lto_priv.0(%rip)
	jne	.L1047
	movq	.refptr.__gcov_time_profiler_counter(%rip), %rdx
	movq	(%rdx), %rax
	addq	$1, %rax
	movq	%rax, __gcov7._ZNK8Polyfish7EndgameILNS_11EndgameCodeE6ENS_5ValueEEclERKNS_8PositionE.lto_priv.0(%rip)
	movq	%rax, (%rdx)
.L1047:
	movslq	8(%rsi), %rax
	movslq	12(%rsi), %rdx
	movq	304(%rbx), %r13
	movq	264(%rbx), %r9
	movq	320(%rbx,%rax,8), %rbp
	movq	%rax, %r10
	movq	%rdx, %rsi
	movq	320(%rbx,%rdx,8), %rdx
	movq	288(%rbx), %rdi
	movq	%rbp, %rax
	andq	%rdx, %r9
	andq	%r13, %rax
	rep bsfq	%r9, %r9
	rep bsfq	%rax, %rax
	movl	%eax, %r12d
	sarl	$3, %r12d
	testl	%r10d, %r10d
	jne	.L1048
	addq	$1, __gcov0._ZNK8Polyfish7EndgameILNS_11EndgameCodeE6ENS_5ValueEEclERKNS_8PositionE.lto_priv.0(%rip)
	leal	0(,%r12,8), %ecx
	movq	$-256, %r11
	salq	%cl, %r11
.L1049:
	movl	%eax, %ecx
	leaq	_ZN8Polyfish8SquareBBE(%rip), %r14
	movabsq	$72340172838076673, %r8
	movl	868(%rbx), %ebx
	andl	$7, %ecx
	salq	%cl, %r8
	movslq	%r9d, %rcx
	andq	(%r14,%rcx,8), %r8
	testq	%r11, %r8
	je	.L1050
	cltq
	leaq	_ZN8Polyfish14SquareDistanceE(%rip), %rdx
	salq	$6, %rax
	addq	%rdx, %rax
	movzbl	(%rax,%rcx), %edx
	movl	$1380, %eax
	subl	%edx, %eax
.L1051:
	cmpl	%ebx, %r10d
	je	.L1045
	addq	$1, 96+__gcov0._ZNK8Polyfish7EndgameILNS_11EndgameCodeE6ENS_5ValueEEclERKNS_8PositionE.lto_priv.0(%rip)
	negl	%eax
.L1045:
	addq	$32, %rsp
	popq	%rbx
	popq	%rsi
	popq	%rdi
	popq	%rbp
	popq	%r12
	popq	%r13
	popq	%r14
	ret
	.p2align 4,,10
	.p2align 3
.L1050:
	andq	%r13, %rdx
	leaq	_ZN8Polyfish14SquareDistanceE(%rip), %r8
	rep bsfq	%rdx, %rdx
	movslq	%edx, %r11
	movq	%r11, %r13
	salq	$6, %r13
	addq	%r8, %r13
	movzbl	0(%r13,%rcx), %r13d
	cmpl	%ebx, %esi
	je	.L1067
	addq	$1, 24+__gcov0._ZNK8Polyfish7EndgameILNS_11EndgameCodeE6ENS_5ValueEEclERKNS_8PositionE.lto_priv.0(%rip)
	movl	$3, %r14d
.L1053:
	cmpl	%r13d, %r14d
	jg	.L1054
	andq	%rbp, %rdi
	movq	%r11, %rbp
	addq	$1, 32+__gcov0._ZNK8Polyfish7EndgameILNS_11EndgameCodeE6ENS_5ValueEEclERKNS_8PositionE.lto_priv.0(%rip)
	rep bsfq	%rdi, %rdi
	salq	$6, %rbp
	movslq	%edi, %rdi
	addq	%r8, %rbp
	cmpb	$2, 0(%rbp,%rdi)
	jbe	.L1054
	cltq
	addq	$1, 40+__gcov0._ZNK8Polyfish7EndgameILNS_11EndgameCodeE6ENS_5ValueEEclERKNS_8PositionE.lto_priv.0(%rip)
	salq	$6, %rax
	addq	%r8, %rax
	movzbl	(%rax,%rcx), %edx
	movl	$1380, %eax
	subl	%edx, %eax
	jmp	.L1051
	.p2align 4,,10
	.p2align 3
.L1054:
	leal	0(,%r10,8), %edi
	sarl	$3, %edx
	subl	%r10d, %edi
	xorl	%edi, %edx
	cmpl	$2, %edx
	jle	.L1055
	cltq
.L1058:
	movl	$8, %edi
	testl	%esi, %esi
	jne	.L1068
.L1056:
	salq	$6, %rax
	addl	%r9d, %edi
	andl	$7, %r9d
	salq	$6, %rcx
	addq	%r8, %rax
	movslq	%edi, %rdi
	movzbl	(%rax,%rdi), %edx
	movq	%r11, %rax
	salq	$6, %rax
	addq	%r8, %rax
	addq	%rcx, %r8
	movzbl	(%rax,%rdi), %eax
	subl	%eax, %edx
	leal	0(,%rsi,8), %eax
	subl	%esi, %eax
	sall	$3, %eax
	xorl	$56, %eax
	addl	%eax, %r9d
	movslq	%r9d, %r9
	movzbl	(%r8,%r9), %eax
	subl	%eax, %edx
	movl	$200, %eax
	sall	$3, %edx
	subl	%edx, %eax
	jmp	.L1051
	.p2align 4,,10
	.p2align 3
.L1048:
	movl	%r12d, %ecx
	addq	$1, 8+__gcov0._ZNK8Polyfish7EndgameILNS_11EndgameCodeE6ENS_5ValueEEclERKNS_8PositionE.lto_priv.0(%rip)
	movabsq	$72057594037927935, %r11
	xorl	$7, %ecx
	sall	$3, %ecx
	shrq	%cl, %r11
	jmp	.L1049
	.p2align 4,,10
	.p2align 3
.L1055:
	addq	$1, 48+__gcov0._ZNK8Polyfish7EndgameILNS_11EndgameCodeE6ENS_5ValueEEclERKNS_8PositionE.lto_priv.0(%rip)
	cltq
	cmpl	$1, %r13d
	jne	.L1058
	xorl	%r12d, %edi
	addq	$1, 56+__gcov0._ZNK8Polyfish7EndgameILNS_11EndgameCodeE6ENS_5ValueEEclERKNS_8PositionE.lto_priv.0(%rip)
	cmpl	$2, %edi
	jle	.L1058
	movq	%rax, %rdx
	salq	$6, %rdx
	addq	%r8, %rdx
	movzbl	(%rdx,%rcx), %edx
	cmpl	%ebx, %r10d
	je	.L1069
	addq	$1, 72+__gcov0._ZNK8Polyfish7EndgameILNS_11EndgameCodeE6ENS_5ValueEEclERKNS_8PositionE.lto_priv.0(%rip)
	movl	$2, %edi
.L1060:
	cmpl	%edx, %edi
	jge	.L1058
	sall	$3, %edx
	movl	$80, %eax
	addq	$1, 80+__gcov0._ZNK8Polyfish7EndgameILNS_11EndgameCodeE6ENS_5ValueEEclERKNS_8PositionE.lto_priv.0(%rip)
	subl	%edx, %eax
	jmp	.L1051
	.p2align 4,,10
	.p2align 3
.L1067:
	addq	$1, 16+__gcov0._ZNK8Polyfish7EndgameILNS_11EndgameCodeE6ENS_5ValueEEclERKNS_8PositionE.lto_priv.0(%rip)
	movl	$4, %r14d
	jmp	.L1053
	.p2align 4,,10
	.p2align 3
.L1068:
	addq	$1, 88+__gcov0._ZNK8Polyfish7EndgameILNS_11EndgameCodeE6ENS_5ValueEEclERKNS_8PositionE.lto_priv.0(%rip)
	movl	$-8, %edi
	jmp	.L1056
	.p2align 4,,10
	.p2align 3
.L1069:
	addq	$1, 64+__gcov0._ZNK8Polyfish7EndgameILNS_11EndgameCodeE6ENS_5ValueEEclERKNS_8PositionE.lto_priv.0(%rip)
	movl	$3, %edi
	jmp	.L1060
	.seh_endproc
	.align 2
	.p2align 4
	.def	_ZNK8Polyfish7EndgameILNS_11EndgameCodeE7ENS_5ValueEEclERKNS_8PositionE;	.scl	3;	.type	32;	.endef
	.seh_proc	_ZNK8Polyfish7EndgameILNS_11EndgameCodeE7ENS_5ValueEEclERKNS_8PositionE
_ZNK8Polyfish7EndgameILNS_11EndgameCodeE7ENS_5ValueEEclERKNS_8PositionE:
	pushq	%rsi
	.seh_pushreg	%rsi
	pushq	%rbx
	.seh_pushreg	%rbx
	subq	$40, %rsp
	.seh_stackalloc	40
	.seh_endprologue
	movq	.refptr.__gcov_indirect_call(%rip), %rax
	cmpq	$0, (%rax)
	movq	%rcx, %rsi
	movq	%rdx, %rbx
	je	.L1071
	leaq	_ZNK8Polyfish7EndgameILNS_11EndgameCodeE7ENS_5ValueEEclERKNS_8PositionE(%rip), %rdx
	movl	$750676231, %ecx
	call	__gcov_indirect_call_profiler_v4
.L1071:
	cmpq	$0, __gcov7._ZNK8Polyfish7EndgameILNS_11EndgameCodeE7ENS_5ValueEEclERKNS_8PositionE.lto_priv.0(%rip)
	je	.L1078
.L1072:
	movslq	12(%rsi), %rax
	addq	$1, __gcov0._ZN8Polyfish12_GLOBAL__N_112push_to_edgeENS_6SquareE.lto_priv.0(%rip)
	movq	320(%rbx,%rax,8), %rax
	andq	304(%rbx), %rax
	rep bsfq	%rax, %rax
	cmpq	$0, __gcov7._ZN8Polyfish12_GLOBAL__N_112push_to_edgeENS_6SquareE.lto_priv.0(%rip)
	je	.L1079
.L1073:
	movl	%eax, %edx
	movl	$7, %ecx
	sarl	$3, %edx
	subl	%edx, %ecx
	cmpl	%ecx, %edx
	jle	.L1074
	addq	$1, 8+__gcov0._ZN8Polyfish12_GLOBAL__N_112push_to_edgeENS_6SquareE.lto_priv.0(%rip)
	movl	%ecx, %edx
.L1074:
	andl	$7, %eax
	movl	$7, %ecx
	subl	%eax, %ecx
	cmpl	%ecx, %eax
	jle	.L1075
	addq	$1, 16+__gcov0._ZN8Polyfish12_GLOBAL__N_112push_to_edgeENS_6SquareE.lto_priv.0(%rip)
	movl	%ecx, %eax
.L1075:
	imull	%eax, %eax
	imull	%edx, %edx
	leal	0(,%rax,8), %ecx
	subl	%eax, %ecx
	movl	%ecx, %eax
	leal	0(,%rdx,8), %ecx
	subl	%edx, %ecx
	sarl	%eax
	sarl	%ecx
	movl	%ecx, %edx
	addl	%eax, %edx
	movl	868(%rbx), %eax
	cmpl	%eax, 8(%rsi)
	je	.L1080
	addq	$1, __gcov0._ZNK8Polyfish7EndgameILNS_11EndgameCodeE7ENS_5ValueEEclERKNS_8PositionE.lto_priv.0(%rip)
	leal	-90(%rdx), %eax
	addq	$40, %rsp
	popq	%rbx
	popq	%rsi
	ret
	.p2align 4,,10
	.p2align 3
.L1080:
	addq	$1, 8+__gcov0._ZNK8Polyfish7EndgameILNS_11EndgameCodeE7ENS_5ValueEEclERKNS_8PositionE.lto_priv.0(%rip)
	movl	$90, %eax
	subl	%edx, %eax
	addq	$40, %rsp
	popq	%rbx
	popq	%rsi
	ret
	.p2align 4,,10
	.p2align 3
.L1079:
	movq	.refptr.__gcov_time_profiler_counter(%rip), %rcx
	movq	(%rcx), %rdx
	addq	$1, %rdx
	movq	%rdx, __gcov7._ZN8Polyfish12_GLOBAL__N_112push_to_edgeENS_6SquareE.lto_priv.0(%rip)
	movq	%rdx, (%rcx)
	jmp	.L1073
	.p2align 4,,10
	.p2align 3
.L1078:
	movq	.refptr.__gcov_time_profiler_counter(%rip), %rdx
	movq	(%rdx), %rax
	addq	$1, %rax
	movq	%rax, __gcov7._ZNK8Polyfish7EndgameILNS_11EndgameCodeE7ENS_5ValueEEclERKNS_8PositionE.lto_priv.0(%rip)
	movq	%rax, (%rdx)
	jmp	.L1072
	.seh_endproc
	.align 2
	.p2align 4
	.def	_ZNK8Polyfish7EndgameILNS_11EndgameCodeE8ENS_5ValueEEclERKNS_8PositionE;	.scl	3;	.type	32;	.endef
	.seh_proc	_ZNK8Polyfish7EndgameILNS_11EndgameCodeE8ENS_5ValueEEclERKNS_8PositionE
_ZNK8Polyfish7EndgameILNS_11EndgameCodeE8ENS_5ValueEEclERKNS_8PositionE:
	pushq	%rsi
	.seh_pushreg	%rsi
	pushq	%rbx
	.seh_pushreg	%rbx
	subq	$40, %rsp
	.seh_stackalloc	40
	.seh_endprologue
	movq	.refptr.__gcov_indirect_call(%rip), %rax
	cmpq	$0, (%rax)
	movq	%rcx, %rsi
	movq	%rdx, %rbx
	je	.L1082
	leaq	_ZNK8Polyfish7EndgameILNS_11EndgameCodeE8ENS_5ValueEEclERKNS_8PositionE(%rip), %rdx
	movl	$1195428634, %ecx
	call	__gcov_indirect_call_profiler_v4
.L1082:
	cmpq	$0, __gcov7._ZNK8Polyfish7EndgameILNS_11EndgameCodeE8ENS_5ValueEEclERKNS_8PositionE.lto_priv.0(%rip)
	je	.L1089
.L1083:
	movslq	12(%rsi), %rax
	xorl	%r9d, %r9d
	addq	$1, __gcov0._ZN8Polyfish12_GLOBAL__N_112push_to_edgeENS_6SquareE.lto_priv.0(%rip)
	movq	320(%rbx,%rax,8), %rdx
	movq	304(%rbx), %rax
	andq	%rdx, %rax
	andq	272(%rbx), %rdx
	rep bsfq	%rax, %rax
	rep bsfq	%rdx, %r9
	cmpq	$0, __gcov7._ZN8Polyfish12_GLOBAL__N_112push_to_edgeENS_6SquareE.lto_priv.0(%rip)
	je	.L1090
.L1084:
	movl	%eax, %edx
	movl	$7, %ecx
	sarl	$3, %edx
	subl	%edx, %ecx
	cmpl	%ecx, %edx
	jle	.L1085
	addq	$1, 8+__gcov0._ZN8Polyfish12_GLOBAL__N_112push_to_edgeENS_6SquareE.lto_priv.0(%rip)
	movl	%ecx, %edx
.L1085:
	movl	%eax, %ecx
	movl	$7, %r8d
	andl	$7, %ecx
	subl	%ecx, %r8d
	cmpl	%r8d, %ecx
	jle	.L1086
	addq	$1, 16+__gcov0._ZN8Polyfish12_GLOBAL__N_112push_to_edgeENS_6SquareE.lto_priv.0(%rip)
	movl	%r8d, %ecx
.L1086:
	imull	%ecx, %ecx
	cltq
	movslq	%r9d, %r9
	movl	868(%rbx), %ebx
	imull	%edx, %edx
	salq	$6, %rax
	leal	0(,%rcx,8), %r8d
	subl	%ecx, %r8d
	movl	%r8d, %ecx
	leal	0(,%rdx,8), %r8d
	subl	%edx, %r8d
	sarl	%ecx
	movl	%r8d, %edx
	sarl	%edx
	addl	%ecx, %edx
	movl	$90, %ecx
	subl	%edx, %ecx
	leaq	_ZN8Polyfish14SquareDistanceE(%rip), %rdx
	addq	%rdx, %rax
	movzbl	(%rax,%r9), %eax
	imull	$20, %eax, %eax
	leal	-20(%rcx,%rax), %eax
	cmpl	%ebx, 8(%rsi)
	je	.L1091
	addq	$1, __gcov0._ZNK8Polyfish7EndgameILNS_11EndgameCodeE8ENS_5ValueEEclERKNS_8PositionE.lto_priv.0(%rip)
	negl	%eax
	addq	$40, %rsp
	popq	%rbx
	popq	%rsi
	ret
	.p2align 4,,10
	.p2align 3
.L1091:
	addq	$1, 8+__gcov0._ZNK8Polyfish7EndgameILNS_11EndgameCodeE8ENS_5ValueEEclERKNS_8PositionE.lto_priv.0(%rip)
	addq	$40, %rsp
	popq	%rbx
	popq	%rsi
	ret
	.p2align 4,,10
	.p2align 3
.L1090:
	movq	.refptr.__gcov_time_profiler_counter(%rip), %rcx
	movq	(%rcx), %rdx
	addq	$1, %rdx
	movq	%rdx, __gcov7._ZN8Polyfish12_GLOBAL__N_112push_to_edgeENS_6SquareE.lto_priv.0(%rip)
	movq	%rdx, (%rcx)
	jmp	.L1084
	.p2align 4,,10
	.p2align 3
.L1089:
	movq	.refptr.__gcov_time_profiler_counter(%rip), %rdx
	movq	(%rdx), %rax
	addq	$1, %rax
	movq	%rax, __gcov7._ZNK8Polyfish7EndgameILNS_11EndgameCodeE8ENS_5ValueEEclERKNS_8PositionE.lto_priv.0(%rip)
	movq	%rax, (%rdx)
	jmp	.L1083
	.seh_endproc
	.align 2
	.p2align 4
	.def	_ZNK8Polyfish7EndgameILNS_11EndgameCodeE9ENS_5ValueEEclERKNS_8PositionE;	.scl	3;	.type	32;	.endef
	.seh_proc	_ZNK8Polyfish7EndgameILNS_11EndgameCodeE9ENS_5ValueEEclERKNS_8PositionE
_ZNK8Polyfish7EndgameILNS_11EndgameCodeE9ENS_5ValueEEclERKNS_8PositionE:
	pushq	%rsi
	.seh_pushreg	%rsi
	pushq	%rbx
	.seh_pushreg	%rbx
	subq	$40, %rsp
	.seh_stackalloc	40
	.seh_endprologue
	movq	.refptr.__gcov_indirect_call(%rip), %rax
	cmpq	$0, (%rax)
	movq	%rcx, %rsi
	movq	%rdx, %rbx
	je	.L1093
	leaq	_ZNK8Polyfish7EndgameILNS_11EndgameCodeE9ENS_5ValueEEclERKNS_8PositionE(%rip), %rdx
	movl	$1437472845, %ecx
	call	__gcov_indirect_call_profiler_v4
.L1093:
	cmpq	$0, __gcov7._ZNK8Polyfish7EndgameILNS_11EndgameCodeE9ENS_5ValueEEclERKNS_8PositionE.lto_priv.0(%rip)
	jne	.L1094
	movq	.refptr.__gcov_time_profiler_counter(%rip), %rdx
	movq	(%rdx), %rax
	addq	$1, %rax
	movq	%rax, __gcov7._ZNK8Polyfish7EndgameILNS_11EndgameCodeE9ENS_5ValueEEclERKNS_8PositionE.lto_priv.0(%rip)
	movq	%rax, (%rdx)
.L1094:
	movslq	8(%rsi), %rax
	movq	304(%rbx), %rdx
	xorl	%r11d, %r11d
	leaq	_ZN8Polyfish14SquareDistanceE(%rip), %r10
	movq	320(%rbx,%rax,8), %rcx
	movq	%rax, %r8
	xorl	%eax, %eax
	andq	%rdx, %rcx
	rep bsfq	%rcx, %rax
	movslq	12(%rsi), %rcx
	cltq
	movq	%rcx, %r9
	movq	320(%rbx,%rcx,8), %rcx
	salq	$6, %rax
	addq	%r10, %rax
	andq	%rcx, %rdx
	andq	264(%rbx), %rcx
	rep bsfq	%rcx, %r11
	rep bsfq	%rdx, %rdx
	leal	0(,%r9,8), %ecx
	subl	%r9d, %ecx
	movslq	%edx, %rdx
	movl	%r11d, %r9d
	movzbl	(%rax,%rdx), %eax
	sarl	$3, %r9d
	xorl	%r9d, %ecx
	imull	$-20, %eax, %eax
	cmpl	$6, %ecx
	je	.L1102
.L1096:
	addl	$2614, %eax
.L1099:
	cmpl	868(%rbx), %r8d
	je	.L1103
	addq	$1, 24+__gcov0._ZNK8Polyfish7EndgameILNS_11EndgameCodeE9ENS_5ValueEEclERKNS_8PositionE.lto_priv.0(%rip)
	negl	%eax
	addq	$40, %rsp
	popq	%rbx
	popq	%rsi
	ret
	.p2align 4,,10
	.p2align 3
.L1102:
	salq	$6, %rdx
	movslq	%r11d, %rcx
	addq	$1, __gcov0._ZNK8Polyfish7EndgameILNS_11EndgameCodeE9ENS_5ValueEEclERKNS_8PositionE.lto_priv.0(%rip)
	addq	%r10, %rdx
	cmpb	$1, (%rdx,%rcx)
	jne	.L1096
	leaq	_ZN8Polyfish8SquareBBE(%rip), %r9
