	.file	"<artificial>"
	.text
	.section	.text.startup,"x"
	.p2align 4
	.globl	_GLOBAL__sub_I__ZN8Polyfish8Endgames4mapsE.lto_priv.0
	.def	_GLOBAL__sub_I__ZN8Polyfish8Endgames4mapsE.lto_priv.0;	.scl	2;	.type	32;	.endef
	.seh_proc	_GLOBAL__sub_I__ZN8Polyfish8Endgames4mapsE.lto_priv.0
_GLOBAL__sub_I__ZN8Polyfish8Endgames4mapsE.lto_priv.0:
	subq	$40, %rsp
	.seh_stackalloc	40
	.seh_endprologue
	movq	.refptr.__gcov_indirect_call(%rip), %rax
	cmpq	$0, (%rax)
	jne	.L6
.L2:
	addq	$1, __gcov0._GLOBAL__sub_I__ZN8Polyfish8Endgames4mapsE.lto_priv.0(%rip)
	cmpq	$0, __gcov7._GLOBAL__sub_I__ZN8Polyfish8Endgames4mapsE.lto_priv.0(%rip)
	je	.L7
.L3:
	addq	$1, __gcov0._Z41__static_initialization_and_destruction_0ii.lto_priv.9(%rip)
	cmpq	$0, __gcov7._Z41__static_initialization_and_destruction_0ii.lto_priv.9(%rip)
	je	.L8
.L4:
	leaq	_ZStL8__ioinit.lto_priv.21(%rip), %rcx
	addq	$1, 8+__gcov0._Z41__static_initialization_and_destruction_0ii.lto_priv.9(%rip)
	addq	$1, 16+__gcov0._Z41__static_initialization_and_destruction_0ii.lto_priv.9(%rip)
	call	_ZNSt8ios_base4InitC1Ev
	leaq	__tcf_1.lto_priv.18(%rip), %rcx
	addq	$1, 24+__gcov0._Z41__static_initialization_and_destruction_0ii.lto_priv.9(%rip)
	call	atexit
	movq	.refptr._ZN8Polyfish8Endgames4mapsE(%rip), %rax
	vmovss	.LC0(%rip), %xmm0
	leaq	__tcf_2.lto_priv.8(%rip), %rcx
	addq	$1, 32+__gcov0._Z41__static_initialization_and_destruction_0ii.lto_priv.9(%rip)
	leaq	48(%rax), %rdx
	movq	$0, 32(%rax)
	movq	%rdx, (%rax)
	leaq	104(%rax), %rdx
	movq	$0, 88(%rax)
	movq	%rdx, 56(%rax)
	movq	$0, 24(%rax)
	movq	$0, 48(%rax)
	movq	$1, 8(%rax)
	movq	$0, 16(%rax)
	movq	$0, 40(%rax)
	movq	$0, 80(%rax)
	movq	$0, 104(%rax)
	movq	$1, 64(%rax)
	movq	$0, 72(%rax)
	movq	$0, 96(%rax)
	vmovss	%xmm0, 32(%rax)
	vmovss	%xmm0, 88(%rax)
	call	atexit
	addq	$1, 40+__gcov0._Z41__static_initialization_and_destruction_0ii.lto_priv.9(%rip)
	addq	$1, 8+__gcov0._GLOBAL__sub_I__ZN8Polyfish8Endgames4mapsE.lto_priv.0(%rip)
	addq	$40, %rsp
	ret
.L6:
	leaq	_GLOBAL__sub_I__ZN8Polyfish8Endgames4mapsE.lto_priv.0(%rip), %rdx
	movl	$680028089, %ecx
	call	__gcov_indirect_call_profiler_v4
	jmp	.L2
.L7:
	movq	.refptr.__gcov_time_profiler_counter(%rip), %rdx
	movq	(%rdx), %rax
	addq	$1, %rax
	movq	%rax, __gcov7._GLOBAL__sub_I__ZN8Polyfish8Endgames4mapsE.lto_priv.0(%rip)
	movq	%rax, (%rdx)
	jmp	.L3
.L8:
	movq	.refptr.__gcov_time_profiler_counter(%rip), %rdx
	movq	(%rdx), %rax
	addq	$1, %rax
	movq	%rax, __gcov7._Z41__static_initialization_and_destruction_0ii.lto_priv.9(%rip)
	movq	%rax, (%rdx)
	jmp	.L4
	.seh_endproc
	.text
	.align 2
	.p2align 4
	.globl	_ZN8Polyfish7EndgameILNS_11EndgameCodeE20ENS_11ScaleFactorEED1Ev
	.def	_ZN8Polyfish7EndgameILNS_11EndgameCodeE20ENS_11ScaleFactorEED1Ev;	.scl	2;	.type	32;	.endef
	.seh_proc	_ZN8Polyfish7EndgameILNS_11EndgameCodeE20ENS_11ScaleFactorEED1Ev
_ZN8Polyfish7EndgameILNS_11EndgameCodeE20ENS_11ScaleFactorEED1Ev:
	subq	$40, %rsp
	.seh_stackalloc	40
	.seh_endprologue
	movq	.refptr.__gcov_indirect_call(%rip), %rax
	cmpq	$0, (%rax)
	je	.L10
	leaq	_ZN8Polyfish7EndgameILNS_11EndgameCodeE20ENS_11ScaleFactorEED1Ev(%rip), %rdx
	movl	$573835420, %ecx
	call	__gcov_indirect_call_profiler_v4
.L10:
	addq	$1, __gcov0._ZN8Polyfish7EndgameILNS_11EndgameCodeE20ENS_11ScaleFactorEED1Ev(%rip)
	cmpq	$0, __gcov7._ZN8Polyfish7EndgameILNS_11EndgameCodeE20ENS_11ScaleFactorEED1Ev(%rip)
	jne	.L12
	movq	.refptr.__gcov_time_profiler_counter(%rip), %rdx
	movq	(%rdx), %rax
	addq	$1, %rax
	movq	%rax, __gcov7._ZN8Polyfish7EndgameILNS_11EndgameCodeE20ENS_11ScaleFactorEED1Ev(%rip)
	movq	%rax, (%rdx)
.L12:
	addq	$40, %rsp
	ret
	.seh_endproc
	.align 2
	.p2align 4
	.globl	_ZN8Polyfish7EndgameILNS_11EndgameCodeE19ENS_11ScaleFactorEED1Ev
	.def	_ZN8Polyfish7EndgameILNS_11EndgameCodeE19ENS_11ScaleFactorEED1Ev;	.scl	2;	.type	32;	.endef
	.seh_proc	_ZN8Polyfish7EndgameILNS_11EndgameCodeE19ENS_11ScaleFactorEED1Ev
_ZN8Polyfish7EndgameILNS_11EndgameCodeE19ENS_11ScaleFactorEED1Ev:
	subq	$40, %rsp
	.seh_stackalloc	40
	.seh_endprologue
	movq	.refptr.__gcov_indirect_call(%rip), %rax
	cmpq	$0, (%rax)
	je	.L14
	leaq	_ZN8Polyfish7EndgameILNS_11EndgameCodeE19ENS_11ScaleFactorEED1Ev(%rip), %rdx
	movl	$1034505306, %ecx
	call	__gcov_indirect_call_profiler_v4
.L14:
	addq	$1, __gcov0._ZN8Polyfish7EndgameILNS_11EndgameCodeE19ENS_11ScaleFactorEED1Ev(%rip)
	cmpq	$0, __gcov7._ZN8Polyfish7EndgameILNS_11EndgameCodeE19ENS_11ScaleFactorEED1Ev(%rip)
	jne	.L16
	movq	.refptr.__gcov_time_profiler_counter(%rip), %rdx
	movq	(%rdx), %rax
	addq	$1, %rax
	movq	%rax, __gcov7._ZN8Polyfish7EndgameILNS_11EndgameCodeE19ENS_11ScaleFactorEED1Ev(%rip)
	movq	%rax, (%rdx)
.L16:
	addq	$40, %rsp
	ret
	.seh_endproc
	.align 2
	.p2align 4
	.globl	_ZN8Polyfish7EndgameILNS_11EndgameCodeE18ENS_11ScaleFactorEED1Ev
	.def	_ZN8Polyfish7EndgameILNS_11EndgameCodeE18ENS_11ScaleFactorEED1Ev;	.scl	2;	.type	32;	.endef
	.seh_proc	_ZN8Polyfish7EndgameILNS_11EndgameCodeE18ENS_11ScaleFactorEED1Ev
_ZN8Polyfish7EndgameILNS_11EndgameCodeE18ENS_11ScaleFactorEED1Ev:
	subq	$40, %rsp
	.seh_stackalloc	40
	.seh_endprologue
	movq	.refptr.__gcov_indirect_call(%rip), %rax
	cmpq	$0, (%rax)
	je	.L18
	leaq	_ZN8Polyfish7EndgameILNS_11EndgameCodeE18ENS_11ScaleFactorEED1Ev(%rip), %rdx
	movl	$1881479407, %ecx
	call	__gcov_indirect_call_profiler_v4
.L18:
	addq	$1, __gcov0._ZN8Polyfish7EndgameILNS_11EndgameCodeE18ENS_11ScaleFactorEED1Ev(%rip)
	cmpq	$0, __gcov7._ZN8Polyfish7EndgameILNS_11EndgameCodeE18ENS_11ScaleFactorEED1Ev(%rip)
	jne	.L20
	movq	.refptr.__gcov_time_profiler_counter(%rip), %rdx
	movq	(%rdx), %rax
	addq	$1, %rax
	movq	%rax, __gcov7._ZN8Polyfish7EndgameILNS_11EndgameCodeE18ENS_11ScaleFactorEED1Ev(%rip)
	movq	%rax, (%rdx)
.L20:
	addq	$40, %rsp
	ret
	.seh_endproc
	.align 2
	.p2align 4
	.def	_ZN8Polyfish7EndgameILNS_11EndgameCodeE16ENS_11ScaleFactorEED1Ev;	.scl	3;	.type	32;	.endef
	.seh_proc	_ZN8Polyfish7EndgameILNS_11EndgameCodeE16ENS_11ScaleFactorEED1Ev
_ZN8Polyfish7EndgameILNS_11EndgameCodeE16ENS_11ScaleFactorEED1Ev:
	subq	$40, %rsp
	.seh_stackalloc	40
	.seh_endprologue
	movq	.refptr.__gcov_indirect_call(%rip), %rax
	cmpq	$0, (%rax)
	je	.L22
	leaq	_ZN8Polyfish7EndgameILNS_11EndgameCodeE16ENS_11ScaleFactorEED1Ev(%rip), %rdx
	movl	$577384485, %ecx
	call	__gcov_indirect_call_profiler_v4
.L22:
	addq	$1, __gcov0._ZN8Polyfish7EndgameILNS_11EndgameCodeE16ENS_11ScaleFactorEED1Ev(%rip)
	cmpq	$0, __gcov7._ZN8Polyfish7EndgameILNS_11EndgameCodeE16ENS_11ScaleFactorEED1Ev(%rip)
	jne	.L24
	movq	.refptr.__gcov_time_profiler_counter(%rip), %rdx
	movq	(%rdx), %rax
	addq	$1, %rax
	movq	%rax, __gcov7._ZN8Polyfish7EndgameILNS_11EndgameCodeE16ENS_11ScaleFactorEED1Ev(%rip)
	movq	%rax, (%rdx)
.L24:
	addq	$40, %rsp
	ret
	.seh_endproc
	.align 2
	.p2align 4
	.globl	_ZN8Polyfish7EndgameILNS_11EndgameCodeE15ENS_11ScaleFactorEED1Ev
	.def	_ZN8Polyfish7EndgameILNS_11EndgameCodeE15ENS_11ScaleFactorEED1Ev;	.scl	2;	.type	32;	.endef
	.seh_proc	_ZN8Polyfish7EndgameILNS_11EndgameCodeE15ENS_11ScaleFactorEED1Ev
_ZN8Polyfish7EndgameILNS_11EndgameCodeE15ENS_11ScaleFactorEED1Ev:
	subq	$40, %rsp
	.seh_stackalloc	40
	.seh_endprologue
	movq	.refptr.__gcov_indirect_call(%rip), %rax
	cmpq	$0, (%rax)
	je	.L26
	leaq	_ZN8Polyfish7EndgameILNS_11EndgameCodeE15ENS_11ScaleFactorEED1Ev(%rip), %rdx
	movl	$1883230285, %ecx
	call	__gcov_indirect_call_profiler_v4
.L26:
	addq	$1, __gcov0._ZN8Polyfish7EndgameILNS_11EndgameCodeE15ENS_11ScaleFactorEED1Ev(%rip)
	cmpq	$0, __gcov7._ZN8Polyfish7EndgameILNS_11EndgameCodeE15ENS_11ScaleFactorEED1Ev(%rip)
	jne	.L28
	movq	.refptr.__gcov_time_profiler_counter(%rip), %rdx
	movq	(%rdx), %rax
	addq	$1, %rax
	movq	%rax, __gcov7._ZN8Polyfish7EndgameILNS_11EndgameCodeE15ENS_11ScaleFactorEED1Ev(%rip)
	movq	%rax, (%rdx)
.L28:
	addq	$40, %rsp
	ret
	.seh_endproc
	.align 2
	.p2align 4
	.globl	_ZN8Polyfish7EndgameILNS_11EndgameCodeE14ENS_11ScaleFactorEED1Ev
	.def	_ZN8Polyfish7EndgameILNS_11EndgameCodeE14ENS_11ScaleFactorEED1Ev;	.scl	2;	.type	32;	.endef
	.seh_proc	_ZN8Polyfish7EndgameILNS_11EndgameCodeE14ENS_11ScaleFactorEED1Ev
_ZN8Polyfish7EndgameILNS_11EndgameCodeE14ENS_11ScaleFactorEED1Ev:
	subq	$40, %rsp
	.seh_stackalloc	40
	.seh_endprologue
	movq	.refptr.__gcov_indirect_call(%rip), %rax
	cmpq	$0, (%rax)
	je	.L30
	leaq	_ZN8Polyfish7EndgameILNS_11EndgameCodeE14ENS_11ScaleFactorEED1Ev(%rip), %rdx
	movl	$1035175160, %ecx
	call	__gcov_indirect_call_profiler_v4
.L30:
	addq	$1, __gcov0._ZN8Polyfish7EndgameILNS_11EndgameCodeE14ENS_11ScaleFactorEED1Ev(%rip)
	cmpq	$0, __gcov7._ZN8Polyfish7EndgameILNS_11EndgameCodeE14ENS_11ScaleFactorEED1Ev(%rip)
	jne	.L32
	movq	.refptr.__gcov_time_profiler_counter(%rip), %rdx
	movq	(%rdx), %rax
	addq	$1, %rax
	movq	%rax, __gcov7._ZN8Polyfish7EndgameILNS_11EndgameCodeE14ENS_11ScaleFactorEED1Ev(%rip)
	movq	%rax, (%rdx)
.L32:
	addq	$40, %rsp
	ret
	.seh_endproc
	.align 2
	.p2align 4
	.globl	_ZN8Polyfish7EndgameILNS_11EndgameCodeE1ENS_5ValueEED1Ev
	.def	_ZN8Polyfish7EndgameILNS_11EndgameCodeE1ENS_5ValueEED1Ev;	.scl	2;	.type	32;	.endef
	.seh_proc	_ZN8Polyfish7EndgameILNS_11EndgameCodeE1ENS_5ValueEED1Ev
_ZN8Polyfish7EndgameILNS_11EndgameCodeE1ENS_5ValueEED1Ev:
	subq	$40, %rsp
	.seh_stackalloc	40
	.seh_endprologue
	movq	.refptr.__gcov_indirect_call(%rip), %rax
	cmpq	$0, (%rax)
	je	.L34
	leaq	_ZN8Polyfish7EndgameILNS_11EndgameCodeE1ENS_5ValueEED1Ev(%rip), %rdx
	movl	$1256174828, %ecx
	call	__gcov_indirect_call_profiler_v4
.L34:
	addq	$1, __gcov0._ZN8Polyfish7EndgameILNS_11EndgameCodeE1ENS_5ValueEED1Ev(%rip)
	cmpq	$0, __gcov7._ZN8Polyfish7EndgameILNS_11EndgameCodeE1ENS_5ValueEED1Ev(%rip)
	jne	.L36
	movq	.refptr.__gcov_time_profiler_counter(%rip), %rdx
	movq	(%rdx), %rax
	addq	$1, %rax
	movq	%rax, __gcov7._ZN8Polyfish7EndgameILNS_11EndgameCodeE1ENS_5ValueEED1Ev(%rip)
	movq	%rax, (%rdx)
.L36:
	addq	$40, %rsp
	ret
	.seh_endproc
	.align 2
	.p2align 4
	.globl	_ZN8Polyfish7EndgameILNS_11EndgameCodeE2ENS_5ValueEED1Ev
	.def	_ZN8Polyfish7EndgameILNS_11EndgameCodeE2ENS_5ValueEED1Ev;	.scl	2;	.type	32;	.endef
	.seh_proc	_ZN8Polyfish7EndgameILNS_11EndgameCodeE2ENS_5ValueEED1Ev
_ZN8Polyfish7EndgameILNS_11EndgameCodeE2ENS_5ValueEED1Ev:
	subq	$40, %rsp
	.seh_stackalloc	40
	.seh_endprologue
	movq	.refptr.__gcov_indirect_call(%rip), %rax
	cmpq	$0, (%rax)
	je	.L38
	leaq	_ZN8Polyfish7EndgameILNS_11EndgameCodeE2ENS_5ValueEED1Ev(%rip), %rdx
	movl	$1303827396, %ecx
	call	__gcov_indirect_call_profiler_v4
.L38:
	addq	$1, __gcov0._ZN8Polyfish7EndgameILNS_11EndgameCodeE2ENS_5ValueEED1Ev(%rip)
	cmpq	$0, __gcov7._ZN8Polyfish7EndgameILNS_11EndgameCodeE2ENS_5ValueEED1Ev(%rip)
	jne	.L40
	movq	.refptr.__gcov_time_profiler_counter(%rip), %rdx
	movq	(%rdx), %rax
	addq	$1, %rax
	movq	%rax, __gcov7._ZN8Polyfish7EndgameILNS_11EndgameCodeE2ENS_5ValueEED1Ev(%rip)
	movq	%rax, (%rdx)
.L40:
	addq	$40, %rsp
	ret
	.seh_endproc
	.align 2
	.p2align 4
	.globl	_ZN8Polyfish7EndgameILNS_11EndgameCodeE10ENS_5ValueEED1Ev
	.def	_ZN8Polyfish7EndgameILNS_11EndgameCodeE10ENS_5ValueEED1Ev;	.scl	2;	.type	32;	.endef
	.seh_proc	_ZN8Polyfish7EndgameILNS_11EndgameCodeE10ENS_5ValueEED1Ev
_ZN8Polyfish7EndgameILNS_11EndgameCodeE10ENS_5ValueEED1Ev:
	subq	$40, %rsp
	.seh_stackalloc	40
	.seh_endprologue
	movq	.refptr.__gcov_indirect_call(%rip), %rax
	cmpq	$0, (%rax)
	je	.L42
	leaq	_ZN8Polyfish7EndgameILNS_11EndgameCodeE10ENS_5ValueEED1Ev(%rip), %rdx
	movl	$685634729, %ecx
	call	__gcov_indirect_call_profiler_v4
.L42:
	addq	$1, __gcov0._ZN8Polyfish7EndgameILNS_11EndgameCodeE10ENS_5ValueEED1Ev(%rip)
	cmpq	$0, __gcov7._ZN8Polyfish7EndgameILNS_11EndgameCodeE10ENS_5ValueEED1Ev(%rip)
	jne	.L44
	movq	.refptr.__gcov_time_profiler_counter(%rip), %rdx
	movq	(%rdx), %rax
	addq	$1, %rax
	movq	%rax, __gcov7._ZN8Polyfish7EndgameILNS_11EndgameCodeE10ENS_5ValueEED1Ev(%rip)
	movq	%rax, (%rdx)
.L44:
	addq	$40, %rsp
	ret
	.seh_endproc
	.align 2
	.p2align 4
	.globl	_ZN8Polyfish7EndgameILNS_11EndgameCodeE9ENS_5ValueEED1Ev
	.def	_ZN8Polyfish7EndgameILNS_11EndgameCodeE9ENS_5ValueEED1Ev;	.scl	2;	.type	32;	.endef
	.seh_proc	_ZN8Polyfish7EndgameILNS_11EndgameCodeE9ENS_5ValueEED1Ev
_ZN8Polyfish7EndgameILNS_11EndgameCodeE9ENS_5ValueEED1Ev:
	subq	$40, %rsp
	.seh_stackalloc	40
	.seh_endprologue
	movq	.refptr.__gcov_indirect_call(%rip), %rax
	cmpq	$0, (%rax)
	je	.L46
	leaq	_ZN8Polyfish7EndgameILNS_11EndgameCodeE9ENS_5ValueEED1Ev(%rip), %rdx
	movl	$1390768536, %ecx
	call	__gcov_indirect_call_profiler_v4
.L46:
	addq	$1, __gcov0._ZN8Polyfish7EndgameILNS_11EndgameCodeE9ENS_5ValueEED1Ev(%rip)
	cmpq	$0, __gcov7._ZN8Polyfish7EndgameILNS_11EndgameCodeE9ENS_5ValueEED1Ev(%rip)
	jne	.L48
	movq	.refptr.__gcov_time_profiler_counter(%rip), %rdx
	movq	(%rdx), %rax
	addq	$1, %rax
	movq	%rax, __gcov7._ZN8Polyfish7EndgameILNS_11EndgameCodeE9ENS_5ValueEED1Ev(%rip)
	movq	%rax, (%rdx)
.L48:
	addq	$40, %rsp
	ret
	.seh_endproc
	.align 2
	.p2align 4
	.globl	_ZN8Polyfish7EndgameILNS_11EndgameCodeE8ENS_5ValueEED1Ev
	.def	_ZN8Polyfish7EndgameILNS_11EndgameCodeE8ENS_5ValueEED1Ev;	.scl	2;	.type	32;	.endef
	.seh_proc	_ZN8Polyfish7EndgameILNS_11EndgameCodeE8ENS_5ValueEED1Ev
_ZN8Polyfish7EndgameILNS_11EndgameCodeE8ENS_5ValueEED1Ev:
	subq	$40, %rsp
	.seh_stackalloc	40
	.seh_endprologue
	movq	.refptr.__gcov_indirect_call(%rip), %rax
	cmpq	$0, (%rax)
	je	.L50
	leaq	_ZN8Polyfish7EndgameILNS_11EndgameCodeE8ENS_5ValueEED1Ev(%rip), %rdx
	movl	$1401071597, %ecx
	call	__gcov_indirect_call_profiler_v4
.L50:
	addq	$1, __gcov0._ZN8Polyfish7EndgameILNS_11EndgameCodeE8ENS_5ValueEED1Ev(%rip)
	cmpq	$0, __gcov7._ZN8Polyfish7EndgameILNS_11EndgameCodeE8ENS_5ValueEED1Ev(%rip)
	jne	.L52
	movq	.refptr.__gcov_time_profiler_counter(%rip), %rdx
	movq	(%rdx), %rax
	addq	$1, %rax
	movq	%rax, __gcov7._ZN8Polyfish7EndgameILNS_11EndgameCodeE8ENS_5ValueEED1Ev(%rip)
	movq	%rax, (%rdx)
.L52:
	addq	$40, %rsp
	ret
	.seh_endproc
	.align 2
	.p2align 4
	.globl	_ZN8Polyfish7EndgameILNS_11EndgameCodeE7ENS_5ValueEED1Ev
	.def	_ZN8Polyfish7EndgameILNS_11EndgameCodeE7ENS_5ValueEED1Ev;	.scl	2;	.type	32;	.endef
	.seh_proc	_ZN8Polyfish7EndgameILNS_11EndgameCodeE7ENS_5ValueEED1Ev
_ZN8Polyfish7EndgameILNS_11EndgameCodeE7ENS_5ValueEED1Ev:
	subq	$40, %rsp
	.seh_stackalloc	40
	.seh_endprologue
	movq	.refptr.__gcov_indirect_call(%rip), %rax
	cmpq	$0, (%rax)
	je	.L54
	leaq	_ZN8Polyfish7EndgameILNS_11EndgameCodeE7ENS_5ValueEED1Ev(%rip), %rdx
	movl	$1087137547, %ecx
	call	__gcov_indirect_call_profiler_v4
.L54:
	addq	$1, __gcov0._ZN8Polyfish7EndgameILNS_11EndgameCodeE7ENS_5ValueEED1Ev(%rip)
	cmpq	$0, __gcov7._ZN8Polyfish7EndgameILNS_11EndgameCodeE7ENS_5ValueEED1Ev(%rip)
	jne	.L56
	movq	.refptr.__gcov_time_profiler_counter(%rip), %rdx
	movq	(%rdx), %rax
	addq	$1, %rax
	movq	%rax, __gcov7._ZN8Polyfish7EndgameILNS_11EndgameCodeE7ENS_5ValueEED1Ev(%rip)
	movq	%rax, (%rdx)
.L56:
	addq	$40, %rsp
	ret
	.seh_endproc
	.align 2
	.p2align 4
	.globl	_ZN8Polyfish7EndgameILNS_11EndgameCodeE6ENS_5ValueEED1Ev
	.def	_ZN8Polyfish7EndgameILNS_11EndgameCodeE6ENS_5ValueEED1Ev;	.scl	2;	.type	32;	.endef
	.seh_proc	_ZN8Polyfish7EndgameILNS_11EndgameCodeE6ENS_5ValueEED1Ev
_ZN8Polyfish7EndgameILNS_11EndgameCodeE6ENS_5ValueEED1Ev:
	subq	$40, %rsp
	.seh_stackalloc	40
	.seh_endprologue
	movq	.refptr.__gcov_indirect_call(%rip), %rax
	cmpq	$0, (%rax)
	je	.L58
	leaq	_ZN8Polyfish7EndgameILNS_11EndgameCodeE6ENS_5ValueEED1Ev(%rip), %rdx
	movl	$1101771134, %ecx
	call	__gcov_indirect_call_profiler_v4
.L58:
	addq	$1, __gcov0._ZN8Polyfish7EndgameILNS_11EndgameCodeE6ENS_5ValueEED1Ev(%rip)
	cmpq	$0, __gcov7._ZN8Polyfish7EndgameILNS_11EndgameCodeE6ENS_5ValueEED1Ev(%rip)
	jne	.L60
	movq	.refptr.__gcov_time_profiler_counter(%rip), %rdx
	movq	(%rdx), %rax
	addq	$1, %rax
	movq	%rax, __gcov7._ZN8Polyfish7EndgameILNS_11EndgameCodeE6ENS_5ValueEED1Ev(%rip)
	movq	%rax, (%rdx)
.L60:
	addq	$40, %rsp
	ret
	.seh_endproc
	.align 2
	.p2align 4
	.globl	_ZN8Polyfish7EndgameILNS_11EndgameCodeE5ENS_5ValueEED1Ev
	.def	_ZN8Polyfish7EndgameILNS_11EndgameCodeE5ENS_5ValueEED1Ev;	.scl	2;	.type	32;	.endef
	.seh_proc	_ZN8Polyfish7EndgameILNS_11EndgameCodeE5ENS_5ValueEED1Ev
_ZN8Polyfish7EndgameILNS_11EndgameCodeE5ENS_5ValueEED1Ev:
	subq	$40, %rsp
	.seh_stackalloc	40
	.seh_endprologue
	movq	.refptr.__gcov_indirect_call(%rip), %rax
	cmpq	$0, (%rax)
	je	.L62
	leaq	_ZN8Polyfish7EndgameILNS_11EndgameCodeE5ENS_5ValueEED1Ev(%rip), %rdx
	movl	$1187173974, %ecx
	call	__gcov_indirect_call_profiler_v4
.L62:
	addq	$1, __gcov0._ZN8Polyfish7EndgameILNS_11EndgameCodeE5ENS_5ValueEED1Ev(%rip)
	cmpq	$0, __gcov7._ZN8Polyfish7EndgameILNS_11EndgameCodeE5ENS_5ValueEED1Ev(%rip)
	jne	.L64
	movq	.refptr.__gcov_time_profiler_counter(%rip), %rdx
	movq	(%rdx), %rax
	addq	$1, %rax
	movq	%rax, __gcov7._ZN8Polyfish7EndgameILNS_11EndgameCodeE5ENS_5ValueEED1Ev(%rip)
	movq	%rax, (%rdx)
.L64:
	addq	$40, %rsp
	ret
	.seh_endproc
	.align 2
	.p2align 4
	.globl	_ZN8Polyfish7EndgameILNS_11EndgameCodeE4ENS_5ValueEED1Ev
	.def	_ZN8Polyfish7EndgameILNS_11EndgameCodeE4ENS_5ValueEED1Ev;	.scl	2;	.type	32;	.endef
	.seh_proc	_ZN8Polyfish7EndgameILNS_11EndgameCodeE4ENS_5ValueEED1Ev
_ZN8Polyfish7EndgameILNS_11EndgameCodeE4ENS_5ValueEED1Ev:
	subq	$40, %rsp
	.seh_stackalloc	40
	.seh_endprologue
	movq	.refptr.__gcov_indirect_call(%rip), %rax
	cmpq	$0, (%rax)
	je	.L66
	leaq	_ZN8Polyfish7EndgameILNS_11EndgameCodeE4ENS_5ValueEED1Ev(%rip), %rdx
	movl	$1201995811, %ecx
	call	__gcov_indirect_call_profiler_v4
.L66:
	addq	$1, __gcov0._ZN8Polyfish7EndgameILNS_11EndgameCodeE4ENS_5ValueEED1Ev(%rip)
	cmpq	$0, __gcov7._ZN8Polyfish7EndgameILNS_11EndgameCodeE4ENS_5ValueEED1Ev(%rip)
	jne	.L68
	movq	.refptr.__gcov_time_profiler_counter(%rip), %rdx
	movq	(%rdx), %rax
	addq	$1, %rax
	movq	%rax, __gcov7._ZN8Polyfish7EndgameILNS_11EndgameCodeE4ENS_5ValueEED1Ev(%rip)
	movq	%rax, (%rdx)
.L68:
	addq	$40, %rsp
	ret
	.seh_endproc
	.p2align 4
	.def	_ZSt9showpointRSt8ios_base;	.scl	3;	.type	32;	.endef
	.seh_proc	_ZSt9showpointRSt8ios_base
_ZSt9showpointRSt8ios_base:
	pushq	%r12
	.seh_pushreg	%r12
	subq	$32, %rsp
	.seh_stackalloc	32
	.seh_endprologue
	movq	.refptr.__gcov_indirect_call(%rip), %rax
	cmpq	$0, (%rax)
	movq	%rcx, %r12
	je	.L70
	leaq	_ZSt9showpointRSt8ios_base(%rip), %rdx
	movl	$1754894707, %ecx
	call	__gcov_indirect_call_profiler_v4
.L70:
	addq	$1, __gcov0._ZSt9showpointRSt8ios_base.lto_priv.0(%rip)
	cmpq	$0, __gcov7._ZSt9showpointRSt8ios_base.lto_priv.0(%rip)
	jne	.L71
	movq	.refptr.__gcov_time_profiler_counter(%rip), %rdx
	movq	(%rdx), %rax
	addq	$1, %rax
	movq	%rax, __gcov7._ZSt9showpointRSt8ios_base.lto_priv.0(%rip)
	movq	%rax, (%rdx)
.L71:
	orl	$1024, 24(%r12)
	movq	%r12, %rax
	addq	$32, %rsp
	popq	%r12
	ret
	.seh_endproc
	.p2align 4
	.def	_ZSt7showposRSt8ios_base;	.scl	3;	.type	32;	.endef
	.seh_proc	_ZSt7showposRSt8ios_base
_ZSt7showposRSt8ios_base:
	pushq	%r12
	.seh_pushreg	%r12
	subq	$32, %rsp
	.seh_stackalloc	32
	.seh_endprologue
	movq	.refptr.__gcov_indirect_call(%rip), %rax
	cmpq	$0, (%rax)
	movq	%rcx, %r12
	je	.L73
	leaq	_ZSt7showposRSt8ios_base(%rip), %rdx
	movl	$623059901, %ecx
	call	__gcov_indirect_call_profiler_v4
.L73:
	addq	$1, __gcov0._ZSt7showposRSt8ios_base.lto_priv.0(%rip)
	cmpq	$0, __gcov7._ZSt7showposRSt8ios_base.lto_priv.0(%rip)
	jne	.L74
	movq	.refptr.__gcov_time_profiler_counter(%rip), %rdx
	movq	(%rdx), %rax
	addq	$1, %rax
	movq	%rax, __gcov7._ZSt7showposRSt8ios_base.lto_priv.0(%rip)
	movq	%rax, (%rdx)
.L74:
	orl	$2048, 24(%r12)
	movq	%r12, %rax
	addq	$32, %rsp
	popq	%r12
	ret
	.seh_endproc
	.p2align 4
	.def	_ZSt9noshowposRSt8ios_base;	.scl	3;	.type	32;	.endef
	.seh_proc	_ZSt9noshowposRSt8ios_base
_ZSt9noshowposRSt8ios_base:
	pushq	%r12
	.seh_pushreg	%r12
	subq	$32, %rsp
	.seh_stackalloc	32
	.seh_endprologue
	movq	.refptr.__gcov_indirect_call(%rip), %rax
	cmpq	$0, (%rax)
	movq	%rcx, %r12
	je	.L76
	leaq	_ZSt9noshowposRSt8ios_base(%rip), %rdx
	movl	$993172915, %ecx
	call	__gcov_indirect_call_profiler_v4
.L76:
	addq	$1, __gcov0._ZSt9noshowposRSt8ios_base.lto_priv.0(%rip)
	cmpq	$0, __gcov7._ZSt9noshowposRSt8ios_base.lto_priv.0(%rip)
	jne	.L77
	movq	.refptr.__gcov_time_profiler_counter(%rip), %rdx
	movq	(%rdx), %rax
	addq	$1, %rax
	movq	%rax, __gcov7._ZSt9noshowposRSt8ios_base.lto_priv.0(%rip)
	movq	%rax, (%rdx)
.L77:
	andl	$-2049, 24(%r12)
	movq	%r12, %rax
	addq	$32, %rsp
	popq	%r12
	ret
	.seh_endproc
	.p2align 4
	.globl	_ZSt5fixedRSt8ios_base
	.def	_ZSt5fixedRSt8ios_base;	.scl	2;	.type	32;	.endef
	.seh_proc	_ZSt5fixedRSt8ios_base
_ZSt5fixedRSt8ios_base:
	pushq	%r12
	.seh_pushreg	%r12
	subq	$32, %rsp
	.seh_stackalloc	32
	.seh_endprologue
	movq	.refptr.__gcov_indirect_call(%rip), %rax
	cmpq	$0, (%rax)
	movq	%rcx, %r12
	je	.L79
	leaq	_ZSt5fixedRSt8ios_base(%rip), %rdx
	movl	$1948616477, %ecx
	call	__gcov_indirect_call_profiler_v4
.L79:
	addq	$1, __gcov0._ZSt5fixedRSt8ios_base.lto_priv.0(%rip)
	cmpq	$0, __gcov7._ZSt5fixedRSt8ios_base.lto_priv.0(%rip)
	jne	.L80
	movq	.refptr.__gcov_time_profiler_counter(%rip), %rdx
	movq	(%rdx), %rax
	addq	$1, %rax
	movq	%rax, __gcov7._ZSt5fixedRSt8ios_base.lto_priv.0(%rip)
	movq	%rax, (%rdx)
.L80:
	movl	24(%r12), %eax
	andl	$-261, %eax
	orl	$4, %eax
	movl	%eax, 24(%r12)
	movq	%r12, %rax
	addq	$32, %rsp
	popq	%r12
	ret
	.seh_endproc
	.align 2
	.p2align 4
	.def	_ZNSt8__detail16_Hashtable_allocISaINS_10_Hash_nodeISt4pairIKySt10unique_ptrIN8Polyfish11EndgameBaseINS5_5ValueEEESt14default_deleteIS8_EEELb0EEEEE18_M_deallocate_nodeEPSD_;	.scl	3;	.type	32;	.endef
	.seh_proc	_ZNSt8__detail16_Hashtable_allocISaINS_10_Hash_nodeISt4pairIKySt10unique_ptrIN8Polyfish11EndgameBaseINS5_5ValueEEESt14default_deleteIS8_EEELb0EEEEE18_M_deallocate_nodeEPSD_
_ZNSt8__detail16_Hashtable_allocISaINS_10_Hash_nodeISt4pairIKySt10unique_ptrIN8Polyfish11EndgameBaseINS5_5ValueEEESt14default_deleteIS8_EEELb0EEEEE18_M_deallocate_nodeEPSD_:
	pushq	%r12
	.seh_pushreg	%r12
	pushq	%rbx
	.seh_pushreg	%rbx
	subq	$40, %rsp
	.seh_stackalloc	40
	.seh_endprologue
	movq	.refptr.__gcov_indirect_call(%rip), %rbx
	cmpq	$0, (%rbx)
	movq	%rdx, %r12
	je	.L82
	leaq	_ZNSt8__detail16_Hashtable_allocISaINS_10_Hash_nodeISt4pairIKySt10unique_ptrIN8Polyfish11EndgameBaseINS5_5ValueEEESt14default_deleteIS8_EEELb0EEEEE18_M_deallocate_nodeEPSD_(%rip), %rdx
	movl	$1657533207, %ecx
	call	__gcov_indirect_call_profiler_v4
.L82:
	cmpq	$0, __gcov7._ZNSt8__detail16_Hashtable_allocISaINS_10_Hash_nodeISt4pairIKySt10unique_ptrIN8Polyfish11EndgameBaseINS5_5ValueEEESt14default_deleteIS8_EEELb0EEEEE18_M_deallocate_nodeEPSD_(%rip)
	jne	.L83
	movq	.refptr.__gcov_time_profiler_counter(%rip), %rdx
	movq	(%rdx), %rax
	addq	$1, %rax
	movq	%rax, __gcov7._ZNSt8__detail16_Hashtable_allocISaINS_10_Hash_nodeISt4pairIKySt10unique_ptrIN8Polyfish11EndgameBaseINS5_5ValueEEESt14default_deleteIS8_EEELb0EEEEE18_M_deallocate_nodeEPSD_(%rip)
	movq	%rax, (%rdx)
.L83:
	movq	16(%r12), %rcx
	testq	%rcx, %rcx
	je	.L86
	movq	(%rcx), %rax
	leaq	__gcov4._ZNSt8__detail16_Hashtable_allocISaINS_10_Hash_nodeISt4pairIKySt10unique_ptrIN8Polyfish11EndgameBaseINS5_5ValueEEESt14default_deleteIS8_EEELb0EEEEE18_M_deallocate_nodeEPSD_(%rip), %rdx
	addq	$1, __gcov0._ZNSt8__detail16_Hashtable_allocISaINS_10_Hash_nodeISt4pairIKySt10unique_ptrIN8Polyfish11EndgameBaseINS5_5ValueEEESt14default_deleteIS8_EEELb0EEEEE18_M_deallocate_nodeEPSD_(%rip)
	movq	8(%rax), %rax
	movq	%rdx, 8(%rbx)
	movq	%rax, (%rbx)
	call	*%rax
	addq	$1, 16+__gcov0._ZNSt8__detail16_Hashtable_allocISaINS_10_Hash_nodeISt4pairIKySt10unique_ptrIN8Polyfish11EndgameBaseINS5_5ValueEEESt14default_deleteIS8_EEELb0EEEEE18_M_deallocate_nodeEPSD_(%rip)
.L85:
	movl	$24, %edx
	movq	%r12, %rcx
	call	_ZdlPvy
	addq	$1, 24+__gcov0._ZNSt8__detail16_Hashtable_allocISaINS_10_Hash_nodeISt4pairIKySt10unique_ptrIN8Polyfish11EndgameBaseINS5_5ValueEEESt14default_deleteIS8_EEELb0EEEEE18_M_deallocate_nodeEPSD_(%rip)
	addq	$40, %rsp
	popq	%rbx
	popq	%r12
	ret
	.p2align 4,,10
	.p2align 3
.L86:
	addq	$1, 8+__gcov0._ZNSt8__detail16_Hashtable_allocISaINS_10_Hash_nodeISt4pairIKySt10unique_ptrIN8Polyfish11EndgameBaseINS5_5ValueEEESt14default_deleteIS8_EEELb0EEEEE18_M_deallocate_nodeEPSD_(%rip)
	jmp	.L85
	.seh_endproc
	.align 2
	.p2align 4
	.globl	_ZNSt10_HashtableIySt4pairIKySt10unique_ptrIN8Polyfish11EndgameBaseINS3_5ValueEEESt14default_deleteIS6_EEESaISA_ENSt8__detail10_Select1stESt8equal_toIyESt4hashIyENSC_18_Mod_range_hashingENSC_20_Default_ranged_hashENSC_20_Prime_rehash_policyENSC_17_Hashtable_traitsILb0ELb0ELb1EEEE5clearEv
	.def	_ZNSt10_HashtableIySt4pairIKySt10unique_ptrIN8Polyfish11EndgameBaseINS3_5ValueEEESt14default_deleteIS6_EEESaISA_ENSt8__detail10_Select1stESt8equal_toIyESt4hashIyENSC_18_Mod_range_hashingENSC_20_Default_ranged_hashENSC_20_Prime_rehash_policyENSC_17_Hashtable_traitsILb0ELb0ELb1EEEE5clearEv;	.scl	2;	.type	32;	.endef
	.seh_proc	_ZNSt10_HashtableIySt4pairIKySt10unique_ptrIN8Polyfish11EndgameBaseINS3_5ValueEEESt14default_deleteIS6_EEESaISA_ENSt8__detail10_Select1stESt8equal_toIyESt4hashIyENSC_18_Mod_range_hashingENSC_20_Default_ranged_hashENSC_20_Prime_rehash_policyENSC_17_Hashtable_traitsILb0ELb0ELb1EEEE5clearEv
_ZNSt10_HashtableIySt4pairIKySt10unique_ptrIN8Polyfish11EndgameBaseINS3_5ValueEEESt14default_deleteIS6_EEESaISA_ENSt8__detail10_Select1stESt8equal_toIyESt4hashIyENSC_18_Mod_range_hashingENSC_20_Default_ranged_hashENSC_20_Prime_rehash_policyENSC_17_Hashtable_traitsILb0ELb0ELb1EEEE5clearEv:
	pushq	%r15
	.seh_pushreg	%r15
	pushq	%r14
	.seh_pushreg	%r14
	pushq	%r13
	.seh_pushreg	%r13
	pushq	%r12
	.seh_pushreg	%r12
	pushq	%rbp
	.seh_pushreg	%rbp
	pushq	%rdi
	.seh_pushreg	%rdi
	pushq	%rsi
	.seh_pushreg	%rsi
	pushq	%rbx
	.seh_pushreg	%rbx
	subq	$40, %rsp
	.seh_stackalloc	40
	.seh_endprologue
	movq	.refptr.__gcov_indirect_call(%rip), %rbx
	cmpq	$0, (%rbx)
	movq	%rcx, %rdi
	jne	.L103
.L88:
	addq	$1, __gcov0._ZNSt10_HashtableIySt4pairIKySt10unique_ptrIN8Polyfish11EndgameBaseINS3_5ValueEEESt14default_deleteIS6_EEESaISA_ENSt8__detail10_Select1stESt8equal_toIyESt4hashIyENSC_18_Mod_range_hashingENSC_20_Default_ranged_hashENSC_20_Prime_rehash_policyENSC_17_Hashtable_traitsILb0ELb0ELb1EEEE5clearEv(%rip)
	cmpq	$0, __gcov7._ZNSt10_HashtableIySt4pairIKySt10unique_ptrIN8Polyfish11EndgameBaseINS3_5ValueEEESt14default_deleteIS6_EEESaISA_ENSt8__detail10_Select1stESt8equal_toIyESt4hashIyENSC_18_Mod_range_hashingENSC_20_Default_ranged_hashENSC_20_Prime_rehash_policyENSC_17_Hashtable_traitsILb0ELb0ELb1EEEE5clearEv(%rip)
	je	.L104
.L89:
	movq	16(%rdi), %r12
	testq	%r12, %r12
	je	.L90
	movq	.refptr.__gcov_time_profiler_counter(%rip), %r13
	leaq	__gcov7._ZNSt8__detail16_Hashtable_allocISaINS_10_Hash_nodeISt4pairIKySt10unique_ptrIN8Polyfish11EndgameBaseINS5_5ValueEEESt14default_deleteIS8_EEELb0EEEEE18_M_deallocate_nodeEPSD_(%rip), %rsi
	leaq	_ZNSt8__detail16_Hashtable_allocISaINS_10_Hash_nodeISt4pairIKySt10unique_ptrIN8Polyfish11EndgameBaseINS5_5ValueEEESt14default_deleteIS8_EEELb0EEEEE18_M_deallocate_nodeEPSD_(%rip), %r14
	leaq	__gcov4._ZNSt8__detail16_Hashtable_allocISaINS_10_Hash_nodeISt4pairIKySt10unique_ptrIN8Polyfish11EndgameBaseINS5_5ValueEEESt14default_deleteIS8_EEELb0EEEEE18_M_deallocate_nodeEPSD_(%rip), %rbp
	jmp	.L95
	.p2align 4,,10
	.p2align 3
.L93:
	movq	(%rcx), %rax
	addq	$1, __gcov0._ZNSt8__detail16_Hashtable_allocISaINS_10_Hash_nodeISt4pairIKySt10unique_ptrIN8Polyfish11EndgameBaseINS5_5ValueEEESt14default_deleteIS8_EEELb0EEEEE18_M_deallocate_nodeEPSD_(%rip)
	movq	8(%rax), %rax
	movq	%rbp, 8(%rbx)
	movq	%rax, (%rbx)
	call	*%rax
	addq	$1, 16+__gcov0._ZNSt8__detail16_Hashtable_allocISaINS_10_Hash_nodeISt4pairIKySt10unique_ptrIN8Polyfish11EndgameBaseINS5_5ValueEEESt14default_deleteIS8_EEELb0EEEEE18_M_deallocate_nodeEPSD_(%rip)
.L102:
	movl	$24, %edx
	movq	%r12, %rcx
	call	_ZdlPvy
	addq	$1, 24+__gcov0._ZNSt8__detail16_Hashtable_allocISaINS_10_Hash_nodeISt4pairIKySt10unique_ptrIN8Polyfish11EndgameBaseINS5_5ValueEEESt14default_deleteIS8_EEELb0EEEEE18_M_deallocate_nodeEPSD_(%rip)
	testq	%r15, %r15
	je	.L90
	movq	%r15, %r12
.L95:
	addq	$1, 8+__gcov0._ZNSt10_HashtableIySt4pairIKySt10unique_ptrIN8Polyfish11EndgameBaseINS3_5ValueEEESt14default_deleteIS6_EEESaISA_ENSt8__detail10_Select1stESt8equal_toIyESt4hashIyENSC_18_Mod_range_hashingENSC_20_Default_ranged_hashENSC_20_Prime_rehash_policyENSC_17_Hashtable_traitsILb0ELb0ELb1EEEE5clearEv(%rip)
	cmpq	$0, (%rbx)
	movq	(%r12), %r15
	jne	.L105
.L91:
	cmpq	$0, (%rsi)
	je	.L106
.L92:
	movq	16(%r12), %rcx
	testq	%rcx, %rcx
	jne	.L93
	addq	$1, 8+__gcov0._ZNSt8__detail16_Hashtable_allocISaINS_10_Hash_nodeISt4pairIKySt10unique_ptrIN8Polyfish11EndgameBaseINS5_5ValueEEESt14default_deleteIS8_EEELb0EEEEE18_M_deallocate_nodeEPSD_(%rip)
	jmp	.L102
	.p2align 4,,10
	.p2align 3
.L106:
	movq	0(%r13), %rax
	addq	$1, %rax
	movq	%rax, (%rsi)
	movq	%rax, 0(%r13)
	jmp	.L92
	.p2align 4,,10
	.p2align 3
.L105:
	movq	%r14, %rdx
	movl	$1657533207, %ecx
	call	__gcov_indirect_call_profiler_v4
	jmp	.L91
	.p2align 4,,10
	.p2align 3
.L90:
	movq	8(%rdi), %rax
	movq	(%rdi), %r12
	leaq	__gcov3._ZNSt10_HashtableIySt4pairIKySt10unique_ptrIN8Polyfish11EndgameBaseINS3_5ValueEEESt14default_deleteIS6_EEESaISA_ENSt8__detail10_Select1stESt8equal_toIyESt4hashIyENSC_18_Mod_range_hashingENSC_20_Default_ranged_hashENSC_20_Prime_rehash_policyENSC_17_Hashtable_traitsILb0ELb0ELb1EEEE5clearEv(%rip), %rcx
	addq	$1, 16+__gcov0._ZNSt10_HashtableIySt4pairIKySt10unique_ptrIN8Polyfish11EndgameBaseINS3_5ValueEEESt14default_deleteIS6_EEESaISA_ENSt8__detail10_Select1stESt8equal_toIyESt4hashIyENSC_18_Mod_range_hashingENSC_20_Default_ranged_hashENSC_20_Prime_rehash_policyENSC_17_Hashtable_traitsILb0ELb0ELb1EEEE5clearEv(%rip)
	leaq	0(,%rax,8), %rbx
	movq	%rbx, %rdx
	call	__gcov_topn_values_profiler
	movq	%rbx, %rdx
	leaq	__gcov5._ZNSt10_HashtableIySt4pairIKySt10unique_ptrIN8Polyfish11EndgameBaseINS3_5ValueEEESt14default_deleteIS6_EEESaISA_ENSt8__detail10_Select1stESt8equal_toIyESt4hashIyENSC_18_Mod_range_hashingENSC_20_Default_ranged_hashENSC_20_Prime_rehash_policyENSC_17_Hashtable_traitsILb0ELb0ELb1EEEE5clearEv(%rip), %rcx
	call	__gcov_average_profiler
	movq	%r12, %rdx
	leaq	__gcov6._ZNSt10_HashtableIySt4pairIKySt10unique_ptrIN8Polyfish11EndgameBaseINS3_5ValueEEESt14default_deleteIS6_EEESaISA_ENSt8__detail10_Select1stESt8equal_toIyESt4hashIyENSC_18_Mod_range_hashingENSC_20_Default_ranged_hashENSC_20_Prime_rehash_policyENSC_17_Hashtable_traitsILb0ELb0ELb1EEEE5clearEv(%rip), %rcx
	call	__gcov_ior_profiler
	movq	%rbx, %r8
	xorl	%edx, %edx
	movq	%r12, %rcx
	call	memset
	movq	$0, 24(%rdi)
	movq	$0, 16(%rdi)
	addq	$40, %rsp
	popq	%rbx
	popq	%rsi
	popq	%rdi
	popq	%rbp
	popq	%r12
	popq	%r13
	popq	%r14
	popq	%r15
	ret
	.p2align 4,,10
	.p2align 3
.L103:
	leaq	_ZNSt10_HashtableIySt4pairIKySt10unique_ptrIN8Polyfish11EndgameBaseINS3_5ValueEEESt14default_deleteIS6_EEESaISA_ENSt8__detail10_Select1stESt8equal_toIyESt4hashIyENSC_18_Mod_range_hashingENSC_20_Default_ranged_hashENSC_20_Prime_rehash_policyENSC_17_Hashtable_traitsILb0ELb0ELb1EEEE5clearEv(%rip), %rdx
	movl	$713056590, %ecx
	call	__gcov_indirect_call_profiler_v4
	jmp	.L88
	.p2align 4,,10
	.p2align 3
.L104:
	movq	.refptr.__gcov_time_profiler_counter(%rip), %rdx
	movq	(%rdx), %rax
	addq	$1, %rax
	movq	%rax, __gcov7._ZNSt10_HashtableIySt4pairIKySt10unique_ptrIN8Polyfish11EndgameBaseINS3_5ValueEEESt14default_deleteIS6_EEESaISA_ENSt8__detail10_Select1stESt8equal_toIyESt4hashIyENSC_18_Mod_range_hashingENSC_20_Default_ranged_hashENSC_20_Prime_rehash_policyENSC_17_Hashtable_traitsILb0ELb0ELb1EEEE5clearEv(%rip)
	movq	%rax, (%rdx)
	jmp	.L89
	.seh_endproc
	.align 2
	.p2align 4
	.def	_ZNSt8__detail16_Hashtable_allocISaINS_10_Hash_nodeISt4pairIKySt10unique_ptrIN8Polyfish11EndgameBaseINS5_11ScaleFactorEEESt14default_deleteIS8_EEELb0EEEEE18_M_deallocate_nodeEPSD_;	.scl	3;	.type	32;	.endef
	.seh_proc	_ZNSt8__detail16_Hashtable_allocISaINS_10_Hash_nodeISt4pairIKySt10unique_ptrIN8Polyfish11EndgameBaseINS5_11ScaleFactorEEESt14default_deleteIS8_EEELb0EEEEE18_M_deallocate_nodeEPSD_
_ZNSt8__detail16_Hashtable_allocISaINS_10_Hash_nodeISt4pairIKySt10unique_ptrIN8Polyfish11EndgameBaseINS5_11ScaleFactorEEESt14default_deleteIS8_EEELb0EEEEE18_M_deallocate_nodeEPSD_:
	pushq	%r12
	.seh_pushreg	%r12
	pushq	%rbx
	.seh_pushreg	%rbx
	subq	$40, %rsp
	.seh_stackalloc	40
	.seh_endprologue
	movq	.refptr.__gcov_indirect_call(%rip), %rbx
	cmpq	$0, (%rbx)
	movq	%rdx, %r12
	je	.L108
	leaq	_ZNSt8__detail16_Hashtable_allocISaINS_10_Hash_nodeISt4pairIKySt10unique_ptrIN8Polyfish11EndgameBaseINS5_11ScaleFactorEEESt14default_deleteIS8_EEELb0EEEEE18_M_deallocate_nodeEPSD_(%rip), %rdx
	movl	$467536611, %ecx
	call	__gcov_indirect_call_profiler_v4
.L108:
	cmpq	$0, __gcov7._ZNSt8__detail16_Hashtable_allocISaINS_10_Hash_nodeISt4pairIKySt10unique_ptrIN8Polyfish11EndgameBaseINS5_11ScaleFactorEEESt14default_deleteIS8_EEELb0EEEEE18_M_deallocate_nodeEPSD_(%rip)
	jne	.L109
	movq	.refptr.__gcov_time_profiler_counter(%rip), %rdx
	movq	(%rdx), %rax
	addq	$1, %rax
	movq	%rax, __gcov7._ZNSt8__detail16_Hashtable_allocISaINS_10_Hash_nodeISt4pairIKySt10unique_ptrIN8Polyfish11EndgameBaseINS5_11ScaleFactorEEESt14default_deleteIS8_EEELb0EEEEE18_M_deallocate_nodeEPSD_(%rip)
	movq	%rax, (%rdx)
.L109:
	movq	16(%r12), %rcx
	testq	%rcx, %rcx
	je	.L112
	movq	(%rcx), %rax
	leaq	__gcov4._ZNSt8__detail16_Hashtable_allocISaINS_10_Hash_nodeISt4pairIKySt10unique_ptrIN8Polyfish11EndgameBaseINS5_11ScaleFactorEEESt14default_deleteIS8_EEELb0EEEEE18_M_deallocate_nodeEPSD_(%rip), %rdx
	addq	$1, __gcov0._ZNSt8__detail16_Hashtable_allocISaINS_10_Hash_nodeISt4pairIKySt10unique_ptrIN8Polyfish11EndgameBaseINS5_11ScaleFactorEEESt14default_deleteIS8_EEELb0EEEEE18_M_deallocate_nodeEPSD_(%rip)
	movq	8(%rax), %rax
	movq	%rdx, 8(%rbx)
	movq	%rax, (%rbx)
	call	*%rax
	addq	$1, 16+__gcov0._ZNSt8__detail16_Hashtable_allocISaINS_10_Hash_nodeISt4pairIKySt10unique_ptrIN8Polyfish11EndgameBaseINS5_11ScaleFactorEEESt14default_deleteIS8_EEELb0EEEEE18_M_deallocate_nodeEPSD_(%rip)
.L111:
	movl	$24, %edx
	movq	%r12, %rcx
	call	_ZdlPvy
	addq	$1, 24+__gcov0._ZNSt8__detail16_Hashtable_allocISaINS_10_Hash_nodeISt4pairIKySt10unique_ptrIN8Polyfish11EndgameBaseINS5_11ScaleFactorEEESt14default_deleteIS8_EEELb0EEEEE18_M_deallocate_nodeEPSD_(%rip)
	addq	$40, %rsp
	popq	%rbx
	popq	%r12
	ret
	.p2align 4,,10
	.p2align 3
.L112:
	addq	$1, 8+__gcov0._ZNSt8__detail16_Hashtable_allocISaINS_10_Hash_nodeISt4pairIKySt10unique_ptrIN8Polyfish11EndgameBaseINS5_11ScaleFactorEEESt14default_deleteIS8_EEELb0EEEEE18_M_deallocate_nodeEPSD_(%rip)
	jmp	.L111
	.seh_endproc
	.align 2
	.p2align 4
	.globl	_ZNSt10_HashtableIySt4pairIKySt10unique_ptrIN8Polyfish11EndgameBaseINS3_11ScaleFactorEEESt14default_deleteIS6_EEESaISA_ENSt8__detail10_Select1stESt8equal_toIyESt4hashIyENSC_18_Mod_range_hashingENSC_20_Default_ranged_hashENSC_20_Prime_rehash_policyENSC_17_Hashtable_traitsILb0ELb0ELb1EEEE5clearEv
	.def	_ZNSt10_HashtableIySt4pairIKySt10unique_ptrIN8Polyfish11EndgameBaseINS3_11ScaleFactorEEESt14default_deleteIS6_EEESaISA_ENSt8__detail10_Select1stESt8equal_toIyESt4hashIyENSC_18_Mod_range_hashingENSC_20_Default_ranged_hashENSC_20_Prime_rehash_policyENSC_17_Hashtable_traitsILb0ELb0ELb1EEEE5clearEv;	.scl	2;	.type	32;	.endef
	.seh_proc	_ZNSt10_HashtableIySt4pairIKySt10unique_ptrIN8Polyfish11EndgameBaseINS3_11ScaleFactorEEESt14default_deleteIS6_EEESaISA_ENSt8__detail10_Select1stESt8equal_toIyESt4hashIyENSC_18_Mod_range_hashingENSC_20_Default_ranged_hashENSC_20_Prime_rehash_policyENSC_17_Hashtable_traitsILb0ELb0ELb1EEEE5clearEv
_ZNSt10_HashtableIySt4pairIKySt10unique_ptrIN8Polyfish11EndgameBaseINS3_11ScaleFactorEEESt14default_deleteIS6_EEESaISA_ENSt8__detail10_Select1stESt8equal_toIyESt4hashIyENSC_18_Mod_range_hashingENSC_20_Default_ranged_hashENSC_20_Prime_rehash_policyENSC_17_Hashtable_traitsILb0ELb0ELb1EEEE5clearEv:
	pushq	%r15
	.seh_pushreg	%r15
	pushq	%r14
	.seh_pushreg	%r14
	pushq	%r13
	.seh_pushreg	%r13
	pushq	%r12
	.seh_pushreg	%r12
	pushq	%rbp
	.seh_pushreg	%rbp
	pushq	%rdi
	.seh_pushreg	%rdi
	pushq	%rsi
	.seh_pushreg	%rsi
	pushq	%rbx
	.seh_pushreg	%rbx
	subq	$40, %rsp
	.seh_stackalloc	40
	.seh_endprologue
	movq	.refptr.__gcov_indirect_call(%rip), %rbx
	cmpq	$0, (%rbx)
	movq	%rcx, %rdi
	jne	.L129
.L114:
	addq	$1, __gcov0._ZNSt10_HashtableIySt4pairIKySt10unique_ptrIN8Polyfish11EndgameBaseINS3_11ScaleFactorEEESt14default_deleteIS6_EEESaISA_ENSt8__detail10_Select1stESt8equal_toIyESt4hashIyENSC_18_Mod_range_hashingENSC_20_Default_ranged_hashENSC_20_Prime_rehash_policyENSC_17_Hashtable_traitsILb0ELb0ELb1EEEE5clearEv(%rip)
	cmpq	$0, __gcov7._ZNSt10_HashtableIySt4pairIKySt10unique_ptrIN8Polyfish11EndgameBaseINS3_11ScaleFactorEEESt14default_deleteIS6_EEESaISA_ENSt8__detail10_Select1stESt8equal_toIyESt4hashIyENSC_18_Mod_range_hashingENSC_20_Default_ranged_hashENSC_20_Prime_rehash_policyENSC_17_Hashtable_traitsILb0ELb0ELb1EEEE5clearEv(%rip)
	je	.L130
.L115:
	movq	16(%rdi), %r12
	testq	%r12, %r12
	je	.L116
	movq	.refptr.__gcov_time_profiler_counter(%rip), %r13
	leaq	__gcov7._ZNSt8__detail16_Hashtable_allocISaINS_10_Hash_nodeISt4pairIKySt10unique_ptrIN8Polyfish11EndgameBaseINS5_11ScaleFactorEEESt14default_deleteIS8_EEELb0EEEEE18_M_deallocate_nodeEPSD_(%rip), %rsi
	leaq	_ZNSt8__detail16_Hashtable_allocISaINS_10_Hash_nodeISt4pairIKySt10unique_ptrIN8Polyfish11EndgameBaseINS5_11ScaleFactorEEESt14default_deleteIS8_EEELb0EEEEE18_M_deallocate_nodeEPSD_(%rip), %r14
	leaq	__gcov4._ZNSt8__detail16_Hashtable_allocISaINS_10_Hash_nodeISt4pairIKySt10unique_ptrIN8Polyfish11EndgameBaseINS5_11ScaleFactorEEESt14default_deleteIS8_EEELb0EEEEE18_M_deallocate_nodeEPSD_(%rip), %rbp
	jmp	.L121
	.p2align 4,,10
	.p2align 3
.L119:
	movq	(%rcx), %rax
	addq	$1, __gcov0._ZNSt8__detail16_Hashtable_allocISaINS_10_Hash_nodeISt4pairIKySt10unique_ptrIN8Polyfish11EndgameBaseINS5_11ScaleFactorEEESt14default_deleteIS8_EEELb0EEEEE18_M_deallocate_nodeEPSD_(%rip)
	movq	8(%rax), %rax
	movq	%rbp, 8(%rbx)
	movq	%rax, (%rbx)
	call	*%rax
	addq	$1, 16+__gcov0._ZNSt8__detail16_Hashtable_allocISaINS_10_Hash_nodeISt4pairIKySt10unique_ptrIN8Polyfish11EndgameBaseINS5_11ScaleFactorEEESt14default_deleteIS8_EEELb0EEEEE18_M_deallocate_nodeEPSD_(%rip)
.L128:
	movl	$24, %edx
	movq	%r12, %rcx
	call	_ZdlPvy
	addq	$1, 24+__gcov0._ZNSt8__detail16_Hashtable_allocISaINS_10_Hash_nodeISt4pairIKySt10unique_ptrIN8Polyfish11EndgameBaseINS5_11ScaleFactorEEESt14default_deleteIS8_EEELb0EEEEE18_M_deallocate_nodeEPSD_(%rip)
	testq	%r15, %r15
	je	.L116
	movq	%r15, %r12
.L121:
	addq	$1, 8+__gcov0._ZNSt10_HashtableIySt4pairIKySt10unique_ptrIN8Polyfish11EndgameBaseINS3_11ScaleFactorEEESt14default_deleteIS6_EEESaISA_ENSt8__detail10_Select1stESt8equal_toIyESt4hashIyENSC_18_Mod_range_hashingENSC_20_Default_ranged_hashENSC_20_Prime_rehash_policyENSC_17_Hashtable_traitsILb0ELb0ELb1EEEE5clearEv(%rip)
	cmpq	$0, (%rbx)
	movq	(%r12), %r15
	jne	.L131
.L117:
	cmpq	$0, (%rsi)
	je	.L132
.L118:
	movq	16(%r12), %rcx
	testq	%rcx, %rcx
	jne	.L119
	addq	$1, 8+__gcov0._ZNSt8__detail16_Hashtable_allocISaINS_10_Hash_nodeISt4pairIKySt10unique_ptrIN8Polyfish11EndgameBaseINS5_11ScaleFactorEEESt14default_deleteIS8_EEELb0EEEEE18_M_deallocate_nodeEPSD_(%rip)
	jmp	.L128
	.p2align 4,,10
	.p2align 3
.L132:
	movq	0(%r13), %rax
	addq	$1, %rax
	movq	%rax, (%rsi)
	movq	%rax, 0(%r13)
	jmp	.L118
	.p2align 4,,10
	.p2align 3
.L131:
	movq	%r14, %rdx
	movl	$467536611, %ecx
	call	__gcov_indirect_call_profiler_v4
	jmp	.L117
	.p2align 4,,10
	.p2align 3
.L116:
	movq	8(%rdi), %rax
	movq	(%rdi), %r12
	leaq	__gcov3._ZNSt10_HashtableIySt4pairIKySt10unique_ptrIN8Polyfish11EndgameBaseINS3_11ScaleFactorEEESt14default_deleteIS6_EEESaISA_ENSt8__detail10_Select1stESt8equal_toIyESt4hashIyENSC_18_Mod_range_hashingENSC_20_Default_ranged_hashENSC_20_Prime_rehash_policyENSC_17_Hashtable_traitsILb0ELb0ELb1EEEE5clearEv(%rip), %rcx
	addq	$1, 16+__gcov0._ZNSt10_HashtableIySt4pairIKySt10unique_ptrIN8Polyfish11EndgameBaseINS3_11ScaleFactorEEESt14default_deleteIS6_EEESaISA_ENSt8__detail10_Select1stESt8equal_toIyESt4hashIyENSC_18_Mod_range_hashingENSC_20_Default_ranged_hashENSC_20_Prime_rehash_policyENSC_17_Hashtable_traitsILb0ELb0ELb1EEEE5clearEv(%rip)
	leaq	0(,%rax,8), %rbx
	movq	%rbx, %rdx
	call	__gcov_topn_values_profiler
	movq	%rbx, %rdx
	leaq	__gcov5._ZNSt10_HashtableIySt4pairIKySt10unique_ptrIN8Polyfish11EndgameBaseINS3_11ScaleFactorEEESt14default_deleteIS6_EEESaISA_ENSt8__detail10_Select1stESt8equal_toIyESt4hashIyENSC_18_Mod_range_hashingENSC_20_Default_ranged_hashENSC_20_Prime_rehash_policyENSC_17_Hashtable_traitsILb0ELb0ELb1EEEE5clearEv(%rip), %rcx
	call	__gcov_average_profiler
	movq	%r12, %rdx
	leaq	__gcov6._ZNSt10_HashtableIySt4pairIKySt10unique_ptrIN8Polyfish11EndgameBaseINS3_11ScaleFactorEEESt14default_deleteIS6_EEESaISA_ENSt8__detail10_Select1stESt8equal_toIyESt4hashIyENSC_18_Mod_range_hashingENSC_20_Default_ranged_hashENSC_20_Prime_rehash_policyENSC_17_Hashtable_traitsILb0ELb0ELb1EEEE5clearEv(%rip), %rcx
	call	__gcov_ior_profiler
	movq	%rbx, %r8
	xorl	%edx, %edx
	movq	%r12, %rcx
	call	memset
	movq	$0, 24(%rdi)
	movq	$0, 16(%rdi)
	addq	$40, %rsp
	popq	%rbx
	popq	%rsi
	popq	%rdi
	popq	%rbp
	popq	%r12
	popq	%r13
	popq	%r14
	popq	%r15
	ret
	.p2align 4,,10
	.p2align 3
.L129:
	leaq	_ZNSt10_HashtableIySt4pairIKySt10unique_ptrIN8Polyfish11EndgameBaseINS3_11ScaleFactorEEESt14default_deleteIS6_EEESaISA_ENSt8__detail10_Select1stESt8equal_toIyESt4hashIyENSC_18_Mod_range_hashingENSC_20_Default_ranged_hashENSC_20_Prime_rehash_policyENSC_17_Hashtable_traitsILb0ELb0ELb1EEEE5clearEv(%rip), %rdx
	movl	$1261526839, %ecx
	call	__gcov_indirect_call_profiler_v4
	jmp	.L114
	.p2align 4,,10
	.p2align 3
.L130:
	movq	.refptr.__gcov_time_profiler_counter(%rip), %rdx
	movq	(%rdx), %rax
	addq	$1, %rax
	movq	%rax, __gcov7._ZNSt10_HashtableIySt4pairIKySt10unique_ptrIN8Polyfish11EndgameBaseINS3_11ScaleFactorEEESt14default_deleteIS6_EEESaISA_ENSt8__detail10_Select1stESt8equal_toIyESt4hashIyENSC_18_Mod_range_hashingENSC_20_Default_ranged_hashENSC_20_Prime_rehash_policyENSC_17_Hashtable_traitsILb0ELb0ELb1EEEE5clearEv(%rip)
	movq	%rax, (%rdx)
	jmp	.L115
	.seh_endproc
	.align 2
	.p2align 4
	.globl	_ZN8Polyfish7EndgameILNS_11EndgameCodeE20ENS_11ScaleFactorEED0Ev
	.def	_ZN8Polyfish7EndgameILNS_11EndgameCodeE20ENS_11ScaleFactorEED0Ev;	.scl	2;	.type	32;	.endef
	.seh_proc	_ZN8Polyfish7EndgameILNS_11EndgameCodeE20ENS_11ScaleFactorEED0Ev
_ZN8Polyfish7EndgameILNS_11EndgameCodeE20ENS_11ScaleFactorEED0Ev:
	pushq	%r12
	.seh_pushreg	%r12
	subq	$32, %rsp
	.seh_stackalloc	32
	.seh_endprologue
	movq	.refptr.__gcov_indirect_call(%rip), %rax
	cmpq	$0, (%rax)
	movq	%rcx, %r12
	je	.L134
	leaq	_ZN8Polyfish7EndgameILNS_11EndgameCodeE20ENS_11ScaleFactorEED0Ev(%rip), %rdx
	movl	$2119799339, %ecx
	call	__gcov_indirect_call_profiler_v4
.L134:
	addq	$1, __gcov0._ZN8Polyfish7EndgameILNS_11EndgameCodeE20ENS_11ScaleFactorEED0Ev(%rip)
	cmpq	$0, __gcov7._ZN8Polyfish7EndgameILNS_11EndgameCodeE20ENS_11ScaleFactorEED0Ev(%rip)
	jne	.L135
	movq	.refptr.__gcov_time_profiler_counter(%rip), %rdx
	movq	(%rdx), %rax
	addq	$1, %rax
	movq	%rax, __gcov7._ZN8Polyfish7EndgameILNS_11EndgameCodeE20ENS_11ScaleFactorEED0Ev(%rip)
	movq	%rax, (%rdx)
.L135:
	movl	$16, %edx
	movq	%r12, %rcx
	call	_ZdlPvy
	addq	$1, 8+__gcov0._ZN8Polyfish7EndgameILNS_11EndgameCodeE20ENS_11ScaleFactorEED0Ev(%rip)
	addq	$32, %rsp
	popq	%r12
	ret
	.seh_endproc
	.align 2
	.p2align 4
	.globl	_ZN8Polyfish7EndgameILNS_11EndgameCodeE19ENS_11ScaleFactorEED0Ev
	.def	_ZN8Polyfish7EndgameILNS_11EndgameCodeE19ENS_11ScaleFactorEED0Ev;	.scl	2;	.type	32;	.endef
	.seh_proc	_ZN8Polyfish7EndgameILNS_11EndgameCodeE19ENS_11ScaleFactorEED0Ev
_ZN8Polyfish7EndgameILNS_11EndgameCodeE19ENS_11ScaleFactorEED0Ev:
	pushq	%r12
	.seh_pushreg	%r12
	subq	$32, %rsp
	.seh_stackalloc	32
	.seh_endprologue
	movq	.refptr.__gcov_indirect_call(%rip), %rax
	cmpq	$0, (%rax)
	movq	%rcx, %r12
	je	.L137
	leaq	_ZN8Polyfish7EndgameILNS_11EndgameCodeE19ENS_11ScaleFactorEED0Ev(%rip), %rdx
	movl	$1640290029, %ecx
	call	__gcov_indirect_call_profiler_v4
.L137:
	addq	$1, __gcov0._ZN8Polyfish7EndgameILNS_11EndgameCodeE19ENS_11ScaleFactorEED0Ev(%rip)
	cmpq	$0, __gcov7._ZN8Polyfish7EndgameILNS_11EndgameCodeE19ENS_11ScaleFactorEED0Ev(%rip)
	jne	.L138
	movq	.refptr.__gcov_time_profiler_counter(%rip), %rdx
	movq	(%rdx), %rax
	addq	$1, %rax
	movq	%rax, __gcov7._ZN8Polyfish7EndgameILNS_11EndgameCodeE19ENS_11ScaleFactorEED0Ev(%rip)
	movq	%rax, (%rdx)
.L138:
	movl	$16, %edx
	movq	%r12, %rcx
	call	_ZdlPvy
	addq	$1, 8+__gcov0._ZN8Polyfish7EndgameILNS_11EndgameCodeE19ENS_11ScaleFactorEED0Ev(%rip)
	addq	$32, %rsp
	popq	%r12
	ret
	.seh_endproc
	.align 2
	.p2align 4
	.globl	_ZN8Polyfish7EndgameILNS_11EndgameCodeE18ENS_11ScaleFactorEED0Ev
	.def	_ZN8Polyfish7EndgameILNS_11EndgameCodeE18ENS_11ScaleFactorEED0Ev;	.scl	2;	.type	32;	.endef
	.seh_proc	_ZN8Polyfish7EndgameILNS_11EndgameCodeE18ENS_11ScaleFactorEED0Ev
_ZN8Polyfish7EndgameILNS_11EndgameCodeE18ENS_11ScaleFactorEED0Ev:
	pushq	%r12
	.seh_pushreg	%r12
	subq	$32, %rsp
	.seh_stackalloc	32
	.seh_endprologue
	movq	.refptr.__gcov_indirect_call(%rip), %rax
	cmpq	$0, (%rax)
	movq	%rcx, %r12
	je	.L140
	leaq	_ZN8Polyfish7EndgameILNS_11EndgameCodeE18ENS_11ScaleFactorEED0Ev(%rip), %rdx
	movl	$742949464, %ecx
	call	__gcov_indirect_call_profiler_v4
.L140:
	addq	$1, __gcov0._ZN8Polyfish7EndgameILNS_11EndgameCodeE18ENS_11ScaleFactorEED0Ev(%rip)
	cmpq	$0, __gcov7._ZN8Polyfish7EndgameILNS_11EndgameCodeE18ENS_11ScaleFactorEED0Ev(%rip)
	jne	.L141
	movq	.refptr.__gcov_time_profiler_counter(%rip), %rdx
	movq	(%rdx), %rax
	addq	$1, %rax
	movq	%rax, __gcov7._ZN8Polyfish7EndgameILNS_11EndgameCodeE18ENS_11ScaleFactorEED0Ev(%rip)
	movq	%rax, (%rdx)
.L141:
	movl	$16, %edx
	movq	%r12, %rcx
	call	_ZdlPvy
	addq	$1, 8+__gcov0._ZN8Polyfish7EndgameILNS_11EndgameCodeE18ENS_11ScaleFactorEED0Ev(%rip)
	addq	$32, %rsp
	popq	%r12
	ret
	.seh_endproc
	.align 2
	.p2align 4
	.def	_ZN8Polyfish7EndgameILNS_11EndgameCodeE16ENS_11ScaleFactorEED0Ev;	.scl	3;	.type	32;	.endef
	.seh_proc	_ZN8Polyfish7EndgameILNS_11EndgameCodeE16ENS_11ScaleFactorEED0Ev
_ZN8Polyfish7EndgameILNS_11EndgameCodeE16ENS_11ScaleFactorEED0Ev:
	pushq	%r12
	.seh_pushreg	%r12
	subq	$32, %rsp
	.seh_stackalloc	32
	.seh_endprologue
	movq	.refptr.__gcov_indirect_call(%rip), %rax
	cmpq	$0, (%rax)
	movq	%rcx, %r12
	je	.L143
	leaq	_ZN8Polyfish7EndgameILNS_11EndgameCodeE16ENS_11ScaleFactorEED0Ev(%rip), %rdx
	movl	$2114431634, %ecx
	call	__gcov_indirect_call_profiler_v4
.L143:
	addq	$1, __gcov0._ZN8Polyfish7EndgameILNS_11EndgameCodeE16ENS_11ScaleFactorEED0Ev(%rip)
	cmpq	$0, __gcov7._ZN8Polyfish7EndgameILNS_11EndgameCodeE16ENS_11ScaleFactorEED0Ev(%rip)
	jne	.L144
	movq	.refptr.__gcov_time_profiler_counter(%rip), %rdx
	movq	(%rdx), %rax
	addq	$1, %rax
	movq	%rax, __gcov7._ZN8Polyfish7EndgameILNS_11EndgameCodeE16ENS_11ScaleFactorEED0Ev(%rip)
	movq	%rax, (%rdx)
.L144:
	movl	$16, %edx
	movq	%r12, %rcx
	call	_ZdlPvy
	addq	$1, 8+__gcov0._ZN8Polyfish7EndgameILNS_11EndgameCodeE16ENS_11ScaleFactorEED0Ev(%rip)
	addq	$32, %rsp
	popq	%r12
	ret
	.seh_endproc
	.align 2
	.p2align 4
	.globl	_ZN8Polyfish7EndgameILNS_11EndgameCodeE15ENS_11ScaleFactorEED0Ev
	.def	_ZN8Polyfish7EndgameILNS_11EndgameCodeE15ENS_11ScaleFactorEED0Ev;	.scl	2;	.type	32;	.endef
	.seh_proc	_ZN8Polyfish7EndgameILNS_11EndgameCodeE15ENS_11ScaleFactorEED0Ev
_ZN8Polyfish7EndgameILNS_11EndgameCodeE15ENS_11ScaleFactorEED0Ev:
	pushq	%r12
	.seh_pushreg	%r12
	subq	$32, %rsp
	.seh_stackalloc	32
	.seh_endprologue
	movq	.refptr.__gcov_indirect_call(%rip), %rax
	cmpq	$0, (%rax)
	movq	%rcx, %r12
	je	.L146
	leaq	_ZN8Polyfish7EndgameILNS_11EndgameCodeE15ENS_11ScaleFactorEED0Ev(%rip), %rdx
	movl	$743590650, %ecx
	call	__gcov_indirect_call_profiler_v4
.L146:
	addq	$1, __gcov0._ZN8Polyfish7EndgameILNS_11EndgameCodeE15ENS_11ScaleFactorEED0Ev(%rip)
	cmpq	$0, __gcov7._ZN8Polyfish7EndgameILNS_11EndgameCodeE15ENS_11ScaleFactorEED0Ev(%rip)
	jne	.L147
	movq	.refptr.__gcov_time_profiler_counter(%rip), %rdx
	movq	(%rdx), %rax
	addq	$1, %rax
	movq	%rax, __gcov7._ZN8Polyfish7EndgameILNS_11EndgameCodeE15ENS_11ScaleFactorEED0Ev(%rip)
	movq	%rax, (%rdx)
.L147:
	movl	$16, %edx
	movq	%r12, %rcx
	call	_ZdlPvy
	addq	$1, 8+__gcov0._ZN8Polyfish7EndgameILNS_11EndgameCodeE15ENS_11ScaleFactorEED0Ev(%rip)
	addq	$32, %rsp
	popq	%r12
	ret
	.seh_endproc
	.align 2
	.p2align 4
	.globl	_ZN8Polyfish7EndgameILNS_11EndgameCodeE14ENS_11ScaleFactorEED0Ev
	.def	_ZN8Polyfish7EndgameILNS_11EndgameCodeE14ENS_11ScaleFactorEED0Ev;	.scl	2;	.type	32;	.endef
	.seh_proc	_ZN8Polyfish7EndgameILNS_11EndgameCodeE14ENS_11ScaleFactorEED0Ev
_ZN8Polyfish7EndgameILNS_11EndgameCodeE14ENS_11ScaleFactorEED0Ev:
	pushq	%r12
	.seh_pushreg	%r12
	subq	$32, %rsp
	.seh_stackalloc	32
	.seh_endprologue
	movq	.refptr.__gcov_indirect_call(%rip), %rax
	cmpq	$0, (%rax)
	movq	%rcx, %r12
	je	.L149
	leaq	_ZN8Polyfish7EndgameILNS_11EndgameCodeE14ENS_11ScaleFactorEED0Ev(%rip), %rdx
	movl	$1641946703, %ecx
	call	__gcov_indirect_call_profiler_v4
.L149:
	addq	$1, __gcov0._ZN8Polyfish7EndgameILNS_11EndgameCodeE14ENS_11ScaleFactorEED0Ev(%rip)
	cmpq	$0, __gcov7._ZN8Polyfish7EndgameILNS_11EndgameCodeE14ENS_11ScaleFactorEED0Ev(%rip)
	jne	.L150
	movq	.refptr.__gcov_time_profiler_counter(%rip), %rdx
	movq	(%rdx), %rax
	addq	$1, %rax
	movq	%rax, __gcov7._ZN8Polyfish7EndgameILNS_11EndgameCodeE14ENS_11ScaleFactorEED0Ev(%rip)
	movq	%rax, (%rdx)
.L150:
	movl	$16, %edx
	movq	%r12, %rcx
	call	_ZdlPvy
	addq	$1, 8+__gcov0._ZN8Polyfish7EndgameILNS_11EndgameCodeE14ENS_11ScaleFactorEED0Ev(%rip)
	addq	$32, %rsp
	popq	%r12
	ret
	.seh_endproc
	.align 2
	.p2align 4
	.globl	_ZN8Polyfish7EndgameILNS_11EndgameCodeE1ENS_5ValueEED0Ev
	.def	_ZN8Polyfish7EndgameILNS_11EndgameCodeE1ENS_5ValueEED0Ev;	.scl	2;	.type	32;	.endef
	.seh_proc	_ZN8Polyfish7EndgameILNS_11EndgameCodeE1ENS_5ValueEED0Ev
_ZN8Polyfish7EndgameILNS_11EndgameCodeE1ENS_5ValueEED0Ev:
	pushq	%r12
	.seh_pushreg	%r12
	subq	$32, %rsp
	.seh_stackalloc	32
	.seh_endprologue
	movq	.refptr.__gcov_indirect_call(%rip), %rax
	cmpq	$0, (%rax)
	movq	%rcx, %r12
	je	.L152
	leaq	_ZN8Polyfish7EndgameILNS_11EndgameCodeE1ENS_5ValueEED0Ev(%rip), %rdx
	movl	$380776027, %ecx
	call	__gcov_indirect_call_profiler_v4
.L152:
	addq	$1, __gcov0._ZN8Polyfish7EndgameILNS_11EndgameCodeE1ENS_5ValueEED0Ev(%rip)
	cmpq	$0, __gcov7._ZN8Polyfish7EndgameILNS_11EndgameCodeE1ENS_5ValueEED0Ev(%rip)
	jne	.L153
	movq	.refptr.__gcov_time_profiler_counter(%rip), %rdx
	movq	(%rdx), %rax
	addq	$1, %rax
	movq	%rax, __gcov7._ZN8Polyfish7EndgameILNS_11EndgameCodeE1ENS_5ValueEED0Ev(%rip)
	movq	%rax, (%rdx)
.L153:
	movl	$16, %edx
	movq	%r12, %rcx
	call	_ZdlPvy
	addq	$1, 8+__gcov0._ZN8Polyfish7EndgameILNS_11EndgameCodeE1ENS_5ValueEED0Ev(%rip)
	addq	$32, %rsp
	popq	%r12
	ret
	.seh_endproc
	.align 2
	.p2align 4
	.globl	_ZN8Polyfish7EndgameILNS_11EndgameCodeE2ENS_5ValueEED0Ev
	.def	_ZN8Polyfish7EndgameILNS_11EndgameCodeE2ENS_5ValueEED0Ev;	.scl	2;	.type	32;	.endef
	.seh_proc	_ZN8Polyfish7EndgameILNS_11EndgameCodeE2ENS_5ValueEED0Ev
_ZN8Polyfish7EndgameILNS_11EndgameCodeE2ENS_5ValueEED0Ev:
	pushq	%r12
	.seh_pushreg	%r12
	subq	$32, %rsp
	.seh_stackalloc	32
	.seh_endprologue
	movq	.refptr.__gcov_indirect_call(%rip), %rax
	cmpq	$0, (%rax)
	movq	%rcx, %r12
	je	.L155
	leaq	_ZN8Polyfish7EndgameILNS_11EndgameCodeE2ENS_5ValueEED0Ev(%rip), %rdx
	movl	$299583859, %ecx
	call	__gcov_indirect_call_profiler_v4
.L155:
	addq	$1, __gcov0._ZN8Polyfish7EndgameILNS_11EndgameCodeE2ENS_5ValueEED0Ev(%rip)
	cmpq	$0, __gcov7._ZN8Polyfish7EndgameILNS_11EndgameCodeE2ENS_5ValueEED0Ev(%rip)
	jne	.L156
	movq	.refptr.__gcov_time_profiler_counter(%rip), %rdx
	movq	(%rdx), %rax
	addq	$1, %rax
	movq	%rax, __gcov7._ZN8Polyfish7EndgameILNS_11EndgameCodeE2ENS_5ValueEED0Ev(%rip)
	movq	%rax, (%rdx)
.L156:
	movl	$16, %edx
	movq	%r12, %rcx
	call	_ZdlPvy
	addq	$1, 8+__gcov0._ZN8Polyfish7EndgameILNS_11EndgameCodeE2ENS_5ValueEED0Ev(%rip)
	addq	$32, %rsp
	popq	%r12
	ret
	.seh_endproc
	.align 2
	.p2align 4
	.globl	_ZN8Polyfish7EndgameILNS_11EndgameCodeE10ENS_5ValueEED0Ev
	.def	_ZN8Polyfish7EndgameILNS_11EndgameCodeE10ENS_5ValueEED0Ev;	.scl	2;	.type	32;	.endef
	.seh_proc	_ZN8Polyfish7EndgameILNS_11EndgameCodeE10ENS_5ValueEED0Ev
_ZN8Polyfish7EndgameILNS_11EndgameCodeE10ENS_5ValueEED0Ev:
	pushq	%r12
	.seh_pushreg	%r12
	subq	$32, %rsp
	.seh_stackalloc	32
	.seh_endprologue
	movq	.refptr.__gcov_indirect_call(%rip), %rax
	cmpq	$0, (%rax)
	movq	%rcx, %r12
	je	.L158
	leaq	_ZN8Polyfish7EndgameILNS_11EndgameCodeE10ENS_5ValueEED0Ev(%rip), %rdx
	movl	$1957719582, %ecx
	call	__gcov_indirect_call_profiler_v4
.L158:
	addq	$1, __gcov0._ZN8Polyfish7EndgameILNS_11EndgameCodeE10ENS_5ValueEED0Ev(%rip)
	cmpq	$0, __gcov7._ZN8Polyfish7EndgameILNS_11EndgameCodeE10ENS_5ValueEED0Ev(%rip)
	jne	.L159
	movq	.refptr.__gcov_time_profiler_counter(%rip), %rdx
	movq	(%rdx), %rax
	addq	$1, %rax
	movq	%rax, __gcov7._ZN8Polyfish7EndgameILNS_11EndgameCodeE10ENS_5ValueEED0Ev(%rip)
	movq	%rax, (%rdx)
.L159:
	movl	$16, %edx
	movq	%r12, %rcx
	call	_ZdlPvy
	addq	$1, 8+__gcov0._ZN8Polyfish7EndgameILNS_11EndgameCodeE10ENS_5ValueEED0Ev(%rip)
	addq	$32, %rsp
	popq	%r12
	ret
	.seh_endproc
	.align 2
	.p2align 4
	.globl	_ZN8Polyfish7EndgameILNS_11EndgameCodeE9ENS_5ValueEED0Ev
	.def	_ZN8Polyfish7EndgameILNS_11EndgameCodeE9ENS_5ValueEED0Ev;	.scl	2;	.type	32;	.endef
	.seh_proc	_ZN8Polyfish7EndgameILNS_11EndgameCodeE9ENS_5ValueEED0Ev
_ZN8Polyfish7EndgameILNS_11EndgameCodeE9ENS_5ValueEED0Ev:
	pushq	%r12
	.seh_pushreg	%r12
	subq	$32, %rsp
	.seh_stackalloc	32
	.seh_endprologue
	movq	.refptr.__gcov_indirect_call(%rip), %rax
	cmpq	$0, (%rax)
	movq	%rcx, %r12
	je	.L161
	leaq	_ZN8Polyfish7EndgameILNS_11EndgameCodeE9ENS_5ValueEED0Ev(%rip), %rdx
	movl	$243854127, %ecx
	call	__gcov_indirect_call_profiler_v4
.L161:
	addq	$1, __gcov0._ZN8Polyfish7EndgameILNS_11EndgameCodeE9ENS_5ValueEED0Ev(%rip)
	cmpq	$0, __gcov7._ZN8Polyfish7EndgameILNS_11EndgameCodeE9ENS_5ValueEED0Ev(%rip)
	jne	.L162
	movq	.refptr.__gcov_time_profiler_counter(%rip), %rdx
	movq	(%rdx), %rax
	addq	$1, %rax
	movq	%rax, __gcov7._ZN8Polyfish7EndgameILNS_11EndgameCodeE9ENS_5ValueEED0Ev(%rip)
	movq	%rax, (%rdx)
.L162:
	movl	$16, %edx
	movq	%r12, %rcx
	call	_ZdlPvy
	addq	$1, 8+__gcov0._ZN8Polyfish7EndgameILNS_11EndgameCodeE9ENS_5ValueEED0Ev(%rip)
	addq	$32, %rsp
	popq	%r12
	ret
	.seh_endproc
	.align 2
	.p2align 4
	.globl	_ZN8Polyfish7EndgameILNS_11EndgameCodeE8ENS_5ValueEED0Ev
	.def	_ZN8Polyfish7EndgameILNS_11EndgameCodeE8ENS_5ValueEED0Ev;	.scl	2;	.type	32;	.endef
	.seh_proc	_ZN8Polyfish7EndgameILNS_11EndgameCodeE8ENS_5ValueEED0Ev
_ZN8Polyfish7EndgameILNS_11EndgameCodeE8ENS_5ValueEED0Ev:
	pushq	%r12
	.seh_pushreg	%r12
	subq	$32, %rsp
	.seh_stackalloc	32
	.seh_endprologue
	movq	.refptr.__gcov_indirect_call(%rip), %rax
	cmpq	$0, (%rax)
	movq	%rcx, %r12
	je	.L164
	leaq	_ZN8Polyfish7EndgameILNS_11EndgameCodeE8ENS_5ValueEED0Ev(%rip), %rdx
	movl	$267337050, %ecx
	call	__gcov_indirect_call_profiler_v4
.L164:
	addq	$1, __gcov0._ZN8Polyfish7EndgameILNS_11EndgameCodeE8ENS_5ValueEED0Ev(%rip)
	cmpq	$0, __gcov7._ZN8Polyfish7EndgameILNS_11EndgameCodeE8ENS_5ValueEED0Ev(%rip)
	jne	.L165
	movq	.refptr.__gcov_time_profiler_counter(%rip), %rdx
	movq	(%rdx), %rax
	addq	$1, %rax
	movq	%rax, __gcov7._ZN8Polyfish7EndgameILNS_11EndgameCodeE8ENS_5ValueEED0Ev(%rip)
	movq	%rax, (%rdx)
.L165:
	movl	$16, %edx
	movq	%r12, %rcx
	call	_ZdlPvy
	addq	$1, 8+__gcov0._ZN8Polyfish7EndgameILNS_11EndgameCodeE8ENS_5ValueEED0Ev(%rip)
	addq	$32, %rsp
	popq	%r12
	ret
	.seh_endproc
	.align 2
	.p2align 4
	.globl	_ZN8Polyfish7EndgameILNS_11EndgameCodeE7ENS_5ValueEED0Ev
	.def	_ZN8Polyfish7EndgameILNS_11EndgameCodeE7ENS_5ValueEED0Ev;	.scl	2;	.type	32;	.endef
	.seh_proc	_ZN8Polyfish7EndgameILNS_11EndgameCodeE7ENS_5ValueEED0Ev
_ZN8Polyfish7EndgameILNS_11EndgameCodeE7ENS_5ValueEED0Ev:
	pushq	%r12
	.seh_pushreg	%r12
	subq	$32, %rsp
	.seh_stackalloc	32
	.seh_endprologue
	movq	.refptr.__gcov_indirect_call(%rip), %rax
	cmpq	$0, (%rax)
	movq	%rcx, %r12
	je	.L167
	leaq	_ZN8Polyfish7EndgameILNS_11EndgameCodeE7ENS_5ValueEED0Ev(%rip), %rdx
	movl	$480378300, %ecx
	call	__gcov_indirect_call_profiler_v4
.L167:
	addq	$1, __gcov0._ZN8Polyfish7EndgameILNS_11EndgameCodeE7ENS_5ValueEED0Ev(%rip)
	cmpq	$0, __gcov7._ZN8Polyfish7EndgameILNS_11EndgameCodeE7ENS_5ValueEED0Ev(%rip)
	jne	.L168
	movq	.refptr.__gcov_time_profiler_counter(%rip), %rdx
	movq	(%rdx), %rax
	addq	$1, %rax
	movq	%rax, __gcov7._ZN8Polyfish7EndgameILNS_11EndgameCodeE7ENS_5ValueEED0Ev(%rip)
	movq	%rax, (%rdx)
.L168:
	movl	$16, %edx
	movq	%r12, %rcx
	call	_ZdlPvy
	addq	$1, 8+__gcov0._ZN8Polyfish7EndgameILNS_11EndgameCodeE7ENS_5ValueEED0Ev(%rip)
	addq	$32, %rsp
	popq	%r12
	ret
	.seh_endproc
	.align 2
	.p2align 4
	.globl	_ZN8Polyfish7EndgameILNS_11EndgameCodeE6ENS_5ValueEED0Ev
	.def	_ZN8Polyfish7EndgameILNS_11EndgameCodeE6ENS_5ValueEED0Ev;	.scl	2;	.type	32;	.endef
	.seh_proc	_ZN8Polyfish7EndgameILNS_11EndgameCodeE6ENS_5ValueEED0Ev
_ZN8Polyfish7EndgameILNS_11EndgameCodeE6ENS_5ValueEED0Ev:
	pushq	%r12
	.seh_pushreg	%r12
	subq	$32, %rsp
	.seh_stackalloc	32
	.seh_endprologue
	movq	.refptr.__gcov_indirect_call(%rip), %rax
	cmpq	$0, (%rax)
	movq	%rcx, %r12
	je	.L170
	leaq	_ZN8Polyfish7EndgameILNS_11EndgameCodeE6ENS_5ValueEED0Ev(%rip), %rdx
	movl	$499526601, %ecx
	call	__gcov_indirect_call_profiler_v4
.L170:
	addq	$1, __gcov0._ZN8Polyfish7EndgameILNS_11EndgameCodeE6ENS_5ValueEED0Ev(%rip)
	cmpq	$0, __gcov7._ZN8Polyfish7EndgameILNS_11EndgameCodeE6ENS_5ValueEED0Ev(%rip)
	jne	.L171
	movq	.refptr.__gcov_time_profiler_counter(%rip), %rdx
	movq	(%rdx), %rax
	addq	$1, %rax
	movq	%rax, __gcov7._ZN8Polyfish7EndgameILNS_11EndgameCodeE6ENS_5ValueEED0Ev(%rip)
	movq	%rax, (%rdx)
.L171:
	movl	$16, %edx
	movq	%r12, %rcx
	call	_ZdlPvy
	addq	$1, 8+__gcov0._ZN8Polyfish7EndgameILNS_11EndgameCodeE6ENS_5ValueEED0Ev(%rip)
	addq	$32, %rsp
	popq	%r12
	ret
	.seh_endproc
	.align 2
	.p2align 4
	.globl	_ZN8Polyfish7EndgameILNS_11EndgameCodeE5ENS_5ValueEED0Ev
	.def	_ZN8Polyfish7EndgameILNS_11EndgameCodeE5ENS_5ValueEED0Ev;	.scl	2;	.type	32;	.endef
	.seh_proc	_ZN8Polyfish7EndgameILNS_11EndgameCodeE5ENS_5ValueEED0Ev
_ZN8Polyfish7EndgameILNS_11EndgameCodeE5ENS_5ValueEED0Ev:
	pushq	%r12
	.seh_pushreg	%r12
	subq	$32, %rsp
	.seh_stackalloc	32
	.seh_endprologue
	movq	.refptr.__gcov_indirect_call(%rip), %rax
	cmpq	$0, (%rax)
	movq	%rcx, %r12
	je	.L173
	leaq	_ZN8Polyfish7EndgameILNS_11EndgameCodeE5ENS_5ValueEED0Ev(%rip), %rdx
	movl	$447696097, %ecx
	call	__gcov_indirect_call_profiler_v4
.L173:
	addq	$1, __gcov0._ZN8Polyfish7EndgameILNS_11EndgameCodeE5ENS_5ValueEED0Ev(%rip)
	cmpq	$0, __gcov7._ZN8Polyfish7EndgameILNS_11EndgameCodeE5ENS_5ValueEED0Ev(%rip)
	jne	.L174
	movq	.refptr.__gcov_time_profiler_counter(%rip), %rdx
	movq	(%rdx), %rax
	addq	$1, %rax
	movq	%rax, __gcov7._ZN8Polyfish7EndgameILNS_11EndgameCodeE5ENS_5ValueEED0Ev(%rip)
	movq	%rax, (%rdx)
.L174:
	movl	$16, %edx
	movq	%r12, %rcx
	call	_ZdlPvy
	addq	$1, 8+__gcov0._ZN8Polyfish7EndgameILNS_11EndgameCodeE5ENS_5ValueEED0Ev(%rip)
	addq	$32, %rsp
	popq	%r12
	ret
	.seh_endproc
	.align 2
	.p2align 4
	.globl	_ZN8Polyfish7EndgameILNS_11EndgameCodeE4ENS_5ValueEED0Ev
	.def	_ZN8Polyfish7EndgameILNS_11EndgameCodeE4ENS_5ValueEED0Ev;	.scl	2;	.type	32;	.endef
	.seh_proc	_ZN8Polyfish7EndgameILNS_11EndgameCodeE4ENS_5ValueEED0Ev
_ZN8Polyfish7EndgameILNS_11EndgameCodeE4ENS_5ValueEED0Ev:
	pushq	%r12
	.seh_pushreg	%r12
	subq	$32, %rsp
	.seh_stackalloc	32
	.seh_endprologue
	movq	.refptr.__gcov_indirect_call(%rip), %rax
	cmpq	$0, (%rax)
	movq	%rcx, %r12
	je	.L176
	leaq	_ZN8Polyfish7EndgameILNS_11EndgameCodeE4ENS_5ValueEED0Ev(%rip), %rdx
	movl	$466131604, %ecx
	call	__gcov_indirect_call_profiler_v4
.L176:
	addq	$1, __gcov0._ZN8Polyfish7EndgameILNS_11EndgameCodeE4ENS_5ValueEED0Ev(%rip)
	cmpq	$0, __gcov7._ZN8Polyfish7EndgameILNS_11EndgameCodeE4ENS_5ValueEED0Ev(%rip)
	jne	.L177
	movq	.refptr.__gcov_time_profiler_counter(%rip), %rdx
	movq	(%rdx), %rax
	addq	$1, %rax
	movq	%rax, __gcov7._ZN8Polyfish7EndgameILNS_11EndgameCodeE4ENS_5ValueEED0Ev(%rip)
	movq	%rax, (%rdx)
.L177:
	movl	$16, %edx
	movq	%r12, %rcx
	call	_ZdlPvy
	addq	$1, 8+__gcov0._ZN8Polyfish7EndgameILNS_11EndgameCodeE4ENS_5ValueEED0Ev(%rip)
	addq	$32, %rsp
	popq	%r12
	ret
	.seh_endproc
	.align 2
	.p2align 4
	.globl	_ZNKSt10_HashtableIySt4pairIKySt10unique_ptrIN8Polyfish11EndgameBaseINS3_5ValueEEESt14default_deleteIS6_EEESaISA_ENSt8__detail10_Select1stESt8equal_toIyESt4hashIyENSC_18_Mod_range_hashingENSC_20_Default_ranged_hashENSC_20_Prime_rehash_policyENSC_17_Hashtable_traitsILb0ELb0ELb1EEEE12_M_find_nodeEyRS1_y
	.def	_ZNKSt10_HashtableIySt4pairIKySt10unique_ptrIN8Polyfish11EndgameBaseINS3_5ValueEEESt14default_deleteIS6_EEESaISA_ENSt8__detail10_Select1stESt8equal_toIyESt4hashIyENSC_18_Mod_range_hashingENSC_20_Default_ranged_hashENSC_20_Prime_rehash_policyENSC_17_Hashtable_traitsILb0ELb0ELb1EEEE12_M_find_nodeEyRS1_y;	.scl	2;	.type	32;	.endef
	.seh_proc	_ZNKSt10_HashtableIySt4pairIKySt10unique_ptrIN8Polyfish11EndgameBaseINS3_5ValueEEESt14default_deleteIS6_EEESaISA_ENSt8__detail10_Select1stESt8equal_toIyESt4hashIyENSC_18_Mod_range_hashingENSC_20_Default_ranged_hashENSC_20_Prime_rehash_policyENSC_17_Hashtable_traitsILb0ELb0ELb1EEEE12_M_find_nodeEyRS1_y
_ZNKSt10_HashtableIySt4pairIKySt10unique_ptrIN8Polyfish11EndgameBaseINS3_5ValueEEESt14default_deleteIS6_EEESaISA_ENSt8__detail10_Select1stESt8equal_toIyESt4hashIyENSC_18_Mod_range_hashingENSC_20_Default_ranged_hashENSC_20_Prime_rehash_policyENSC_17_Hashtable_traitsILb0ELb0ELb1EEEE12_M_find_nodeEyRS1_y:
	pushq	%r15
	.seh_pushreg	%r15
	pushq	%r14
	.seh_pushreg	%r14
	pushq	%r13
	.seh_pushreg	%r13
	pushq	%r12
	.seh_pushreg	%r12
	pushq	%rbp
	.seh_pushreg	%rbp
	pushq	%rdi
	.seh_pushreg	%rdi
	pushq	%rsi
	.seh_pushreg	%rsi
	pushq	%rbx
	.seh_pushreg	%rbx
	subq	$40, %rsp
	.seh_stackalloc	40
	.seh_endprologue
	movq	.refptr.__gcov_indirect_call(%rip), %rax
	cmpq	$0, (%rax)
	movq	%rdx, 120(%rsp)
	movq	%rcx, %rbp
	movq	%r8, %r13
	je	.L179
	leaq	_ZNKSt10_HashtableIySt4pairIKySt10unique_ptrIN8Polyfish11EndgameBaseINS3_5ValueEEESt14default_deleteIS6_EEESaISA_ENSt8__detail10_Select1stESt8equal_toIyESt4hashIyENSC_18_Mod_range_hashingENSC_20_Default_ranged_hashENSC_20_Prime_rehash_policyENSC_17_Hashtable_traitsILb0ELb0ELb1EEEE12_M_find_nodeEyRS1_y(%rip), %rdx
	movl	$308226615, %ecx
	call	__gcov_indirect_call_profiler_v4
.L179:
	cmpq	$0, __gcov7._ZNKSt10_HashtableIySt4pairIKySt10unique_ptrIN8Polyfish11EndgameBaseINS3_5ValueEEESt14default_deleteIS6_EEESaISA_ENSt8__detail10_Select1stESt8equal_toIyESt4hashIyENSC_18_Mod_range_hashingENSC_20_Default_ranged_hashENSC_20_Prime_rehash_policyENSC_17_Hashtable_traitsILb0ELb0ELb1EEEE12_M_find_nodeEyRS1_y.lto_priv.0(%rip)
	jne	.L180
	movq	.refptr.__gcov_time_profiler_counter(%rip), %rdx
	movq	(%rdx), %rax
	addq	$1, %rax
	movq	%rax, __gcov7._ZNKSt10_HashtableIySt4pairIKySt10unique_ptrIN8Polyfish11EndgameBaseINS3_5ValueEEESt14default_deleteIS6_EEESaISA_ENSt8__detail10_Select1stESt8equal_toIyESt4hashIyENSC_18_Mod_range_hashingENSC_20_Default_ranged_hashENSC_20_Prime_rehash_policyENSC_17_Hashtable_traitsILb0ELb0ELb1EEEE12_M_find_nodeEyRS1_y.lto_priv.0(%rip)
	movq	%rax, (%rdx)
.L180:
	movq	0(%rbp), %rax
	movq	120(%rsp), %rdi
	movq	(%rax,%rdi,8), %rax
	testq	%rax, %rax
	je	.L188
	movq	(%rax), %rbx
	leaq	__gcov3._ZNKSt10_HashtableIySt4pairIKySt10unique_ptrIN8Polyfish11EndgameBaseINS3_5ValueEEESt14default_deleteIS6_EEESaISA_ENSt8__detail10_Select1stESt8equal_toIyESt4hashIyENSC_18_Mod_range_hashingENSC_20_Default_ranged_hashENSC_20_Prime_rehash_policyENSC_17_Hashtable_traitsILb0ELb0ELb1EEEE12_M_find_nodeEyRS1_y.lto_priv.0(%rip), %r10
	leaq	__gcov2._ZNKSt10_HashtableIySt4pairIKySt10unique_ptrIN8Polyfish11EndgameBaseINS3_5ValueEEESt14default_deleteIS6_EEESaISA_ENSt8__detail10_Select1stESt8equal_toIyESt4hashIyENSC_18_Mod_range_hashingENSC_20_Default_ranged_hashENSC_20_Prime_rehash_policyENSC_17_Hashtable_traitsILb0ELb0ELb1EEEE12_M_find_nodeEyRS1_y.lto_priv.0(%rip), %r15
	leaq	__gcov1._ZNKSt10_HashtableIySt4pairIKySt10unique_ptrIN8Polyfish11EndgameBaseINS3_5ValueEEESt14default_deleteIS6_EEESaISA_ENSt8__detail10_Select1stESt8equal_toIyESt4hashIyENSC_18_Mod_range_hashingENSC_20_Default_ranged_hashENSC_20_Prime_rehash_policyENSC_17_Hashtable_traitsILb0ELb0ELb1EEEE12_M_find_nodeEyRS1_y.lto_priv.0(%rip), %r14
	movq	8(%rbx), %rsi
	cmpq	%rsi, 0(%r13)
	je	.L183
.L191:
	movq	(%rbx), %rdi
	testq	%rdi, %rdi
	je	.L189
	movq	8(%rbp), %r12
	movq	%r10, %rcx
	movq	8(%rdi), %rsi
	addq	$1, 16+__gcov0._ZNKSt10_HashtableIySt4pairIKySt10unique_ptrIN8Polyfish11EndgameBaseINS3_5ValueEEESt14default_deleteIS6_EEESaISA_ENSt8__detail10_Select1stESt8equal_toIyESt4hashIyENSC_18_Mod_range_hashingENSC_20_Default_ranged_hashENSC_20_Prime_rehash_policyENSC_17_Hashtable_traitsILb0ELb0ELb1EEEE12_M_find_nodeEyRS1_y.lto_priv.0(%rip)
	movq	%r12, %rdx
	call	__gcov_topn_values_profiler
	movq	%r12, %rdx
	movq	%r15, %rcx
	call	__gcov_pow2_profiler
	movq	%rsi, %rax
	xorl	%edx, %edx
	xorl	%r8d, %r8d
	divq	%r12
	movl	$2, %r9d
	movq	%r14, %rcx
	movq	%rdx, %rsi
	movq	%rax, %rdx
	call	__gcov_interval_profiler
	cmpq	%rsi, 120(%rsp)
	movq	%rbx, %rax
	leaq	__gcov3._ZNKSt10_HashtableIySt4pairIKySt10unique_ptrIN8Polyfish11EndgameBaseINS3_5ValueEEESt14default_deleteIS6_EEESaISA_ENSt8__detail10_Select1stESt8equal_toIyESt4hashIyENSC_18_Mod_range_hashingENSC_20_Default_ranged_hashENSC_20_Prime_rehash_policyENSC_17_Hashtable_traitsILb0ELb0ELb1EEEE12_M_find_nodeEyRS1_y.lto_priv.0(%rip), %r10
	jne	.L190
	movq	%rdi, %rbx
	movq	8(%rbx), %rsi
	cmpq	%rsi, 0(%r13)
	jne	.L191
.L183:
	addq	$1, 32+__gcov0._ZNKSt10_HashtableIySt4pairIKySt10unique_ptrIN8Polyfish11EndgameBaseINS3_5ValueEEESt14default_deleteIS6_EEESaISA_ENSt8__detail10_Select1stESt8equal_toIyESt4hashIyENSC_18_Mod_range_hashingENSC_20_Default_ranged_hashENSC_20_Prime_rehash_policyENSC_17_Hashtable_traitsILb0ELb0ELb1EEEE12_M_find_nodeEyRS1_y.lto_priv.0(%rip)
	movq	(%rax), %rax
.L178:
	addq	$40, %rsp
	popq	%rbx
	popq	%rsi
	popq	%rdi
	popq	%rbp
	popq	%r12
	popq	%r13
	popq	%r14
	popq	%r15
	ret
	.p2align 4,,10
	.p2align 3
.L188:
	addq	$1, __gcov0._ZNKSt10_HashtableIySt4pairIKySt10unique_ptrIN8Polyfish11EndgameBaseINS3_5ValueEEESt14default_deleteIS6_EEESaISA_ENSt8__detail10_Select1stESt8equal_toIyESt4hashIyENSC_18_Mod_range_hashingENSC_20_Default_ranged_hashENSC_20_Prime_rehash_policyENSC_17_Hashtable_traitsILb0ELb0ELb1EEEE12_M_find_nodeEyRS1_y.lto_priv.0(%rip)
	jmp	.L178
	.p2align 4,,10
	.p2align 3
.L189:
	addq	$1, 8+__gcov0._ZNKSt10_HashtableIySt4pairIKySt10unique_ptrIN8Polyfish11EndgameBaseINS3_5ValueEEESt14default_deleteIS6_EEESaISA_ENSt8__detail10_Select1stESt8equal_toIyESt4hashIyENSC_18_Mod_range_hashingENSC_20_Default_ranged_hashENSC_20_Prime_rehash_policyENSC_17_Hashtable_traitsILb0ELb0ELb1EEEE12_M_find_nodeEyRS1_y.lto_priv.0(%rip)
.L185:
	addq	$1, 40+__gcov0._ZNKSt10_HashtableIySt4pairIKySt10unique_ptrIN8Polyfish11EndgameBaseINS3_5ValueEEESt14default_deleteIS6_EEESaISA_ENSt8__detail10_Select1stESt8equal_toIyESt4hashIyENSC_18_Mod_range_hashingENSC_20_Default_ranged_hashENSC_20_Prime_rehash_policyENSC_17_Hashtable_traitsILb0ELb0ELb1EEEE12_M_find_nodeEyRS1_y.lto_priv.0(%rip)
	xorl	%eax, %eax
	jmp	.L178
	.p2align 4,,10
	.p2align 3
.L190:
	addq	$1, 24+__gcov0._ZNKSt10_HashtableIySt4pairIKySt10unique_ptrIN8Polyfish11EndgameBaseINS3_5ValueEEESt14default_deleteIS6_EEESaISA_ENSt8__detail10_Select1stESt8equal_toIyESt4hashIyENSC_18_Mod_range_hashingENSC_20_Default_ranged_hashENSC_20_Prime_rehash_policyENSC_17_Hashtable_traitsILb0ELb0ELb1EEEE12_M_find_nodeEyRS1_y.lto_priv.0(%rip)
	jmp	.L185
	.seh_endproc
	.align 2
	.p2align 4
	.globl	_ZNKSt10_HashtableIySt4pairIKySt10unique_ptrIN8Polyfish11EndgameBaseINS3_11ScaleFactorEEESt14default_deleteIS6_EEESaISA_ENSt8__detail10_Select1stESt8equal_toIyESt4hashIyENSC_18_Mod_range_hashingENSC_20_Default_ranged_hashENSC_20_Prime_rehash_policyENSC_17_Hashtable_traitsILb0ELb0ELb1EEEE12_M_find_nodeEyRS1_y
	.def	_ZNKSt10_HashtableIySt4pairIKySt10unique_ptrIN8Polyfish11EndgameBaseINS3_11ScaleFactorEEESt14default_deleteIS6_EEESaISA_ENSt8__detail10_Select1stESt8equal_toIyESt4hashIyENSC_18_Mod_range_hashingENSC_20_Default_ranged_hashENSC_20_Prime_rehash_policyENSC_17_Hashtable_traitsILb0ELb0ELb1EEEE12_M_find_nodeEyRS1_y;	.scl	2;	.type	32;	.endef
	.seh_proc	_ZNKSt10_HashtableIySt4pairIKySt10unique_ptrIN8Polyfish11EndgameBaseINS3_11ScaleFactorEEESt14default_deleteIS6_EEESaISA_ENSt8__detail10_Select1stESt8equal_toIyESt4hashIyENSC_18_Mod_range_hashingENSC_20_Default_ranged_hashENSC_20_Prime_rehash_policyENSC_17_Hashtable_traitsILb0ELb0ELb1EEEE12_M_find_nodeEyRS1_y
_ZNKSt10_HashtableIySt4pairIKySt10unique_ptrIN8Polyfish11EndgameBaseINS3_11ScaleFactorEEESt14default_deleteIS6_EEESaISA_ENSt8__detail10_Select1stESt8equal_toIyESt4hashIyENSC_18_Mod_range_hashingENSC_20_Default_ranged_hashENSC_20_Prime_rehash_policyENSC_17_Hashtable_traitsILb0ELb0ELb1EEEE12_M_find_nodeEyRS1_y:
	pushq	%r15
	.seh_pushreg	%r15
	pushq	%r14
	.seh_pushreg	%r14
	pushq	%r13
	.seh_pushreg	%r13
	pushq	%r12
	.seh_pushreg	%r12
	pushq	%rbp
	.seh_pushreg	%rbp
	pushq	%rdi
	.seh_pushreg	%rdi
	pushq	%rsi
	.seh_pushreg	%rsi
	pushq	%rbx
	.seh_pushreg	%rbx
	subq	$40, %rsp
	.seh_stackalloc	40
	.seh_endprologue
	movq	.refptr.__gcov_indirect_call(%rip), %rax
	cmpq	$0, (%rax)
	movq	%rdx, 120(%rsp)
	movq	%rcx, %rbp
	movq	%r8, %r13
	je	.L193
	leaq	_ZNKSt10_HashtableIySt4pairIKySt10unique_ptrIN8Polyfish11EndgameBaseINS3_11ScaleFactorEEESt14default_deleteIS6_EEESaISA_ENSt8__detail10_Select1stESt8equal_toIyESt4hashIyENSC_18_Mod_range_hashingENSC_20_Default_ranged_hashENSC_20_Prime_rehash_policyENSC_17_Hashtable_traitsILb0ELb0ELb1EEEE12_M_find_nodeEyRS1_y(%rip), %rdx
	movl	$1144836083, %ecx
	call	__gcov_indirect_call_profiler_v4
.L193:
	cmpq	$0, __gcov7._ZNKSt10_HashtableIySt4pairIKySt10unique_ptrIN8Polyfish11EndgameBaseINS3_11ScaleFactorEEESt14default_deleteIS6_EEESaISA_ENSt8__detail10_Select1stESt8equal_toIyESt4hashIyENSC_18_Mod_range_hashingENSC_20_Default_ranged_hashENSC_20_Prime_rehash_policyENSC_17_Hashtable_traitsILb0ELb0ELb1EEEE12_M_find_nodeEyRS1_y.lto_priv.0(%rip)
	jne	.L194
	movq	.refptr.__gcov_time_profiler_counter(%rip), %rdx
	movq	(%rdx), %rax
	addq	$1, %rax
	movq	%rax, __gcov7._ZNKSt10_HashtableIySt4pairIKySt10unique_ptrIN8Polyfish11EndgameBaseINS3_11ScaleFactorEEESt14default_deleteIS6_EEESaISA_ENSt8__detail10_Select1stESt8equal_toIyESt4hashIyENSC_18_Mod_range_hashingENSC_20_Default_ranged_hashENSC_20_Prime_rehash_policyENSC_17_Hashtable_traitsILb0ELb0ELb1EEEE12_M_find_nodeEyRS1_y.lto_priv.0(%rip)
	movq	%rax, (%rdx)
.L194:
	movq	0(%rbp), %rax
	movq	120(%rsp), %rdi
	movq	(%rax,%rdi,8), %rax
	testq	%rax, %rax
	je	.L202
	movq	(%rax), %rbx
	leaq	__gcov3._ZNKSt10_HashtableIySt4pairIKySt10unique_ptrIN8Polyfish11EndgameBaseINS3_11ScaleFactorEEESt14default_deleteIS6_EEESaISA_ENSt8__detail10_Select1stESt8equal_toIyESt4hashIyENSC_18_Mod_range_hashingENSC_20_Default_ranged_hashENSC_20_Prime_rehash_policyENSC_17_Hashtable_traitsILb0ELb0ELb1EEEE12_M_find_nodeEyRS1_y.lto_priv.0(%rip), %r10
	leaq	__gcov2._ZNKSt10_HashtableIySt4pairIKySt10unique_ptrIN8Polyfish11EndgameBaseINS3_11ScaleFactorEEESt14default_deleteIS6_EEESaISA_ENSt8__detail10_Select1stESt8equal_toIyESt4hashIyENSC_18_Mod_range_hashingENSC_20_Default_ranged_hashENSC_20_Prime_rehash_policyENSC_17_Hashtable_traitsILb0ELb0ELb1EEEE12_M_find_nodeEyRS1_y.lto_priv.0(%rip), %r15
	leaq	__gcov1._ZNKSt10_HashtableIySt4pairIKySt10unique_ptrIN8Polyfish11EndgameBaseINS3_11ScaleFactorEEESt14default_deleteIS6_EEESaISA_ENSt8__detail10_Select1stESt8equal_toIyESt4hashIyENSC_18_Mod_range_hashingENSC_20_Default_ranged_hashENSC_20_Prime_rehash_policyENSC_17_Hashtable_traitsILb0ELb0ELb1EEEE12_M_find_nodeEyRS1_y.lto_priv.0(%rip), %r14
	movq	8(%rbx), %rsi
	cmpq	%rsi, 0(%r13)
	je	.L197
.L205:
	movq	(%rbx), %rdi
	testq	%rdi, %rdi
	je	.L203
	movq	8(%rbp), %r12
	movq	%r10, %rcx
	movq	8(%rdi), %rsi
	addq	$1, 16+__gcov0._ZNKSt10_HashtableIySt4pairIKySt10unique_ptrIN8Polyfish11EndgameBaseINS3_11ScaleFactorEEESt14default_deleteIS6_EEESaISA_ENSt8__detail10_Select1stESt8equal_toIyESt4hashIyENSC_18_Mod_range_hashingENSC_20_Default_ranged_hashENSC_20_Prime_rehash_policyENSC_17_Hashtable_traitsILb0ELb0ELb1EEEE12_M_find_nodeEyRS1_y.lto_priv.0(%rip)
	movq	%r12, %rdx
	call	__gcov_topn_values_profiler
	movq	%r12, %rdx
	movq	%r15, %rcx
	call	__gcov_pow2_profiler
	movq	%rsi, %rax
	xorl	%edx, %edx
	xorl	%r8d, %r8d
	divq	%r12
	movl	$2, %r9d
	movq	%r14, %rcx
	movq	%rdx, %rsi
	movq	%rax, %rdx
	call	__gcov_interval_profiler
	cmpq	%rsi, 120(%rsp)
	movq	%rbx, %rax
	leaq	__gcov3._ZNKSt10_HashtableIySt4pairIKySt10unique_ptrIN8Polyfish11EndgameBaseINS3_11ScaleFactorEEESt14default_deleteIS6_EEESaISA_ENSt8__detail10_Select1stESt8equal_toIyESt4hashIyENSC_18_Mod_range_hashingENSC_20_Default_ranged_hashENSC_20_Prime_rehash_policyENSC_17_Hashtable_traitsILb0ELb0ELb1EEEE12_M_find_nodeEyRS1_y.lto_priv.0(%rip), %r10
	jne	.L204
	movq	%rdi, %rbx
	movq	8(%rbx), %rsi
	cmpq	%rsi, 0(%r13)
	jne	.L205
.L197:
	addq	$1, 32+__gcov0._ZNKSt10_HashtableIySt4pairIKySt10unique_ptrIN8Polyfish11EndgameBaseINS3_11ScaleFactorEEESt14default_deleteIS6_EEESaISA_ENSt8__detail10_Select1stESt8equal_toIyESt4hashIyENSC_18_Mod_range_hashingENSC_20_Default_ranged_hashENSC_20_Prime_rehash_policyENSC_17_Hashtable_traitsILb0ELb0ELb1EEEE12_M_find_nodeEyRS1_y.lto_priv.0(%rip)
	movq	(%rax), %rax
.L192:
	addq	$40, %rsp
	popq	%rbx
	popq	%rsi
	popq	%rdi
	popq	%rbp
	popq	%r12
	popq	%r13
	popq	%r14
	popq	%r15
	ret
	.p2align 4,,10
	.p2align 3
.L202:
	addq	$1, __gcov0._ZNKSt10_HashtableIySt4pairIKySt10unique_ptrIN8Polyfish11EndgameBaseINS3_11ScaleFactorEEESt14default_deleteIS6_EEESaISA_ENSt8__detail10_Select1stESt8equal_toIyESt4hashIyENSC_18_Mod_range_hashingENSC_20_Default_ranged_hashENSC_20_Prime_rehash_policyENSC_17_Hashtable_traitsILb0ELb0ELb1EEEE12_M_find_nodeEyRS1_y.lto_priv.0(%rip)
	jmp	.L192
	.p2align 4,,10
	.p2align 3
.L203:
	addq	$1, 8+__gcov0._ZNKSt10_HashtableIySt4pairIKySt10unique_ptrIN8Polyfish11EndgameBaseINS3_11ScaleFactorEEESt14default_deleteIS6_EEESaISA_ENSt8__detail10_Select1stESt8equal_toIyESt4hashIyENSC_18_Mod_range_hashingENSC_20_Default_ranged_hashENSC_20_Prime_rehash_policyENSC_17_Hashtable_traitsILb0ELb0ELb1EEEE12_M_find_nodeEyRS1_y.lto_priv.0(%rip)
.L199:
	addq	$1, 40+__gcov0._ZNKSt10_HashtableIySt4pairIKySt10unique_ptrIN8Polyfish11EndgameBaseINS3_11ScaleFactorEEESt14default_deleteIS6_EEESaISA_ENSt8__detail10_Select1stESt8equal_toIyESt4hashIyENSC_18_Mod_range_hashingENSC_20_Default_ranged_hashENSC_20_Prime_rehash_policyENSC_17_Hashtable_traitsILb0ELb0ELb1EEEE12_M_find_nodeEyRS1_y.lto_priv.0(%rip)
	xorl	%eax, %eax
	jmp	.L192
	.p2align 4,,10
	.p2align 3
.L204:
	addq	$1, 24+__gcov0._ZNKSt10_HashtableIySt4pairIKySt10unique_ptrIN8Polyfish11EndgameBaseINS3_11ScaleFactorEEESt14default_deleteIS6_EEESaISA_ENSt8__detail10_Select1stESt8equal_toIyESt4hashIyENSC_18_Mod_range_hashingENSC_20_Default_ranged_hashENSC_20_Prime_rehash_policyENSC_17_Hashtable_traitsILb0ELb0ELb1EEEE12_M_find_nodeEyRS1_y.lto_priv.0(%rip)
	jmp	.L199
	.seh_endproc
	.align 2
	.p2align 4
	.def	_ZNSt10_HashtableIySt4pairIKySt10unique_ptrIN8Polyfish11EndgameBaseINS3_5ValueEEESt14default_deleteIS6_EEESaISA_ENSt8__detail10_Select1stESt8equal_toIyESt4hashIyENSC_18_Mod_range_hashingENSC_20_Default_ranged_hashENSC_20_Prime_rehash_policyENSC_17_Hashtable_traitsILb0ELb0ELb1EEEE22_M_insert_bucket_beginEyPNSC_10_Hash_nodeISA_Lb0EEE;	.scl	3;	.type	32;	.endef
	.seh_proc	_ZNSt10_HashtableIySt4pairIKySt10unique_ptrIN8Polyfish11EndgameBaseINS3_5ValueEEESt14default_deleteIS6_EEESaISA_ENSt8__detail10_Select1stESt8equal_toIyESt4hashIyENSC_18_Mod_range_hashingENSC_20_Default_ranged_hashENSC_20_Prime_rehash_policyENSC_17_Hashtable_traitsILb0ELb0ELb1EEEE22_M_insert_bucket_beginEyPNSC_10_Hash_nodeISA_Lb0EEE
_ZNSt10_HashtableIySt4pairIKySt10unique_ptrIN8Polyfish11EndgameBaseINS3_5ValueEEESt14default_deleteIS6_EEESaISA_ENSt8__detail10_Select1stESt8equal_toIyESt4hashIyENSC_18_Mod_range_hashingENSC_20_Default_ranged_hashENSC_20_Prime_rehash_policyENSC_17_Hashtable_traitsILb0ELb0ELb1EEEE22_M_insert_bucket_beginEyPNSC_10_Hash_nodeISA_Lb0EEE:
	pushq	%r14
	.seh_pushreg	%r14
	pushq	%r13
	.seh_pushreg	%r13
	pushq	%r12
	.seh_pushreg	%r12
	pushq	%rbp
	.seh_pushreg	%rbp
	pushq	%rdi
	.seh_pushreg	%rdi
	pushq	%rsi
	.seh_pushreg	%rsi
	pushq	%rbx
	.seh_pushreg	%rbx
	subq	$32, %rsp
	.seh_stackalloc	32
	.seh_endprologue
	movq	.refptr.__gcov_indirect_call(%rip), %rax
	cmpq	$0, (%rax)
	movq	%rcx, %rbx
	movq	%rdx, %rdi
	movq	%r8, %rsi
	je	.L207
	leaq	_ZNSt10_HashtableIySt4pairIKySt10unique_ptrIN8Polyfish11EndgameBaseINS3_5ValueEEESt14default_deleteIS6_EEESaISA_ENSt8__detail10_Select1stESt8equal_toIyESt4hashIyENSC_18_Mod_range_hashingENSC_20_Default_ranged_hashENSC_20_Prime_rehash_policyENSC_17_Hashtable_traitsILb0ELb0ELb1EEEE22_M_insert_bucket_beginEyPNSC_10_Hash_nodeISA_Lb0EEE(%rip), %rdx
	movl	$565308591, %ecx
	call	__gcov_indirect_call_profiler_v4
.L207:
	cmpq	$0, __gcov7._ZNSt10_HashtableIySt4pairIKySt10unique_ptrIN8Polyfish11EndgameBaseINS3_5ValueEEESt14default_deleteIS6_EEESaISA_ENSt8__detail10_Select1stESt8equal_toIyESt4hashIyENSC_18_Mod_range_hashingENSC_20_Default_ranged_hashENSC_20_Prime_rehash_policyENSC_17_Hashtable_traitsILb0ELb0ELb1EEEE22_M_insert_bucket_beginEyPNSC_10_Hash_nodeISA_Lb0EEE(%rip)
	jne	.L208
	movq	.refptr.__gcov_time_profiler_counter(%rip), %rdx
	movq	(%rdx), %rax
	addq	$1, %rax
	movq	%rax, __gcov7._ZNSt10_HashtableIySt4pairIKySt10unique_ptrIN8Polyfish11EndgameBaseINS3_5ValueEEESt14default_deleteIS6_EEESaISA_ENSt8__detail10_Select1stESt8equal_toIyESt4hashIyENSC_18_Mod_range_hashingENSC_20_Default_ranged_hashENSC_20_Prime_rehash_policyENSC_17_Hashtable_traitsILb0ELb0ELb1EEEE22_M_insert_bucket_beginEyPNSC_10_Hash_nodeISA_Lb0EEE(%rip)
	movq	%rax, (%rdx)
.L208:
	movq	(%rbx), %rbp
	leaq	0(%rbp,%rdi,8), %rdi
	movq	(%rdi), %rax
	testq	%rax, %rax
	je	.L209
	movq	(%rax), %rax
	addq	$1, __gcov0._ZNSt10_HashtableIySt4pairIKySt10unique_ptrIN8Polyfish11EndgameBaseINS3_5ValueEEESt14default_deleteIS6_EEESaISA_ENSt8__detail10_Select1stESt8equal_toIyESt4hashIyENSC_18_Mod_range_hashingENSC_20_Default_ranged_hashENSC_20_Prime_rehash_policyENSC_17_Hashtable_traitsILb0ELb0ELb1EEEE22_M_insert_bucket_beginEyPNSC_10_Hash_nodeISA_Lb0EEE(%rip)
	movq	%rax, (%rsi)
	movq	(%rdi), %rax
	movq	%rsi, (%rax)
	addq	$32, %rsp
	popq	%rbx
	popq	%rsi
	popq	%rdi
	popq	%rbp
	popq	%r12
	popq	%r13
	popq	%r14
	ret
	.p2align 4,,10
	.p2align 3
.L209:
	movq	16(%rbx), %rax
	movq	%rax, (%rsi)
	movq	%rsi, 16(%rbx)
	movq	(%rsi), %rax
	testq	%rax, %rax
	je	.L214
	movq	8(%rbx), %r13
	movq	8(%rax), %r12
	leaq	__gcov3._ZNSt10_HashtableIySt4pairIKySt10unique_ptrIN8Polyfish11EndgameBaseINS3_5ValueEEESt14default_deleteIS6_EEESaISA_ENSt8__detail10_Select1stESt8equal_toIyESt4hashIyENSC_18_Mod_range_hashingENSC_20_Default_ranged_hashENSC_20_Prime_rehash_policyENSC_17_Hashtable_traitsILb0ELb0ELb1EEEE22_M_insert_bucket_beginEyPNSC_10_Hash_nodeISA_Lb0EEE(%rip), %rcx
	addq	$1, 8+__gcov0._ZNSt10_HashtableIySt4pairIKySt10unique_ptrIN8Polyfish11EndgameBaseINS3_5ValueEEESt14default_deleteIS6_EEESaISA_ENSt8__detail10_Select1stESt8equal_toIyESt4hashIyENSC_18_Mod_range_hashingENSC_20_Default_ranged_hashENSC_20_Prime_rehash_policyENSC_17_Hashtable_traitsILb0ELb0ELb1EEEE22_M_insert_bucket_beginEyPNSC_10_Hash_nodeISA_Lb0EEE(%rip)
	movq	%r13, %rdx
	call	__gcov_topn_values_profiler
	movq	%r13, %rdx
	leaq	__gcov2._ZNSt10_HashtableIySt4pairIKySt10unique_ptrIN8Polyfish11EndgameBaseINS3_5ValueEEESt14default_deleteIS6_EEESaISA_ENSt8__detail10_Select1stESt8equal_toIyESt4hashIyENSC_18_Mod_range_hashingENSC_20_Default_ranged_hashENSC_20_Prime_rehash_policyENSC_17_Hashtable_traitsILb0ELb0ELb1EEEE22_M_insert_bucket_beginEyPNSC_10_Hash_nodeISA_Lb0EEE(%rip), %rcx
	call	__gcov_pow2_profiler
	movq	%r12, %rax
	xorl	%edx, %edx
	movl	$2, %r9d
	divq	%r13
	xorl	%r8d, %r8d
	leaq	__gcov1._ZNSt10_HashtableIySt4pairIKySt10unique_ptrIN8Polyfish11EndgameBaseINS3_5ValueEEESt14default_deleteIS6_EEESaISA_ENSt8__detail10_Select1stESt8equal_toIyESt4hashIyENSC_18_Mod_range_hashingENSC_20_Default_ranged_hashENSC_20_Prime_rehash_policyENSC_17_Hashtable_traitsILb0ELb0ELb1EEEE22_M_insert_bucket_beginEyPNSC_10_Hash_nodeISA_Lb0EEE(%rip), %rcx
	movq	%rdx, %r14
	movq	%rax, %rdx
	call	__gcov_interval_profiler
	movq	%rsi, 0(%rbp,%r14,8)
.L212:
	addq	$16, %rbx
	movq	%rbx, (%rdi)
	addq	$32, %rsp
	popq	%rbx
	popq	%rsi
	popq	%rdi
	popq	%rbp
	popq	%r12
	popq	%r13
	popq	%r14
	ret
	.p2align 4,,10
	.p2align 3
.L214:
	addq	$1, 16+__gcov0._ZNSt10_HashtableIySt4pairIKySt10unique_ptrIN8Polyfish11EndgameBaseINS3_5ValueEEESt14default_deleteIS6_EEESaISA_ENSt8__detail10_Select1stESt8equal_toIyESt4hashIyENSC_18_Mod_range_hashingENSC_20_Default_ranged_hashENSC_20_Prime_rehash_policyENSC_17_Hashtable_traitsILb0ELb0ELb1EEEE22_M_insert_bucket_beginEyPNSC_10_Hash_nodeISA_Lb0EEE(%rip)
	jmp	.L212
	.seh_endproc
	.align 2
	.p2align 4
	.def	_ZNSt10_HashtableIySt4pairIKySt10unique_ptrIN8Polyfish11EndgameBaseINS3_11ScaleFactorEEESt14default_deleteIS6_EEESaISA_ENSt8__detail10_Select1stESt8equal_toIyESt4hashIyENSC_18_Mod_range_hashingENSC_20_Default_ranged_hashENSC_20_Prime_rehash_policyENSC_17_Hashtable_traitsILb0ELb0ELb1EEEE22_M_insert_bucket_beginEyPNSC_10_Hash_nodeISA_Lb0EEE;	.scl	3;	.type	32;	.endef
	.seh_proc	_ZNSt10_HashtableIySt4pairIKySt10unique_ptrIN8Polyfish11EndgameBaseINS3_11ScaleFactorEEESt14default_deleteIS6_EEESaISA_ENSt8__detail10_Select1stESt8equal_toIyESt4hashIyENSC_18_Mod_range_hashingENSC_20_Default_ranged_hashENSC_20_Prime_rehash_policyENSC_17_Hashtable_traitsILb0ELb0ELb1EEEE22_M_insert_bucket_beginEyPNSC_10_Hash_nodeISA_Lb0EEE
_ZNSt10_HashtableIySt4pairIKySt10unique_ptrIN8Polyfish11EndgameBaseINS3_11ScaleFactorEEESt14default_deleteIS6_EEESaISA_ENSt8__detail10_Select1stESt8equal_toIyESt4hashIyENSC_18_Mod_range_hashingENSC_20_Default_ranged_hashENSC_20_Prime_rehash_policyENSC_17_Hashtable_traitsILb0ELb0ELb1EEEE22_M_insert_bucket_beginEyPNSC_10_Hash_nodeISA_Lb0EEE:
	pushq	%r14
	.seh_pushreg	%r14
	pushq	%r13
	.seh_pushreg	%r13
	pushq	%r12
	.seh_pushreg	%r12
	pushq	%rbp
	.seh_pushreg	%rbp
	pushq	%rdi
	.seh_pushreg	%rdi
	pushq	%rsi
	.seh_pushreg	%rsi
	pushq	%rbx
	.seh_pushreg	%rbx
	subq	$32, %rsp
	.seh_stackalloc	32
	.seh_endprologue
	movq	.refptr.__gcov_indirect_call(%rip), %rax
	cmpq	$0, (%rax)
	movq	%rcx, %rbx
	movq	%rdx, %rdi
	movq	%r8, %rsi
	je	.L216
	leaq	_ZNSt10_HashtableIySt4pairIKySt10unique_ptrIN8Polyfish11EndgameBaseINS3_11ScaleFactorEEESt14default_deleteIS6_EEESaISA_ENSt8__detail10_Select1stESt8equal_toIyESt4hashIyENSC_18_Mod_range_hashingENSC_20_Default_ranged_hashENSC_20_Prime_rehash_policyENSC_17_Hashtable_traitsILb0ELb0ELb1EEEE22_M_insert_bucket_beginEyPNSC_10_Hash_nodeISA_Lb0EEE(%rip), %rdx
	movl	$21025563, %ecx
	call	__gcov_indirect_call_profiler_v4
.L216:
	cmpq	$0, __gcov7._ZNSt10_HashtableIySt4pairIKySt10unique_ptrIN8Polyfish11EndgameBaseINS3_11ScaleFactorEEESt14default_deleteIS6_EEESaISA_ENSt8__detail10_Select1stESt8equal_toIyESt4hashIyENSC_18_Mod_range_hashingENSC_20_Default_ranged_hashENSC_20_Prime_rehash_policyENSC_17_Hashtable_traitsILb0ELb0ELb1EEEE22_M_insert_bucket_beginEyPNSC_10_Hash_nodeISA_Lb0EEE(%rip)
	jne	.L217
	movq	.refptr.__gcov_time_profiler_counter(%rip), %rdx
	movq	(%rdx), %rax
	addq	$1, %rax
	movq	%rax, __gcov7._ZNSt10_HashtableIySt4pairIKySt10unique_ptrIN8Polyfish11EndgameBaseINS3_11ScaleFactorEEESt14default_deleteIS6_EEESaISA_ENSt8__detail10_Select1stESt8equal_toIyESt4hashIyENSC_18_Mod_range_hashingENSC_20_Default_ranged_hashENSC_20_Prime_rehash_policyENSC_17_Hashtable_traitsILb0ELb0ELb1EEEE22_M_insert_bucket_beginEyPNSC_10_Hash_nodeISA_Lb0EEE(%rip)
	movq	%rax, (%rdx)
.L217:
	movq	(%rbx), %rbp
	leaq	0(%rbp,%rdi,8), %rdi
	movq	(%rdi), %rax
	testq	%rax, %rax
	je	.L218
	movq	(%rax), %rax
	addq	$1, __gcov0._ZNSt10_HashtableIySt4pairIKySt10unique_ptrIN8Polyfish11EndgameBaseINS3_11ScaleFactorEEESt14default_deleteIS6_EEESaISA_ENSt8__detail10_Select1stESt8equal_toIyESt4hashIyENSC_18_Mod_range_hashingENSC_20_Default_ranged_hashENSC_20_Prime_rehash_policyENSC_17_Hashtable_traitsILb0ELb0ELb1EEEE22_M_insert_bucket_beginEyPNSC_10_Hash_nodeISA_Lb0EEE(%rip)
	movq	%rax, (%rsi)
	movq	(%rdi), %rax
	movq	%rsi, (%rax)
	addq	$32, %rsp
	popq	%rbx
	popq	%rsi
	popq	%rdi
	popq	%rbp
	popq	%r12
	popq	%r13
	popq	%r14
	ret
	.p2align 4,,10
	.p2align 3
.L218:
	movq	16(%rbx), %rax
	movq	%rax, (%rsi)
	movq	%rsi, 16(%rbx)
	movq	(%rsi), %rax
	testq	%rax, %rax
	je	.L223
	movq	8(%rbx), %r13
	movq	8(%rax), %r12
	leaq	__gcov3._ZNSt10_HashtableIySt4pairIKySt10unique_ptrIN8Polyfish11EndgameBaseINS3_11ScaleFactorEEESt14default_deleteIS6_EEESaISA_ENSt8__detail10_Select1stESt8equal_toIyESt4hashIyENSC_18_Mod_range_hashingENSC_20_Default_ranged_hashENSC_20_Prime_rehash_policyENSC_17_Hashtable_traitsILb0ELb0ELb1EEEE22_M_insert_bucket_beginEyPNSC_10_Hash_nodeISA_Lb0EEE(%rip), %rcx
	addq	$1, 8+__gcov0._ZNSt10_HashtableIySt4pairIKySt10unique_ptrIN8Polyfish11EndgameBaseINS3_11ScaleFactorEEESt14default_deleteIS6_EEESaISA_ENSt8__detail10_Select1stESt8equal_toIyESt4hashIyENSC_18_Mod_range_hashingENSC_20_Default_ranged_hashENSC_20_Prime_rehash_policyENSC_17_Hashtable_traitsILb0ELb0ELb1EEEE22_M_insert_bucket_beginEyPNSC_10_Hash_nodeISA_Lb0EEE(%rip)
	movq	%r13, %rdx
	call	__gcov_topn_values_profiler
	movq	%r13, %rdx
	leaq	__gcov2._ZNSt10_HashtableIySt4pairIKySt10unique_ptrIN8Polyfish11EndgameBaseINS3_11ScaleFactorEEESt14default_deleteIS6_EEESaISA_ENSt8__detail10_Select1stESt8equal_toIyESt4hashIyENSC_18_Mod_range_hashingENSC_20_Default_ranged_hashENSC_20_Prime_rehash_policyENSC_17_Hashtable_traitsILb0ELb0ELb1EEEE22_M_insert_bucket_beginEyPNSC_10_Hash_nodeISA_Lb0EEE(%rip), %rcx
	call	__gcov_pow2_profiler
	movq	%r12, %rax
	xorl	%edx, %edx
	movl	$2, %r9d
	divq	%r13
	xorl	%r8d, %r8d
	leaq	__gcov1._ZNSt10_HashtableIySt4pairIKySt10unique_ptrIN8Polyfish11EndgameBaseINS3_11ScaleFactorEEESt14default_deleteIS6_EEESaISA_ENSt8__detail10_Select1stESt8equal_toIyESt4hashIyENSC_18_Mod_range_hashingENSC_20_Default_ranged_hashENSC_20_Prime_rehash_policyENSC_17_Hashtable_traitsILb0ELb0ELb1EEEE22_M_insert_bucket_beginEyPNSC_10_Hash_nodeISA_Lb0EEE(%rip), %rcx
	movq	%rdx, %r14
	movq	%rax, %rdx
	call	__gcov_interval_profiler
	movq	%rsi, 0(%rbp,%r14,8)
.L221:
	addq	$16, %rbx
	movq	%rbx, (%rdi)
	addq	$32, %rsp
	popq	%rbx
	popq	%rsi
	popq	%rdi
	popq	%rbp
	popq	%r12
	popq	%r13
	popq	%r14
	ret
	.p2align 4,,10
	.p2align 3
.L223:
	addq	$1, 16+__gcov0._ZNSt10_HashtableIySt4pairIKySt10unique_ptrIN8Polyfish11EndgameBaseINS3_11ScaleFactorEEESt14default_deleteIS6_EEESaISA_ENSt8__detail10_Select1stESt8equal_toIyESt4hashIyENSC_18_Mod_range_hashingENSC_20_Default_ranged_hashENSC_20_Prime_rehash_policyENSC_17_Hashtable_traitsILb0ELb0ELb1EEEE22_M_insert_bucket_beginEyPNSC_10_Hash_nodeISA_Lb0EEE(%rip)
	jmp	.L221
	.seh_endproc
	.align 2
	.p2align 4
	.def	_ZN9__gnu_cxx13new_allocatorINSt8__detail10_Hash_nodeISt4pairIKySt10unique_ptrIN8Polyfish11EndgameBaseINS6_5ValueEEESt14default_deleteIS9_EEELb0EEEE8allocateEyPKv;	.scl	3;	.type	32;	.endef
	.seh_proc	_ZN9__gnu_cxx13new_allocatorINSt8__detail10_Hash_nodeISt4pairIKySt10unique_ptrIN8Polyfish11EndgameBaseINS6_5ValueEEESt14default_deleteIS9_EEELb0EEEE8allocateEyPKv
_ZN9__gnu_cxx13new_allocatorINSt8__detail10_Hash_nodeISt4pairIKySt10unique_ptrIN8Polyfish11EndgameBaseINS6_5ValueEEESt14default_deleteIS9_EEELb0EEEE8allocateEyPKv:
	pushq	%rbx
	.seh_pushreg	%rbx
	subq	$32, %rsp
	.seh_stackalloc	32
	.seh_endprologue
	movq	.refptr.__gcov_indirect_call(%rip), %rax
	cmpq	$0, (%rax)
	movq	%rdx, %rbx
	je	.L225
	leaq	_ZN9__gnu_cxx13new_allocatorINSt8__detail10_Hash_nodeISt4pairIKySt10unique_ptrIN8Polyfish11EndgameBaseINS6_5ValueEEESt14default_deleteIS9_EEELb0EEEE8allocateEyPKv(%rip), %rdx
	movl	$986281590, %ecx
	call	__gcov_indirect_call_profiler_v4
.L225:
	cmpq	$0, __gcov7._ZN9__gnu_cxx13new_allocatorINSt8__detail10_Hash_nodeISt4pairIKySt10unique_ptrIN8Polyfish11EndgameBaseINS6_5ValueEEESt14default_deleteIS9_EEELb0EEEE8allocateEyPKv(%rip)
	jne	.L226
	movq	.refptr.__gcov_time_profiler_counter(%rip), %rdx
	movq	(%rdx), %rax
	addq	$1, %rax
	movq	%rax, __gcov7._ZN9__gnu_cxx13new_allocatorINSt8__detail10_Hash_nodeISt4pairIKySt10unique_ptrIN8Polyfish11EndgameBaseINS6_5ValueEEESt14default_deleteIS9_EEELb0EEEE8allocateEyPKv(%rip)
	movq	%rax, (%rdx)
.L226:
	movabsq	$384307168202282325, %rax
	cmpq	%rax, %rbx
	ja	.L229
	leaq	(%rbx,%rbx,2), %rcx
	addq	$1, __gcov0._ZN9__gnu_cxx13new_allocatorINSt8__detail10_Hash_nodeISt4pairIKySt10unique_ptrIN8Polyfish11EndgameBaseINS6_5ValueEEESt14default_deleteIS9_EEELb0EEEE8allocateEyPKv(%rip)
	salq	$3, %rcx
	call	_Znwy
	addq	$1, 24+__gcov0._ZN9__gnu_cxx13new_allocatorINSt8__detail10_Hash_nodeISt4pairIKySt10unique_ptrIN8Polyfish11EndgameBaseINS6_5ValueEEESt14default_deleteIS9_EEELb0EEEE8allocateEyPKv(%rip)
	addq	$32, %rsp
	popq	%rbx
	ret
	.p2align 4,,10
	.p2align 3
.L229:
	movabsq	$768614336404564650, %rax
	cmpq	%rax, %rbx
	jbe	.L228
	addq	$1, 8+__gcov0._ZN9__gnu_cxx13new_allocatorINSt8__detail10_Hash_nodeISt4pairIKySt10unique_ptrIN8Polyfish11EndgameBaseINS6_5ValueEEESt14default_deleteIS9_EEELb0EEEE8allocateEyPKv(%rip)
	call	_ZSt28__throw_bad_array_new_lengthv
	.p2align 4,,10
	.p2align 3
.L228:
	addq	$1, 16+__gcov0._ZN9__gnu_cxx13new_allocatorINSt8__detail10_Hash_nodeISt4pairIKySt10unique_ptrIN8Polyfish11EndgameBaseINS6_5ValueEEESt14default_deleteIS9_EEELb0EEEE8allocateEyPKv(%rip)
	call	_ZSt17__throw_bad_allocv
	nop
	.seh_endproc
	.align 2
	.p2align 4
	.def	_ZN9__gnu_cxx13new_allocatorINSt8__detail10_Hash_nodeISt4pairIKySt10unique_ptrIN8Polyfish11EndgameBaseINS6_11ScaleFactorEEESt14default_deleteIS9_EEELb0EEEE8allocateEyPKv;	.scl	3;	.type	32;	.endef
	.seh_proc	_ZN9__gnu_cxx13new_allocatorINSt8__detail10_Hash_nodeISt4pairIKySt10unique_ptrIN8Polyfish11EndgameBaseINS6_11ScaleFactorEEESt14default_deleteIS9_EEELb0EEEE8allocateEyPKv
_ZN9__gnu_cxx13new_allocatorINSt8__detail10_Hash_nodeISt4pairIKySt10unique_ptrIN8Polyfish11EndgameBaseINS6_11ScaleFactorEEESt14default_deleteIS9_EEELb0EEEE8allocateEyPKv:
	pushq	%rbx
	.seh_pushreg	%rbx
	subq	$32, %rsp
	.seh_stackalloc	32
	.seh_endprologue
	movq	.refptr.__gcov_indirect_call(%rip), %rax
	cmpq	$0, (%rax)
	movq	%rdx, %rbx
	je	.L231
	leaq	_ZN9__gnu_cxx13new_allocatorINSt8__detail10_Hash_nodeISt4pairIKySt10unique_ptrIN8Polyfish11EndgameBaseINS6_11ScaleFactorEEESt14default_deleteIS9_EEELb0EEEE8allocateEyPKv(%rip), %rdx
	movl	$853887600, %ecx
	call	__gcov_indirect_call_profiler_v4
.L231:
	cmpq	$0, __gcov7._ZN9__gnu_cxx13new_allocatorINSt8__detail10_Hash_nodeISt4pairIKySt10unique_ptrIN8Polyfish11EndgameBaseINS6_11ScaleFactorEEESt14default_deleteIS9_EEELb0EEEE8allocateEyPKv(%rip)
	jne	.L232
	movq	.refptr.__gcov_time_profiler_counter(%rip), %rdx
	movq	(%rdx), %rax
	addq	$1, %rax
	movq	%rax, __gcov7._ZN9__gnu_cxx13new_allocatorINSt8__detail10_Hash_nodeISt4pairIKySt10unique_ptrIN8Polyfish11EndgameBaseINS6_11ScaleFactorEEESt14default_deleteIS9_EEELb0EEEE8allocateEyPKv(%rip)
	movq	%rax, (%rdx)
.L232:
	movabsq	$384307168202282325, %rax
	cmpq	%rax, %rbx
	ja	.L235
	leaq	(%rbx,%rbx,2), %rcx
	addq	$1, __gcov0._ZN9__gnu_cxx13new_allocatorINSt8__detail10_Hash_nodeISt4pairIKySt10unique_ptrIN8Polyfish11EndgameBaseINS6_11ScaleFactorEEESt14default_deleteIS9_EEELb0EEEE8allocateEyPKv(%rip)
	salq	$3, %rcx
	call	_Znwy
	addq	$1, 24+__gcov0._ZN9__gnu_cxx13new_allocatorINSt8__detail10_Hash_nodeISt4pairIKySt10unique_ptrIN8Polyfish11EndgameBaseINS6_11ScaleFactorEEESt14default_deleteIS9_EEELb0EEEE8allocateEyPKv(%rip)
	addq	$32, %rsp
	popq	%rbx
	ret
	.p2align 4,,10
	.p2align 3
.L235:
	movabsq	$768614336404564650, %rax
	cmpq	%rax, %rbx
	jbe	.L234
	addq	$1, 8+__gcov0._ZN9__gnu_cxx13new_allocatorINSt8__detail10_Hash_nodeISt4pairIKySt10unique_ptrIN8Polyfish11EndgameBaseINS6_11ScaleFactorEEESt14default_deleteIS9_EEELb0EEEE8allocateEyPKv(%rip)
	call	_ZSt28__throw_bad_array_new_lengthv
	.p2align 4,,10
	.p2align 3
.L234:
	addq	$1, 16+__gcov0._ZN9__gnu_cxx13new_allocatorINSt8__detail10_Hash_nodeISt4pairIKySt10unique_ptrIN8Polyfish11EndgameBaseINS6_11ScaleFactorEEESt14default_deleteIS9_EEELb0EEEE8allocateEyPKv(%rip)
	call	_ZSt17__throw_bad_allocv
	nop
	.seh_endproc
	.align 2
	.p2align 4
	.def	_ZN9__gnu_cxx13new_allocatorIPNSt8__detail15_Hash_node_baseEE8allocateEyPKv;	.scl	3;	.type	32;	.endef
	.seh_proc	_ZN9__gnu_cxx13new_allocatorIPNSt8__detail15_Hash_node_baseEE8allocateEyPKv
_ZN9__gnu_cxx13new_allocatorIPNSt8__detail15_Hash_node_baseEE8allocateEyPKv:
	pushq	%rbx
	.seh_pushreg	%rbx
	subq	$32, %rsp
	.seh_stackalloc	32
	.seh_endprologue
	movq	.refptr.__gcov_indirect_call(%rip), %rax
	cmpq	$0, (%rax)
	movq	%rdx, %rbx
	je	.L237
	leaq	_ZN9__gnu_cxx13new_allocatorIPNSt8__detail15_Hash_node_baseEE8allocateEyPKv(%rip), %rdx
	movl	$829196292, %ecx
	call	__gcov_indirect_call_profiler_v4
.L237:
	cmpq	$0, __gcov7._ZN9__gnu_cxx13new_allocatorIPNSt8__detail15_Hash_node_baseEE8allocateEyPKv(%rip)
	jne	.L238
	movq	.refptr.__gcov_time_profiler_counter(%rip), %rdx
	movq	(%rdx), %rax
	addq	$1, %rax
	movq	%rax, __gcov7._ZN9__gnu_cxx13new_allocatorIPNSt8__detail15_Hash_node_baseEE8allocateEyPKv(%rip)
	movq	%rax, (%rdx)
.L238:
	movq	%rbx, %rax
	shrq	$60, %rax
	jne	.L241
	leaq	0(,%rbx,8), %rcx
	addq	$1, __gcov0._ZN9__gnu_cxx13new_allocatorIPNSt8__detail15_Hash_node_baseEE8allocateEyPKv(%rip)
	call	_Znwy
	addq	$1, 24+__gcov0._ZN9__gnu_cxx13new_allocatorIPNSt8__detail15_Hash_node_baseEE8allocateEyPKv(%rip)
	addq	$32, %rsp
	popq	%rbx
	ret
	.p2align 4,,10
	.p2align 3
.L241:
	shrq	$61, %rbx
	je	.L240
	addq	$1, 8+__gcov0._ZN9__gnu_cxx13new_allocatorIPNSt8__detail15_Hash_node_baseEE8allocateEyPKv(%rip)
	call	_ZSt28__throw_bad_array_new_lengthv
	.p2align 4,,10
	.p2align 3
.L240:
	addq	$1, 16+__gcov0._ZN9__gnu_cxx13new_allocatorIPNSt8__detail15_Hash_node_baseEE8allocateEyPKv(%rip)
	call	_ZSt17__throw_bad_allocv
	nop
	.seh_endproc
	.align 2
	.p2align 4
	.def	_ZNSt8__detail16_Hashtable_allocISaINS_10_Hash_nodeISt4pairIKySt10unique_ptrIN8Polyfish11EndgameBaseINS5_5ValueEEESt14default_deleteIS8_EEELb0EEEEE19_M_allocate_bucketsEy;	.scl	3;	.type	32;	.endef
	.seh_proc	_ZNSt8__detail16_Hashtable_allocISaINS_10_Hash_nodeISt4pairIKySt10unique_ptrIN8Polyfish11EndgameBaseINS5_5ValueEEESt14default_deleteIS8_EEELb0EEEEE19_M_allocate_bucketsEy
_ZNSt8__detail16_Hashtable_allocISaINS_10_Hash_nodeISt4pairIKySt10unique_ptrIN8Polyfish11EndgameBaseINS5_5ValueEEESt14default_deleteIS8_EEELb0EEEEE19_M_allocate_bucketsEy:
	pushq	%r12
	.seh_pushreg	%r12
	pushq	%rbx
	.seh_pushreg	%rbx
	subq	$40, %rsp
	.seh_stackalloc	40
	.seh_endprologue
	movq	.refptr.__gcov_indirect_call(%rip), %r12
	movq	(%r12), %rax
	movq	%rdx, %rbx
	testq	%rax, %rax
	jne	.L254
	addq	$1, __gcov0._ZNSt8__detail16_Hashtable_allocISaINS_10_Hash_nodeISt4pairIKySt10unique_ptrIN8Polyfish11EndgameBaseINS5_5ValueEEESt14default_deleteIS8_EEELb0EEEEE19_M_allocate_bucketsEy(%rip)
	cmpq	$0, __gcov7._ZNSt8__detail16_Hashtable_allocISaINS_10_Hash_nodeISt4pairIKySt10unique_ptrIN8Polyfish11EndgameBaseINS5_5ValueEEESt14default_deleteIS8_EEELb0EEEEE19_M_allocate_bucketsEy(%rip)
	je	.L249
.L245:
	cmpq	$0, __gcov7._ZN9__gnu_cxx13new_allocatorIPNSt8__detail15_Hash_node_baseEE8allocateEyPKv(%rip)
	je	.L255
.L246:
	movq	%rbx, %rax
	shrq	$60, %rax
	jne	.L256
.L247:
	salq	$3, %rbx
	addq	$1, __gcov0._ZN9__gnu_cxx13new_allocatorIPNSt8__detail15_Hash_node_baseEE8allocateEyPKv(%rip)
	movq	%rbx, %rcx
	call	_Znwy
	movq	%rbx, %rdx
	leaq	__gcov3._ZNSt8__detail16_Hashtable_allocISaINS_10_Hash_nodeISt4pairIKySt10unique_ptrIN8Polyfish11EndgameBaseINS5_5ValueEEESt14default_deleteIS8_EEELb0EEEEE19_M_allocate_bucketsEy(%rip), %rcx
	addq	$1, 24+__gcov0._ZN9__gnu_cxx13new_allocatorIPNSt8__detail15_Hash_node_baseEE8allocateEyPKv(%rip)
	movq	%rax, %r12
	addq	$1, 8+__gcov0._ZNSt8__detail16_Hashtable_allocISaINS_10_Hash_nodeISt4pairIKySt10unique_ptrIN8Polyfish11EndgameBaseINS5_5ValueEEESt14default_deleteIS8_EEELb0EEEEE19_M_allocate_bucketsEy(%rip)
	call	__gcov_topn_values_profiler
	movq	%rbx, %rdx
	leaq	__gcov5._ZNSt8__detail16_Hashtable_allocISaINS_10_Hash_nodeISt4pairIKySt10unique_ptrIN8Polyfish11EndgameBaseINS5_5ValueEEESt14default_deleteIS8_EEELb0EEEEE19_M_allocate_bucketsEy(%rip), %rcx
	call	__gcov_average_profiler
	movq	%r12, %rdx
	leaq	__gcov6._ZNSt8__detail16_Hashtable_allocISaINS_10_Hash_nodeISt4pairIKySt10unique_ptrIN8Polyfish11EndgameBaseINS5_5ValueEEESt14default_deleteIS8_EEELb0EEEEE19_M_allocate_bucketsEy(%rip), %rcx
	call	__gcov_ior_profiler
	movq	%rbx, %r8
	xorl	%edx, %edx
	movq	%r12, %rcx
	call	memset
	addq	$40, %rsp
	popq	%rbx
	popq	%r12
	ret
	.p2align 4,,10
	.p2align 3
.L254:
	leaq	_ZNSt8__detail16_Hashtable_allocISaINS_10_Hash_nodeISt4pairIKySt10unique_ptrIN8Polyfish11EndgameBaseINS5_5ValueEEESt14default_deleteIS8_EEELb0EEEEE19_M_allocate_bucketsEy(%rip), %rdx
	movl	$1067429664, %ecx
	call	__gcov_indirect_call_profiler_v4
	addq	$1, __gcov0._ZNSt8__detail16_Hashtable_allocISaINS_10_Hash_nodeISt4pairIKySt10unique_ptrIN8Polyfish11EndgameBaseINS5_5ValueEEESt14default_deleteIS8_EEELb0EEEEE19_M_allocate_bucketsEy(%rip)
	movq	(%r12), %rax
	cmpq	$0, __gcov7._ZNSt8__detail16_Hashtable_allocISaINS_10_Hash_nodeISt4pairIKySt10unique_ptrIN8Polyfish11EndgameBaseINS5_5ValueEEESt14default_deleteIS8_EEELb0EEEEE19_M_allocate_bucketsEy(%rip)
	je	.L249
.L244:
	testq	%rax, %rax
	je	.L245
	leaq	_ZN9__gnu_cxx13new_allocatorIPNSt8__detail15_Hash_node_baseEE8allocateEyPKv(%rip), %rdx
	movl	$829196292, %ecx
	call	__gcov_indirect_call_profiler_v4
	cmpq	$0, __gcov7._ZN9__gnu_cxx13new_allocatorIPNSt8__detail15_Hash_node_baseEE8allocateEyPKv(%rip)
	jne	.L246
	.p2align 4,,10
	.p2align 3
.L255:
	movq	.refptr.__gcov_time_profiler_counter(%rip), %rdx
	movq	(%rdx), %rax
	addq	$1, %rax
	movq	%rax, __gcov7._ZN9__gnu_cxx13new_allocatorIPNSt8__detail15_Hash_node_baseEE8allocateEyPKv(%rip)
	movq	%rax, (%rdx)
	movq	%rbx, %rax
	shrq	$60, %rax
	je	.L247
	.p2align 4,,10
	.p2align 3
.L256:
	shrq	$61, %rbx
	je	.L248
	addq	$1, 8+__gcov0._ZN9__gnu_cxx13new_allocatorIPNSt8__detail15_Hash_node_baseEE8allocateEyPKv(%rip)
	call	_ZSt28__throw_bad_array_new_lengthv
	.p2align 4,,10
	.p2align 3
.L249:
	movq	.refptr.__gcov_time_profiler_counter(%rip), %rcx
	movq	(%rcx), %rdx
	addq	$1, %rdx
	movq	%rdx, __gcov7._ZNSt8__detail16_Hashtable_allocISaINS_10_Hash_nodeISt4pairIKySt10unique_ptrIN8Polyfish11EndgameBaseINS5_5ValueEEESt14default_deleteIS8_EEELb0EEEEE19_M_allocate_bucketsEy(%rip)
	movq	%rdx, (%rcx)
	jmp	.L244
	.p2align 4,,10
	.p2align 3
.L248:
	addq	$1, 16+__gcov0._ZN9__gnu_cxx13new_allocatorIPNSt8__detail15_Hash_node_baseEE8allocateEyPKv(%rip)
	call	_ZSt17__throw_bad_allocv
	nop
	.seh_endproc
	.align 2
	.p2align 4
	.def	_ZNSt10_HashtableIySt4pairIKySt10unique_ptrIN8Polyfish11EndgameBaseINS3_5ValueEEESt14default_deleteIS6_EEESaISA_ENSt8__detail10_Select1stESt8equal_toIyESt4hashIyENSC_18_Mod_range_hashingENSC_20_Default_ranged_hashENSC_20_Prime_rehash_policyENSC_17_Hashtable_traitsILb0ELb0ELb1EEEE13_M_rehash_auxEySt17integral_constantIbLb1EE;	.scl	3;	.type	32;	.endef
	.seh_proc	_ZNSt10_HashtableIySt4pairIKySt10unique_ptrIN8Polyfish11EndgameBaseINS3_5ValueEEESt14default_deleteIS6_EEESaISA_ENSt8__detail10_Select1stESt8equal_toIyESt4hashIyENSC_18_Mod_range_hashingENSC_20_Default_ranged_hashENSC_20_Prime_rehash_policyENSC_17_Hashtable_traitsILb0ELb0ELb1EEEE13_M_rehash_auxEySt17integral_constantIbLb1EE
_ZNSt10_HashtableIySt4pairIKySt10unique_ptrIN8Polyfish11EndgameBaseINS3_5ValueEEESt14default_deleteIS6_EEESaISA_ENSt8__detail10_Select1stESt8equal_toIyESt4hashIyENSC_18_Mod_range_hashingENSC_20_Default_ranged_hashENSC_20_Prime_rehash_policyENSC_17_Hashtable_traitsILb0ELb0ELb1EEEE13_M_rehash_auxEySt17integral_constantIbLb1EE:
	pushq	%r15
	.seh_pushreg	%r15
	pushq	%r14
	.seh_pushreg	%r14
	pushq	%r13
	.seh_pushreg	%r13
	pushq	%r12
	.seh_pushreg	%r12
	pushq	%rbp
	.seh_pushreg	%rbp
	pushq	%rdi
	.seh_pushreg	%rdi
	pushq	%rsi
	.seh_pushreg	%rsi
	pushq	%rbx
	.seh_pushreg	%rbx
	subq	$72, %rsp
	.seh_stackalloc	72
	.seh_endprologue
	movq	.refptr.__gcov_indirect_call(%rip), %rax
	cmpq	$0, (%rax)
	movq	%rcx, %rdi
	movq	%rdx, %rbx
	je	.L258
	leaq	_ZNSt10_HashtableIySt4pairIKySt10unique_ptrIN8Polyfish11EndgameBaseINS3_5ValueEEESt14default_deleteIS6_EEESaISA_ENSt8__detail10_Select1stESt8equal_toIyESt4hashIyENSC_18_Mod_range_hashingENSC_20_Default_ranged_hashENSC_20_Prime_rehash_policyENSC_17_Hashtable_traitsILb0ELb0ELb1EEEE13_M_rehash_auxEySt17integral_constantIbLb1EE(%rip), %rdx
	movl	$1834706936, %ecx
	call	__gcov_indirect_call_profiler_v4
.L258:
	cmpq	$0, __gcov7._ZNSt10_HashtableIySt4pairIKySt10unique_ptrIN8Polyfish11EndgameBaseINS3_5ValueEEESt14default_deleteIS6_EEESaISA_ENSt8__detail10_Select1stESt8equal_toIyESt4hashIyENSC_18_Mod_range_hashingENSC_20_Default_ranged_hashENSC_20_Prime_rehash_policyENSC_17_Hashtable_traitsILb0ELb0ELb1EEEE13_M_rehash_auxEySt17integral_constantIbLb1EE(%rip)
	jne	.L259
	movq	.refptr.__gcov_time_profiler_counter(%rip), %rdx
	movq	(%rdx), %rax
	addq	$1, %rax
	movq	%rax, __gcov7._ZNSt10_HashtableIySt4pairIKySt10unique_ptrIN8Polyfish11EndgameBaseINS3_5ValueEEESt14default_deleteIS6_EEESaISA_ENSt8__detail10_Select1stESt8equal_toIyESt4hashIyENSC_18_Mod_range_hashingENSC_20_Default_ranged_hashENSC_20_Prime_rehash_policyENSC_17_Hashtable_traitsILb0ELb0ELb1EEEE13_M_rehash_auxEySt17integral_constantIbLb1EE(%rip)
	movq	%rax, (%rdx)
.L259:
	leaq	48(%rdi), %rax
	movq	%rax, 56(%rsp)
	cmpq	$1, %rbx
	je	.L277
	movq	%rbx, %rdx
	movq	%rdi, %rcx
	addq	$1, 8+__gcov0._ZNSt10_HashtableIySt4pairIKySt10unique_ptrIN8Polyfish11EndgameBaseINS3_5ValueEEESt14default_deleteIS6_EEESaISA_ENSt8__detail10_Select1stESt8equal_toIyESt4hashIyENSC_18_Mod_range_hashingENSC_20_Default_ranged_hashENSC_20_Prime_rehash_policyENSC_17_Hashtable_traitsILb0ELb0ELb1EEEE13_M_rehash_auxEySt17integral_constantIbLb1EE(%rip)
	call	_ZNSt8__detail16_Hashtable_allocISaINS_10_Hash_nodeISt4pairIKySt10unique_ptrIN8Polyfish11EndgameBaseINS5_5ValueEEESt14default_deleteIS8_EEELb0EEEEE19_M_allocate_bucketsEy
	movq	%rax, 32(%rsp)
.L261:
	leaq	16(%rdi), %rax
	movq	16(%rdi), %r15
	movq	$0, 40(%rsp)
	leaq	__gcov3._ZNSt10_HashtableIySt4pairIKySt10unique_ptrIN8Polyfish11EndgameBaseINS3_5ValueEEESt14default_deleteIS6_EEESaISA_ENSt8__detail10_Select1stESt8equal_toIyESt4hashIyENSC_18_Mod_range_hashingENSC_20_Default_ranged_hashENSC_20_Prime_rehash_policyENSC_17_Hashtable_traitsILb0ELb0ELb1EEEE13_M_rehash_auxEySt17integral_constantIbLb1EE(%rip), %r14
	movq	$0, 16(%rdi)
	leaq	__gcov2._ZNSt10_HashtableIySt4pairIKySt10unique_ptrIN8Polyfish11EndgameBaseINS3_5ValueEEESt14default_deleteIS6_EEESaISA_ENSt8__detail10_Select1stESt8equal_toIyESt4hashIyENSC_18_Mod_range_hashingENSC_20_Default_ranged_hashENSC_20_Prime_rehash_policyENSC_17_Hashtable_traitsILb0ELb0ELb1EEEE13_M_rehash_auxEySt17integral_constantIbLb1EE(%rip), %r13
	leaq	__gcov1._ZNSt10_HashtableIySt4pairIKySt10unique_ptrIN8Polyfish11EndgameBaseINS3_5ValueEEESt14default_deleteIS6_EEESaISA_ENSt8__detail10_Select1stESt8equal_toIyESt4hashIyENSC_18_Mod_range_hashingENSC_20_Default_ranged_hashENSC_20_Prime_rehash_policyENSC_17_Hashtable_traitsILb0ELb0ELb1EEEE13_M_rehash_auxEySt17integral_constantIbLb1EE(%rip), %r12
	movq	%rax, 48(%rsp)
.L276:
	testq	%r15, %r15
	je	.L278
.L268:
	movq	%r15, %rbp
	movq	%rbx, %rdx
	movq	%r14, %rcx
	movq	(%r15), %r15
	movq	8(%rbp), %rsi
	call	__gcov_topn_values_profiler
	movq	%rbx, %rdx
	movq	%r13, %rcx
	call	__gcov_pow2_profiler
	movq	%rsi, %rax
	xorl	%edx, %edx
	movl	$2, %r9d
	divq	%rbx
	xorl	%r8d, %r8d
	movq	%r12, %rcx
	movq	%rdx, %rsi
	movq	%rax, %rdx
	call	__gcov_interval_profiler
	movq	32(%rsp), %rax
	leaq	(%rax,%rsi,8), %rax
	movq	(%rax), %rdx
	testq	%rdx, %rdx
	je	.L279
	movq	(%rdx), %rdx
	addq	$1, 16+__gcov0._ZNSt10_HashtableIySt4pairIKySt10unique_ptrIN8Polyfish11EndgameBaseINS3_5ValueEEESt14default_deleteIS6_EEESaISA_ENSt8__detail10_Select1stESt8equal_toIyESt4hashIyENSC_18_Mod_range_hashingENSC_20_Default_ranged_hashENSC_20_Prime_rehash_policyENSC_17_Hashtable_traitsILb0ELb0ELb1EEEE13_M_rehash_auxEySt17integral_constantIbLb1EE(%rip)
	movq	%rdx, 0(%rbp)
	movq	(%rax), %rax
	movq	%rbp, (%rax)
	testq	%r15, %r15
	jne	.L268
.L278:
	movq	8(%rdi), %rdx
	movq	(%rdi), %rcx
	cmpq	56(%rsp), %rcx
	je	.L280
	salq	$3, %rdx
	addq	$1, 48+__gcov0._ZNSt10_HashtableIySt4pairIKySt10unique_ptrIN8Polyfish11EndgameBaseINS3_5ValueEEESt14default_deleteIS6_EEESaISA_ENSt8__detail10_Select1stESt8equal_toIyESt4hashIyENSC_18_Mod_range_hashingENSC_20_Default_ranged_hashENSC_20_Prime_rehash_policyENSC_17_Hashtable_traitsILb0ELb0ELb1EEEE13_M_rehash_auxEySt17integral_constantIbLb1EE(%rip)
	call	_ZdlPvy
	addq	$1, 56+__gcov0._ZNSt10_HashtableIySt4pairIKySt10unique_ptrIN8Polyfish11EndgameBaseINS3_5ValueEEESt14default_deleteIS6_EEESaISA_ENSt8__detail10_Select1stESt8equal_toIyESt4hashIyENSC_18_Mod_range_hashingENSC_20_Default_ranged_hashENSC_20_Prime_rehash_policyENSC_17_Hashtable_traitsILb0ELb0ELb1EEEE13_M_rehash_auxEySt17integral_constantIbLb1EE(%rip)
.L270:
	movq	32(%rsp), %rax
	movq	%rbx, 8(%rdi)
	movq	%rax, (%rdi)
	addq	$72, %rsp
	popq	%rbx
	popq	%rsi
	popq	%rdi
	popq	%rbp
	popq	%r12
	popq	%r13
	popq	%r14
	popq	%r15
	ret
	.p2align 4,,10
	.p2align 3
.L279:
	movq	16(%rdi), %rdx
	movq	48(%rsp), %rcx
	movq	%rdx, 0(%rbp)
	movq	%rbp, 16(%rdi)
	movq	%rcx, (%rax)
	cmpq	$0, 0(%rbp)
	je	.L281
	movq	40(%rsp), %rcx
	movq	32(%rsp), %rax
	movq	%rsi, 40(%rsp)
	addq	$1, 24+__gcov0._ZNSt10_HashtableIySt4pairIKySt10unique_ptrIN8Polyfish11EndgameBaseINS3_5ValueEEESt14default_deleteIS6_EEESaISA_ENSt8__detail10_Select1stESt8equal_toIyESt4hashIyENSC_18_Mod_range_hashingENSC_20_Default_ranged_hashENSC_20_Prime_rehash_policyENSC_17_Hashtable_traitsILb0ELb0ELb1EEEE13_M_rehash_auxEySt17integral_constantIbLb1EE(%rip)
	movq	%rbp, (%rax,%rcx,8)
	jmp	.L276
	.p2align 4,,10
	.p2align 3
.L281:
	addq	$1, 32+__gcov0._ZNSt10_HashtableIySt4pairIKySt10unique_ptrIN8Polyfish11EndgameBaseINS3_5ValueEEESt14default_deleteIS6_EEESaISA_ENSt8__detail10_Select1stESt8equal_toIyESt4hashIyENSC_18_Mod_range_hashingENSC_20_Default_ranged_hashENSC_20_Prime_rehash_policyENSC_17_Hashtable_traitsILb0ELb0ELb1EEEE13_M_rehash_auxEySt17integral_constantIbLb1EE(%rip)
	movq	%rsi, 40(%rsp)
	jmp	.L276
	.p2align 4,,10
	.p2align 3
.L277:
	addq	$1, __gcov0._ZNSt10_HashtableIySt4pairIKySt10unique_ptrIN8Polyfish11EndgameBaseINS3_5ValueEEESt14default_deleteIS6_EEESaISA_ENSt8__detail10_Select1stESt8equal_toIyESt4hashIyENSC_18_Mod_range_hashingENSC_20_Default_ranged_hashENSC_20_Prime_rehash_policyENSC_17_Hashtable_traitsILb0ELb0ELb1EEEE13_M_rehash_auxEySt17integral_constantIbLb1EE(%rip)
	movq	$0, 48(%rdi)
	movq	%rax, 32(%rsp)
	jmp	.L261
	.p2align 4,,10
	.p2align 3
.L280:
	addq	$1, 40+__gcov0._ZNSt10_HashtableIySt4pairIKySt10unique_ptrIN8Polyfish11EndgameBaseINS3_5ValueEEESt14default_deleteIS6_EEESaISA_ENSt8__detail10_Select1stESt8equal_toIyESt4hashIyENSC_18_Mod_range_hashingENSC_20_Default_ranged_hashENSC_20_Prime_rehash_policyENSC_17_Hashtable_traitsILb0ELb0ELb1EEEE13_M_rehash_auxEySt17integral_constantIbLb1EE(%rip)
	jmp	.L270
	.seh_endproc
	.align 2
	.p2align 4
	.def	_ZNSt8__detail16_Hashtable_allocISaINS_10_Hash_nodeISt4pairIKySt10unique_ptrIN8Polyfish11EndgameBaseINS5_11ScaleFactorEEESt14default_deleteIS8_EEELb0EEEEE19_M_allocate_bucketsEy;	.scl	3;	.type	32;	.endef
	.seh_proc	_ZNSt8__detail16_Hashtable_allocISaINS_10_Hash_nodeISt4pairIKySt10unique_ptrIN8Polyfish11EndgameBaseINS5_11ScaleFactorEEESt14default_deleteIS8_EEELb0EEEEE19_M_allocate_bucketsEy
_ZNSt8__detail16_Hashtable_allocISaINS_10_Hash_nodeISt4pairIKySt10unique_ptrIN8Polyfish11EndgameBaseINS5_11ScaleFactorEEESt14default_deleteIS8_EEELb0EEEEE19_M_allocate_bucketsEy:
	pushq	%r12
	.seh_pushreg	%r12
	pushq	%rbx
	.seh_pushreg	%rbx
	subq	$40, %rsp
	.seh_stackalloc	40
	.seh_endprologue
	movq	.refptr.__gcov_indirect_call(%rip), %r12
	movq	(%r12), %rax
	movq	%rdx, %rbx
	testq	%rax, %rax
	jne	.L294
	addq	$1, __gcov0._ZNSt8__detail16_Hashtable_allocISaINS_10_Hash_nodeISt4pairIKySt10unique_ptrIN8Polyfish11EndgameBaseINS5_11ScaleFactorEEESt14default_deleteIS8_EEELb0EEEEE19_M_allocate_bucketsEy(%rip)
	cmpq	$0, __gcov7._ZNSt8__detail16_Hashtable_allocISaINS_10_Hash_nodeISt4pairIKySt10unique_ptrIN8Polyfish11EndgameBaseINS5_11ScaleFactorEEESt14default_deleteIS8_EEELb0EEEEE19_M_allocate_bucketsEy(%rip)
	je	.L289
.L285:
	cmpq	$0, __gcov7._ZN9__gnu_cxx13new_allocatorIPNSt8__detail15_Hash_node_baseEE8allocateEyPKv(%rip)
	je	.L295
.L286:
	movq	%rbx, %rax
	shrq	$60, %rax
	jne	.L296
.L287:
	salq	$3, %rbx
	addq	$1, __gcov0._ZN9__gnu_cxx13new_allocatorIPNSt8__detail15_Hash_node_baseEE8allocateEyPKv(%rip)
	movq	%rbx, %rcx
	call	_Znwy
	movq	%rbx, %rdx
	leaq	__gcov3._ZNSt8__detail16_Hashtable_allocISaINS_10_Hash_nodeISt4pairIKySt10unique_ptrIN8Polyfish11EndgameBaseINS5_11ScaleFactorEEESt14default_deleteIS8_EEELb0EEEEE19_M_allocate_bucketsEy(%rip), %rcx
	addq	$1, 24+__gcov0._ZN9__gnu_cxx13new_allocatorIPNSt8__detail15_Hash_node_baseEE8allocateEyPKv(%rip)
	movq	%rax, %r12
	addq	$1, 8+__gcov0._ZNSt8__detail16_Hashtable_allocISaINS_10_Hash_nodeISt4pairIKySt10unique_ptrIN8Polyfish11EndgameBaseINS5_11ScaleFactorEEESt14default_deleteIS8_EEELb0EEEEE19_M_allocate_bucketsEy(%rip)
	call	__gcov_topn_values_profiler
	movq	%rbx, %rdx
	leaq	__gcov5._ZNSt8__detail16_Hashtable_allocISaINS_10_Hash_nodeISt4pairIKySt10unique_ptrIN8Polyfish11EndgameBaseINS5_11ScaleFactorEEESt14default_deleteIS8_EEELb0EEEEE19_M_allocate_bucketsEy(%rip), %rcx
	call	__gcov_average_profiler
	movq	%r12, %rdx
	leaq	__gcov6._ZNSt8__detail16_Hashtable_allocISaINS_10_Hash_nodeISt4pairIKySt10unique_ptrIN8Polyfish11EndgameBaseINS5_11ScaleFactorEEESt14default_deleteIS8_EEELb0EEEEE19_M_allocate_bucketsEy(%rip), %rcx
	call	__gcov_ior_profiler
	movq	%rbx, %r8
	xorl	%edx, %edx
	movq	%r12, %rcx
	call	memset
	addq	$40, %rsp
	popq	%rbx
	popq	%r12
	ret
	.p2align 4,,10
	.p2align 3
.L294:
	leaq	_ZNSt8__detail16_Hashtable_allocISaINS_10_Hash_nodeISt4pairIKySt10unique_ptrIN8Polyfish11EndgameBaseINS5_11ScaleFactorEEESt14default_deleteIS8_EEELb0EEEEE19_M_allocate_bucketsEy(%rip), %rdx
	movl	$914489083, %ecx
	call	__gcov_indirect_call_profiler_v4
	addq	$1, __gcov0._ZNSt8__detail16_Hashtable_allocISaINS_10_Hash_nodeISt4pairIKySt10unique_ptrIN8Polyfish11EndgameBaseINS5_11ScaleFactorEEESt14default_deleteIS8_EEELb0EEEEE19_M_allocate_bucketsEy(%rip)
	movq	(%r12), %rax
	cmpq	$0, __gcov7._ZNSt8__detail16_Hashtable_allocISaINS_10_Hash_nodeISt4pairIKySt10unique_ptrIN8Polyfish11EndgameBaseINS5_11ScaleFactorEEESt14default_deleteIS8_EEELb0EEEEE19_M_allocate_bucketsEy(%rip)
	je	.L289
.L284:
	testq	%rax, %rax
	je	.L285
	leaq	_ZN9__gnu_cxx13new_allocatorIPNSt8__detail15_Hash_node_baseEE8allocateEyPKv(%rip), %rdx
	movl	$829196292, %ecx
	call	__gcov_indirect_call_profiler_v4
	cmpq	$0, __gcov7._ZN9__gnu_cxx13new_allocatorIPNSt8__detail15_Hash_node_baseEE8allocateEyPKv(%rip)
	jne	.L286
	.p2align 4,,10
	.p2align 3
.L295:
	movq	.refptr.__gcov_time_profiler_counter(%rip), %rdx
	movq	(%rdx), %rax
	addq	$1, %rax
	movq	%rax, __gcov7._ZN9__gnu_cxx13new_allocatorIPNSt8__detail15_Hash_node_baseEE8allocateEyPKv(%rip)
	movq	%rax, (%rdx)
	movq	%rbx, %rax
	shrq	$60, %rax
	je	.L287
	.p2align 4,,10
	.p2align 3
.L296:
	shrq	$61, %rbx
	je	.L288
	addq	$1, 8+__gcov0._ZN9__gnu_cxx13new_allocatorIPNSt8__detail15_Hash_node_baseEE8allocateEyPKv(%rip)
	call	_ZSt28__throw_bad_array_new_lengthv
	.p2align 4,,10
	.p2align 3
.L289:
	movq	.refptr.__gcov_time_profiler_counter(%rip), %rcx
	movq	(%rcx), %rdx
	addq	$1, %rdx
	movq	%rdx, __gcov7._ZNSt8__detail16_Hashtable_allocISaINS_10_Hash_nodeISt4pairIKySt10unique_ptrIN8Polyfish11EndgameBaseINS5_11ScaleFactorEEESt14default_deleteIS8_EEELb0EEEEE19_M_allocate_bucketsEy(%rip)
	movq	%rdx, (%rcx)
	jmp	.L284
	.p2align 4,,10
	.p2align 3
.L288:
	addq	$1, 16+__gcov0._ZN9__gnu_cxx13new_allocatorIPNSt8__detail15_Hash_node_baseEE8allocateEyPKv(%rip)
	call	_ZSt17__throw_bad_allocv
	nop
	.seh_endproc
	.align 2
	.p2align 4
	.def	_ZNSt10_HashtableIySt4pairIKySt10unique_ptrIN8Polyfish11EndgameBaseINS3_11ScaleFactorEEESt14default_deleteIS6_EEESaISA_ENSt8__detail10_Select1stESt8equal_toIyESt4hashIyENSC_18_Mod_range_hashingENSC_20_Default_ranged_hashENSC_20_Prime_rehash_policyENSC_17_Hashtable_traitsILb0ELb0ELb1EEEE13_M_rehash_auxEySt17integral_constantIbLb1EE;	.scl	3;	.type	32;	.endef
	.seh_proc	_ZNSt10_HashtableIySt4pairIKySt10unique_ptrIN8Polyfish11EndgameBaseINS3_11ScaleFactorEEESt14default_deleteIS6_EEESaISA_ENSt8__detail10_Select1stESt8equal_toIyESt4hashIyENSC_18_Mod_range_hashingENSC_20_Default_ranged_hashENSC_20_Prime_rehash_policyENSC_17_Hashtable_traitsILb0ELb0ELb1EEEE13_M_rehash_auxEySt17integral_constantIbLb1EE
_ZNSt10_HashtableIySt4pairIKySt10unique_ptrIN8Polyfish11EndgameBaseINS3_11ScaleFactorEEESt14default_deleteIS6_EEESaISA_ENSt8__detail10_Select1stESt8equal_toIyESt4hashIyENSC_18_Mod_range_hashingENSC_20_Default_ranged_hashENSC_20_Prime_rehash_policyENSC_17_Hashtable_traitsILb0ELb0ELb1EEEE13_M_rehash_auxEySt17integral_constantIbLb1EE:
	pushq	%r15
	.seh_pushreg	%r15
	pushq	%r14
	.seh_pushreg	%r14
	pushq	%r13
	.seh_pushreg	%r13
	pushq	%r12
	.seh_pushreg	%r12
	pushq	%rbp
	.seh_pushreg	%rbp
	pushq	%rdi
	.seh_pushreg	%rdi
	pushq	%rsi
	.seh_pushreg	%rsi
	pushq	%rbx
	.seh_pushreg	%rbx
	subq	$72, %rsp
	.seh_stackalloc	72
	.seh_endprologue
	movq	.refptr.__gcov_indirect_call(%rip), %rax
	cmpq	$0, (%rax)
	movq	%rcx, %rdi
	movq	%rdx, %rbx
	je	.L298
	leaq	_ZNSt10_HashtableIySt4pairIKySt10unique_ptrIN8Polyfish11EndgameBaseINS3_11ScaleFactorEEESt14default_deleteIS6_EEESaISA_ENSt8__detail10_Select1stESt8equal_toIyESt4hashIyENSC_18_Mod_range_hashingENSC_20_Default_ranged_hashENSC_20_Prime_rehash_policyENSC_17_Hashtable_traitsILb0ELb0ELb1EEEE13_M_rehash_auxEySt17integral_constantIbLb1EE(%rip), %rdx
	movl	$1050139884, %ecx
	call	__gcov_indirect_call_profiler_v4
.L298:
	cmpq	$0, __gcov7._ZNSt10_HashtableIySt4pairIKySt10unique_ptrIN8Polyfish11EndgameBaseINS3_11ScaleFactorEEESt14default_deleteIS6_EEESaISA_ENSt8__detail10_Select1stESt8equal_toIyESt4hashIyENSC_18_Mod_range_hashingENSC_20_Default_ranged_hashENSC_20_Prime_rehash_policyENSC_17_Hashtable_traitsILb0ELb0ELb1EEEE13_M_rehash_auxEySt17integral_constantIbLb1EE(%rip)
	jne	.L299
	movq	.refptr.__gcov_time_profiler_counter(%rip), %rdx
	movq	(%rdx), %rax
	addq	$1, %rax
	movq	%rax, __gcov7._ZNSt10_HashtableIySt4pairIKySt10unique_ptrIN8Polyfish11EndgameBaseINS3_11ScaleFactorEEESt14default_deleteIS6_EEESaISA_ENSt8__detail10_Select1stESt8equal_toIyESt4hashIyENSC_18_Mod_range_hashingENSC_20_Default_ranged_hashENSC_20_Prime_rehash_policyENSC_17_Hashtable_traitsILb0ELb0ELb1EEEE13_M_rehash_auxEySt17integral_constantIbLb1EE(%rip)
	movq	%rax, (%rdx)
.L299:
	leaq	48(%rdi), %rax
	movq	%rax, 56(%rsp)
	cmpq	$1, %rbx
	je	.L317
	movq	%rbx, %rdx
	movq	%rdi, %rcx
	addq	$1, 8+__gcov0._ZNSt10_HashtableIySt4pairIKySt10unique_ptrIN8Polyfish11EndgameBaseINS3_11ScaleFactorEEESt14default_deleteIS6_EEESaISA_ENSt8__detail10_Select1stESt8equal_toIyESt4hashIyENSC_18_Mod_range_hashingENSC_20_Default_ranged_hashENSC_20_Prime_rehash_policyENSC_17_Hashtable_traitsILb0ELb0ELb1EEEE13_M_rehash_auxEySt17integral_constantIbLb1EE(%rip)
	call	_ZNSt8__detail16_Hashtable_allocISaINS_10_Hash_nodeISt4pairIKySt10unique_ptrIN8Polyfish11EndgameBaseINS5_11ScaleFactorEEESt14default_deleteIS8_EEELb0EEEEE19_M_allocate_bucketsEy
	movq	%rax, 32(%rsp)
.L301:
	leaq	16(%rdi), %rax
	movq	16(%rdi), %r15
	movq	$0, 40(%rsp)
	leaq	__gcov3._ZNSt10_HashtableIySt4pairIKySt10unique_ptrIN8Polyfish11EndgameBaseINS3_11ScaleFactorEEESt14default_deleteIS6_EEESaISA_ENSt8__detail10_Select1stESt8equal_toIyESt4hashIyENSC_18_Mod_range_hashingENSC_20_Default_ranged_hashENSC_20_Prime_rehash_policyENSC_17_Hashtable_traitsILb0ELb0ELb1EEEE13_M_rehash_auxEySt17integral_constantIbLb1EE(%rip), %r14
	movq	$0, 16(%rdi)
	leaq	__gcov2._ZNSt10_HashtableIySt4pairIKySt10unique_ptrIN8Polyfish11EndgameBaseINS3_11ScaleFactorEEESt14default_deleteIS6_EEESaISA_ENSt8__detail10_Select1stESt8equal_toIyESt4hashIyENSC_18_Mod_range_hashingENSC_20_Default_ranged_hashENSC_20_Prime_rehash_policyENSC_17_Hashtable_traitsILb0ELb0ELb1EEEE13_M_rehash_auxEySt17integral_constantIbLb1EE(%rip), %r13
	leaq	__gcov1._ZNSt10_HashtableIySt4pairIKySt10unique_ptrIN8Polyfish11EndgameBaseINS3_11ScaleFactorEEESt14default_deleteIS6_EEESaISA_ENSt8__detail10_Select1stESt8equal_toIyESt4hashIyENSC_18_Mod_range_hashingENSC_20_Default_ranged_hashENSC_20_Prime_rehash_policyENSC_17_Hashtable_traitsILb0ELb0ELb1EEEE13_M_rehash_auxEySt17integral_constantIbLb1EE(%rip), %r12
	movq	%rax, 48(%rsp)
.L316:
	testq	%r15, %r15
	je	.L318
.L308:
	movq	%r15, %rbp
	movq	%rbx, %rdx
	movq	%r14, %rcx
	movq	(%r15), %r15
	movq	8(%rbp), %rsi
	call	__gcov_topn_values_profiler
	movq	%rbx, %rdx
	movq	%r13, %rcx
	call	__gcov_pow2_profiler
	movq	%rsi, %rax
	xorl	%edx, %edx
	movl	$2, %r9d
	divq	%rbx
	xorl	%r8d, %r8d
	movq	%r12, %rcx
	movq	%rdx, %rsi
	movq	%rax, %rdx
	call	__gcov_interval_profiler
	movq	32(%rsp), %rax
	leaq	(%rax,%rsi,8), %rax
	movq	(%rax), %rdx
	testq	%rdx, %rdx
	je	.L319
	movq	(%rdx), %rdx
	addq	$1, 16+__gcov0._ZNSt10_HashtableIySt4pairIKySt10unique_ptrIN8Polyfish11EndgameBaseINS3_11ScaleFactorEEESt14default_deleteIS6_EEESaISA_ENSt8__detail10_Select1stESt8equal_toIyESt4hashIyENSC_18_Mod_range_hashingENSC_20_Default_ranged_hashENSC_20_Prime_rehash_policyENSC_17_Hashtable_traitsILb0ELb0ELb1EEEE13_M_rehash_auxEySt17integral_constantIbLb1EE(%rip)
	movq	%rdx, 0(%rbp)
	movq	(%rax), %rax
	movq	%rbp, (%rax)
	testq	%r15, %r15
	jne	.L308
.L318:
	movq	8(%rdi), %rdx
	movq	(%rdi), %rcx
	cmpq	56(%rsp), %rcx
	je	.L320
	salq	$3, %rdx
	addq	$1, 48+__gcov0._ZNSt10_HashtableIySt4pairIKySt10unique_ptrIN8Polyfish11EndgameBaseINS3_11ScaleFactorEEESt14default_deleteIS6_EEESaISA_ENSt8__detail10_Select1stESt8equal_toIyESt4hashIyENSC_18_Mod_range_hashingENSC_20_Default_ranged_hashENSC_20_Prime_rehash_policyENSC_17_Hashtable_traitsILb0ELb0ELb1EEEE13_M_rehash_auxEySt17integral_constantIbLb1EE(%rip)
	call	_ZdlPvy
	addq	$1, 56+__gcov0._ZNSt10_HashtableIySt4pairIKySt10unique_ptrIN8Polyfish11EndgameBaseINS3_11ScaleFactorEEESt14default_deleteIS6_EEESaISA_ENSt8__detail10_Select1stESt8equal_toIyESt4hashIyENSC_18_Mod_range_hashingENSC_20_Default_ranged_hashENSC_20_Prime_rehash_policyENSC_17_Hashtable_traitsILb0ELb0ELb1EEEE13_M_rehash_auxEySt17integral_constantIbLb1EE(%rip)
.L310:
	movq	32(%rsp), %rax
	movq	%rbx, 8(%rdi)
	movq	%rax, (%rdi)
	addq	$72, %rsp
	popq	%rbx
	popq	%rsi
	popq	%rdi
	popq	%rbp
	popq	%r12
	popq	%r13
	popq	%r14
	popq	%r15
	ret
	.p2align 4,,10
	.p2align 3
.L319:
	movq	16(%rdi), %rdx
	movq	48(%rsp), %rcx
	movq	%rdx, 0(%rbp)
	movq	%rbp, 16(%rdi)
	movq	%rcx, (%rax)
	cmpq	$0, 0(%rbp)
	je	.L321
	movq	40(%rsp), %rcx
	movq	32(%rsp), %rax
	movq	%rsi, 40(%rsp)
	addq	$1, 24+__gcov0._ZNSt10_HashtableIySt4pairIKySt10unique_ptrIN8Polyfish11EndgameBaseINS3_11ScaleFactorEEESt14default_deleteIS6_EEESaISA_ENSt8__detail10_Select1stESt8equal_toIyESt4hashIyENSC_18_Mod_range_hashingENSC_20_Default_ranged_hashENSC_20_Prime_rehash_policyENSC_17_Hashtable_traitsILb0ELb0ELb1EEEE13_M_rehash_auxEySt17integral_constantIbLb1EE(%rip)
	movq	%rbp, (%rax,%rcx,8)
	jmp	.L316
	.p2align 4,,10
	.p2align 3
.L321:
	addq	$1, 32+__gcov0._ZNSt10_HashtableIySt4pairIKySt10unique_ptrIN8Polyfish11EndgameBaseINS3_11ScaleFactorEEESt14default_deleteIS6_EEESaISA_ENSt8__detail10_Select1stESt8equal_toIyESt4hashIyENSC_18_Mod_range_hashingENSC_20_Default_ranged_hashENSC_20_Prime_rehash_policyENSC_17_Hashtable_traitsILb0ELb0ELb1EEEE13_M_rehash_auxEySt17integral_constantIbLb1EE(%rip)
	movq	%rsi, 40(%rsp)
	jmp	.L316
	.p2align 4,,10
	.p2align 3
.L317:
	addq	$1, __gcov0._ZNSt10_HashtableIySt4pairIKySt10unique_ptrIN8Polyfish11EndgameBaseINS3_11ScaleFactorEEESt14default_deleteIS6_EEESaISA_ENSt8__detail10_Select1stESt8equal_toIyESt4hashIyENSC_18_Mod_range_hashingENSC_20_Default_ranged_hashENSC_20_Prime_rehash_policyENSC_17_Hashtable_traitsILb0ELb0ELb1EEEE13_M_rehash_auxEySt17integral_constantIbLb1EE(%rip)
	movq	$0, 48(%rdi)
	movq	%rax, 32(%rsp)
	jmp	.L301
	.p2align 4,,10
	.p2align 3
.L320:
	addq	$1, 40+__gcov0._ZNSt10_HashtableIySt4pairIKySt10unique_ptrIN8Polyfish11EndgameBaseINS3_11ScaleFactorEEESt14default_deleteIS6_EEESaISA_ENSt8__detail10_Select1stESt8equal_toIyESt4hashIyENSC_18_Mod_range_hashingENSC_20_Default_ranged_hashENSC_20_Prime_rehash_policyENSC_17_Hashtable_traitsILb0ELb0ELb1EEEE13_M_rehash_auxEySt17integral_constantIbLb1EE(%rip)
	jmp	.L310
	.seh_endproc
	.align 2
	.p2align 4
	.def	_ZNSt10_HashtableIySt4pairIKySt10unique_ptrIN8Polyfish11EndgameBaseINS3_5ValueEEESt14default_deleteIS6_EEESaISA_ENSt8__detail10_Select1stESt8equal_toIyESt4hashIyENSC_18_Mod_range_hashingENSC_20_Default_ranged_hashENSC_20_Prime_rehash_policyENSC_17_Hashtable_traitsILb0ELb0ELb1EEEE21_M_insert_unique_nodeEyyPNSC_10_Hash_nodeISA_Lb0EEEy;	.scl	3;	.type	32;	.endef
	.seh_proc	_ZNSt10_HashtableIySt4pairIKySt10unique_ptrIN8Polyfish11EndgameBaseINS3_5ValueEEESt14default_deleteIS6_EEESaISA_ENSt8__detail10_Select1stESt8equal_toIyESt4hashIyENSC_18_Mod_range_hashingENSC_20_Default_ranged_hashENSC_20_Prime_rehash_policyENSC_17_Hashtable_traitsILb0ELb0ELb1EEEE21_M_insert_unique_nodeEyyPNSC_10_Hash_nodeISA_Lb0EEEy
_ZNSt10_HashtableIySt4pairIKySt10unique_ptrIN8Polyfish11EndgameBaseINS3_5ValueEEESt14default_deleteIS6_EEESaISA_ENSt8__detail10_Select1stESt8equal_toIyESt4hashIyENSC_18_Mod_range_hashingENSC_20_Default_ranged_hashENSC_20_Prime_rehash_policyENSC_17_Hashtable_traitsILb0ELb0ELb1EEEE21_M_insert_unique_nodeEyyPNSC_10_Hash_nodeISA_Lb0EEEy:
	pushq	%r13
	.seh_pushreg	%r13
	pushq	%r12
	.seh_pushreg	%r12
	pushq	%rdi
	.seh_pushreg	%rdi
	pushq	%rsi
	.seh_pushreg	%rsi
	pushq	%rbx
	.seh_pushreg	%rbx
	subq	$64, %rsp
	.seh_stackalloc	64
	.seh_endprologue
	movq	.refptr.__gcov_indirect_call(%rip), %rax
	cmpq	$0, (%rax)
	movq	%rcx, %rbx
	movq	%rdx, %r13
	movq	%r8, %rsi
	movq	%r9, %r12
	je	.L323
	leaq	_ZNSt10_HashtableIySt4pairIKySt10unique_ptrIN8Polyfish11EndgameBaseINS3_5ValueEEESt14default_deleteIS6_EEESaISA_ENSt8__detail10_Select1stESt8equal_toIyESt4hashIyENSC_18_Mod_range_hashingENSC_20_Default_ranged_hashENSC_20_Prime_rehash_policyENSC_17_Hashtable_traitsILb0ELb0ELb1EEEE21_M_insert_unique_nodeEyyPNSC_10_Hash_nodeISA_Lb0EEEy(%rip), %rdx
	movl	$317326615, %ecx
	call	__gcov_indirect_call_profiler_v4
.L323:
	addq	$1, __gcov0._ZNSt10_HashtableIySt4pairIKySt10unique_ptrIN8Polyfish11EndgameBaseINS3_5ValueEEESt14default_deleteIS6_EEESaISA_ENSt8__detail10_Select1stESt8equal_toIyESt4hashIyENSC_18_Mod_range_hashingENSC_20_Default_ranged_hashENSC_20_Prime_rehash_policyENSC_17_Hashtable_traitsILb0ELb0ELb1EEEE21_M_insert_unique_nodeEyyPNSC_10_Hash_nodeISA_Lb0EEEy(%rip)
	cmpq	$0, __gcov7._ZNSt10_HashtableIySt4pairIKySt10unique_ptrIN8Polyfish11EndgameBaseINS3_5ValueEEESt14default_deleteIS6_EEESaISA_ENSt8__detail10_Select1stESt8equal_toIyESt4hashIyENSC_18_Mod_range_hashingENSC_20_Default_ranged_hashENSC_20_Prime_rehash_policyENSC_17_Hashtable_traitsILb0ELb0ELb1EEEE21_M_insert_unique_nodeEyyPNSC_10_Hash_nodeISA_Lb0EEEy(%rip)
	jne	.L324
	movq	.refptr.__gcov_time_profiler_counter(%rip), %rax
	movq	(%rax), %rdi
	leaq	1(%rdi), %rcx
	movq	%rcx, __gcov7._ZNSt10_HashtableIySt4pairIKySt10unique_ptrIN8Polyfish11EndgameBaseINS3_5ValueEEESt14default_deleteIS6_EEESaISA_ENSt8__detail10_Select1stESt8equal_toIyESt4hashIyENSC_18_Mod_range_hashingENSC_20_Default_ranged_hashENSC_20_Prime_rehash_policyENSC_17_Hashtable_traitsILb0ELb0ELb1EEEE21_M_insert_unique_nodeEyyPNSC_10_Hash_nodeISA_Lb0EEEy(%rip)
	movq	%rcx, (%rax)
.L324:
	movq	144(%rsp), %rax
	movq	24(%rbx), %r9
	leaq	32(%rbx), %rdx
	leaq	48(%rsp), %rcx
	movq	8(%rbx), %r8
	movq	%rax, 32(%rsp)
	call	_ZNKSt8__detail20_Prime_rehash_policy14_M_need_rehashEyyy
	addq	$1, 8+__gcov0._ZNSt10_HashtableIySt4pairIKySt10unique_ptrIN8Polyfish11EndgameBaseINS3_5ValueEEESt14default_deleteIS6_EEESaISA_ENSt8__detail10_Select1stESt8equal_toIyESt4hashIyENSC_18_Mod_range_hashingENSC_20_Default_ranged_hashENSC_20_Prime_rehash_policyENSC_17_Hashtable_traitsILb0ELb0ELb1EEEE21_M_insert_unique_nodeEyyPNSC_10_Hash_nodeISA_Lb0EEEy(%rip)
	cmpb	$0, 48(%rsp)
	movq	56(%rsp), %rdx
	jne	.L326
.L325:
	movq	%r12, %r8
	movq	%r13, %rdx
	movq	%rbx, %rcx
	call	_ZNSt10_HashtableIySt4pairIKySt10unique_ptrIN8Polyfish11EndgameBaseINS3_5ValueEEESt14default_deleteIS6_EEESaISA_ENSt8__detail10_Select1stESt8equal_toIyESt4hashIyENSC_18_Mod_range_hashingENSC_20_Default_ranged_hashENSC_20_Prime_rehash_policyENSC_17_Hashtable_traitsILb0ELb0ELb1EEEE22_M_insert_bucket_beginEyPNSC_10_Hash_nodeISA_Lb0EEE
	addq	$1, 32+__gcov0._ZNSt10_HashtableIySt4pairIKySt10unique_ptrIN8Polyfish11EndgameBaseINS3_5ValueEEESt14default_deleteIS6_EEESaISA_ENSt8__detail10_Select1stESt8equal_toIyESt4hashIyENSC_18_Mod_range_hashingENSC_20_Default_ranged_hashENSC_20_Prime_rehash_policyENSC_17_Hashtable_traitsILb0ELb0ELb1EEEE21_M_insert_unique_nodeEyyPNSC_10_Hash_nodeISA_Lb0EEEy(%rip)
	movq	%r12, %rax
	addq	$1, 24(%rbx)
	addq	$64, %rsp
	popq	%rbx
	popq	%rsi
	popq	%rdi
	popq	%r12
	popq	%r13
	ret
	.p2align 4,,10
	.p2align 3
.L326:
	xorl	%r8d, %r8d
	movq	%rbx, %rcx
	addq	$1, 16+__gcov0._ZNSt10_HashtableIySt4pairIKySt10unique_ptrIN8Polyfish11EndgameBaseINS3_5ValueEEESt14default_deleteIS6_EEESaISA_ENSt8__detail10_Select1stESt8equal_toIyESt4hashIyENSC_18_Mod_range_hashingENSC_20_Default_ranged_hashENSC_20_Prime_rehash_policyENSC_17_Hashtable_traitsILb0ELb0ELb1EEEE21_M_insert_unique_nodeEyyPNSC_10_Hash_nodeISA_Lb0EEEy(%rip)
	call	_ZNSt10_HashtableIySt4pairIKySt10unique_ptrIN8Polyfish11EndgameBaseINS3_5ValueEEESt14default_deleteIS6_EEESaISA_ENSt8__detail10_Select1stESt8equal_toIyESt4hashIyENSC_18_Mod_range_hashingENSC_20_Default_ranged_hashENSC_20_Prime_rehash_policyENSC_17_Hashtable_traitsILb0ELb0ELb1EEEE13_M_rehash_auxEySt17integral_constantIbLb1EE
	movq	8(%rbx), %rdi
	leaq	__gcov3._ZNSt10_HashtableIySt4pairIKySt10unique_ptrIN8Polyfish11EndgameBaseINS3_5ValueEEESt14default_deleteIS6_EEESaISA_ENSt8__detail10_Select1stESt8equal_toIyESt4hashIyENSC_18_Mod_range_hashingENSC_20_Default_ranged_hashENSC_20_Prime_rehash_policyENSC_17_Hashtable_traitsILb0ELb0ELb1EEEE21_M_insert_unique_nodeEyyPNSC_10_Hash_nodeISA_Lb0EEEy(%rip), %rcx
	addq	$1, 24+__gcov0._ZNSt10_HashtableIySt4pairIKySt10unique_ptrIN8Polyfish11EndgameBaseINS3_5ValueEEESt14default_deleteIS6_EEESaISA_ENSt8__detail10_Select1stESt8equal_toIyESt4hashIyENSC_18_Mod_range_hashingENSC_20_Default_ranged_hashENSC_20_Prime_rehash_policyENSC_17_Hashtable_traitsILb0ELb0ELb1EEEE21_M_insert_unique_nodeEyyPNSC_10_Hash_nodeISA_Lb0EEEy(%rip)
	movq	%rdi, %rdx
	call	__gcov_topn_values_profiler
	movq	%rdi, %rdx
	leaq	__gcov2._ZNSt10_HashtableIySt4pairIKySt10unique_ptrIN8Polyfish11EndgameBaseINS3_5ValueEEESt14default_deleteIS6_EEESaISA_ENSt8__detail10_Select1stESt8equal_toIyESt4hashIyENSC_18_Mod_range_hashingENSC_20_Default_ranged_hashENSC_20_Prime_rehash_policyENSC_17_Hashtable_traitsILb0ELb0ELb1EEEE21_M_insert_unique_nodeEyyPNSC_10_Hash_nodeISA_Lb0EEEy(%rip), %rcx
	call	__gcov_pow2_profiler
	movq	%rsi, %rax
	xorl	%edx, %edx
	movl	$2, %r9d
	divq	%rdi
	xorl	%r8d, %r8d
	leaq	__gcov1._ZNSt10_HashtableIySt4pairIKySt10unique_ptrIN8Polyfish11EndgameBaseINS3_5ValueEEESt14default_deleteIS6_EEESaISA_ENSt8__detail10_Select1stESt8equal_toIyESt4hashIyENSC_18_Mod_range_hashingENSC_20_Default_ranged_hashENSC_20_Prime_rehash_policyENSC_17_Hashtable_traitsILb0ELb0ELb1EEEE21_M_insert_unique_nodeEyyPNSC_10_Hash_nodeISA_Lb0EEEy(%rip), %rcx
	movq	%rdx, %r13
	movq	%rax, %rdx
	call	__gcov_interval_profiler
	jmp	.L325
	.seh_endproc
	.align 2
	.p2align 4
	.globl	_ZNSt8__detail9_Map_baseIySt4pairIKySt10unique_ptrIN8Polyfish11EndgameBaseINS4_5ValueEEESt14default_deleteIS7_EEESaISB_ENS_10_Select1stESt8equal_toIyESt4hashIyENS_18_Mod_range_hashingENS_20_Default_ranged_hashENS_20_Prime_rehash_policyENS_17_Hashtable_traitsILb0ELb0ELb1EEELb1EEixEOy
	.def	_ZNSt8__detail9_Map_baseIySt4pairIKySt10unique_ptrIN8Polyfish11EndgameBaseINS4_5ValueEEESt14default_deleteIS7_EEESaISB_ENS_10_Select1stESt8equal_toIyESt4hashIyENS_18_Mod_range_hashingENS_20_Default_ranged_hashENS_20_Prime_rehash_policyENS_17_Hashtable_traitsILb0ELb0ELb1EEELb1EEixEOy;	.scl	2;	.type	32;	.endef
	.seh_proc	_ZNSt8__detail9_Map_baseIySt4pairIKySt10unique_ptrIN8Polyfish11EndgameBaseINS4_5ValueEEESt14default_deleteIS7_EEESaISB_ENS_10_Select1stESt8equal_toIyESt4hashIyENS_18_Mod_range_hashingENS_20_Default_ranged_hashENS_20_Prime_rehash_policyENS_17_Hashtable_traitsILb0ELb0ELb1EEELb1EEixEOy
_ZNSt8__detail9_Map_baseIySt4pairIKySt10unique_ptrIN8Polyfish11EndgameBaseINS4_5ValueEEESt14default_deleteIS7_EEESaISB_ENS_10_Select1stESt8equal_toIyESt4hashIyENS_18_Mod_range_hashingENS_20_Default_ranged_hashENS_20_Prime_rehash_policyENS_17_Hashtable_traitsILb0ELb0ELb1EEELb1EEixEOy:
	pushq	%r15
	.seh_pushreg	%r15
	pushq	%r14
	.seh_pushreg	%r14
	pushq	%r13
	.seh_pushreg	%r13
	pushq	%r12
	.seh_pushreg	%r12
	pushq	%rbp
	.seh_pushreg	%rbp
	pushq	%rdi
	.seh_pushreg	%rdi
	pushq	%rsi
	.seh_pushreg	%rsi
	pushq	%rbx
	.seh_pushreg	%rbx
	subq	$88, %rsp
	.seh_stackalloc	88
	.seh_endprologue
	movq	.refptr.__gcov_indirect_call(%rip), %rax
	cmpq	$0, (%rax)
	movq	%rcx, %r12
	movq	%rdx, %rsi
	jne	.L343
	cmpq	$0, __gcov7._ZNSt8__detail9_Map_baseIySt4pairIKySt10unique_ptrIN8Polyfish11EndgameBaseINS4_5ValueEEESt14default_deleteIS7_EEESaISB_ENS_10_Select1stESt8equal_toIyESt4hashIyENS_18_Mod_range_hashingENS_20_Default_ranged_hashENS_20_Prime_rehash_policyENS_17_Hashtable_traitsILb0ELb0ELb1EEELb1EEixEOy(%rip)
	je	.L344
.L329:
	movq	8(%r12), %rbx
	movq	(%rsi), %rdi
	leaq	__gcov3._ZNSt8__detail9_Map_baseIySt4pairIKySt10unique_ptrIN8Polyfish11EndgameBaseINS4_5ValueEEESt14default_deleteIS7_EEESaISB_ENS_10_Select1stESt8equal_toIyESt4hashIyENS_18_Mod_range_hashingENS_20_Default_ranged_hashENS_20_Prime_rehash_policyENS_17_Hashtable_traitsILb0ELb0ELb1EEELb1EEixEOy(%rip), %rcx
	movq	%rbx, %rdx
	movq	%rdi, 72(%rsp)
	call	__gcov_topn_values_profiler
	movq	%rbx, %rdx
	leaq	__gcov2._ZNSt8__detail9_Map_baseIySt4pairIKySt10unique_ptrIN8Polyfish11EndgameBaseINS4_5ValueEEESt14default_deleteIS7_EEESaISB_ENS_10_Select1stESt8equal_toIyESt4hashIyENS_18_Mod_range_hashingENS_20_Default_ranged_hashENS_20_Prime_rehash_policyENS_17_Hashtable_traitsILb0ELb0ELb1EEELb1EEixEOy(%rip), %rcx
	call	__gcov_pow2_profiler
	xorl	%edx, %edx
	movq	%rdi, %rax
	xorl	%r8d, %r8d
	divq	%rbx
	movl	$2, %r9d
	leaq	__gcov1._ZNSt8__detail9_Map_baseIySt4pairIKySt10unique_ptrIN8Polyfish11EndgameBaseINS4_5ValueEEESt14default_deleteIS7_EEESaISB_ENS_10_Select1stESt8equal_toIyESt4hashIyENS_18_Mod_range_hashingENS_20_Default_ranged_hashENS_20_Prime_rehash_policyENS_17_Hashtable_traitsILb0ELb0ELb1EEELb1EEixEOy(%rip), %rcx
	movq	%rdx, 56(%rsp)
	movq	%rax, %rdx
	call	__gcov_interval_profiler
	movq	.refptr.__gcov_indirect_call(%rip), %rax
	cmpq	$0, (%rax)
	jne	.L345
	cmpq	$0, __gcov7._ZNKSt10_HashtableIySt4pairIKySt10unique_ptrIN8Polyfish11EndgameBaseINS3_5ValueEEESt14default_deleteIS6_EEESaISA_ENSt8__detail10_Select1stESt8equal_toIyESt4hashIyENSC_18_Mod_range_hashingENSC_20_Default_ranged_hashENSC_20_Prime_rehash_policyENSC_17_Hashtable_traitsILb0ELb0ELb1EEEE12_M_find_nodeEyRS1_y.lto_priv.0(%rip)
	je	.L346
.L331:
	movq	(%r12), %rax
	movq	56(%rsp), %rbx
	movq	(%rax,%rbx,8), %rax
	testq	%rax, %rax
	je	.L347
	movq	(%rax), %rbx
	leaq	__gcov3._ZNKSt10_HashtableIySt4pairIKySt10unique_ptrIN8Polyfish11EndgameBaseINS3_5ValueEEESt14default_deleteIS6_EEESaISA_ENSt8__detail10_Select1stESt8equal_toIyESt4hashIyENSC_18_Mod_range_hashingENSC_20_Default_ranged_hashENSC_20_Prime_rehash_policyENSC_17_Hashtable_traitsILb0ELb0ELb1EEEE12_M_find_nodeEyRS1_y.lto_priv.0(%rip), %r14
	leaq	__gcov2._ZNKSt10_HashtableIySt4pairIKySt10unique_ptrIN8Polyfish11EndgameBaseINS3_5ValueEEESt14default_deleteIS6_EEESaISA_ENSt8__detail10_Select1stESt8equal_toIyESt4hashIyENSC_18_Mod_range_hashingENSC_20_Default_ranged_hashENSC_20_Prime_rehash_policyENSC_17_Hashtable_traitsILb0ELb0ELb1EEEE12_M_find_nodeEyRS1_y.lto_priv.0(%rip), %r15
	leaq	__gcov1._ZNKSt10_HashtableIySt4pairIKySt10unique_ptrIN8Polyfish11EndgameBaseINS3_5ValueEEESt14default_deleteIS6_EEESaISA_ENSt8__detail10_Select1stESt8equal_toIyESt4hashIyENSC_18_Mod_range_hashingENSC_20_Default_ranged_hashENSC_20_Prime_rehash_policyENSC_17_Hashtable_traitsILb0ELb0ELb1EEEE12_M_find_nodeEyRS1_y.lto_priv.0(%rip), %rbp
	movq	8(%rbx), %rdi
	cmpq	%rdi, (%rsi)
	je	.L334
.L350:
	movq	(%rbx), %r10
	testq	%r10, %r10
	je	.L348
	movq	8(%r12), %r13
	movq	8(%r10), %rdi
	movq	%r14, %rcx
	movq	%r10, 64(%rsp)
	addq	$1, 16+__gcov0._ZNKSt10_HashtableIySt4pairIKySt10unique_ptrIN8Polyfish11EndgameBaseINS3_5ValueEEESt14default_deleteIS6_EEESaISA_ENSt8__detail10_Select1stESt8equal_toIyESt4hashIyENSC_18_Mod_range_hashingENSC_20_Default_ranged_hashENSC_20_Prime_rehash_policyENSC_17_Hashtable_traitsILb0ELb0ELb1EEEE12_M_find_nodeEyRS1_y.lto_priv.0(%rip)
	movq	%r13, %rdx
	call	__gcov_topn_values_profiler
	movq	%r13, %rdx
	movq	%r15, %rcx
	call	__gcov_pow2_profiler
	movq	%rdi, %rax
	xorl	%edx, %edx
	xorl	%r8d, %r8d
	divq	%r13
	movl	$2, %r9d
	movq	%rbp, %rcx
	movq	%rdx, %rdi
	movq	%rax, %rdx
	call	__gcov_interval_profiler
	cmpq	%rdi, 56(%rsp)
	movq	64(%rsp), %r10
	movq	%rbx, %rax
	jne	.L349
	movq	%r10, %rbx
	movq	8(%rbx), %rdi
	cmpq	%rdi, (%rsi)
	jne	.L350
.L334:
	movq	(%rax), %rax
	addq	$1, 32+__gcov0._ZNKSt10_HashtableIySt4pairIKySt10unique_ptrIN8Polyfish11EndgameBaseINS3_5ValueEEESt14default_deleteIS6_EEESaISA_ENSt8__detail10_Select1stESt8equal_toIyESt4hashIyENSC_18_Mod_range_hashingENSC_20_Default_ranged_hashENSC_20_Prime_rehash_policyENSC_17_Hashtable_traitsILb0ELb0ELb1EEEE12_M_find_nodeEyRS1_y.lto_priv.0(%rip)
	testq	%rax, %rax
	je	.L333
	addq	$1, __gcov0._ZNSt8__detail9_Map_baseIySt4pairIKySt10unique_ptrIN8Polyfish11EndgameBaseINS4_5ValueEEESt14default_deleteIS7_EEESaISB_ENS_10_Select1stESt8equal_toIyESt4hashIyENS_18_Mod_range_hashingENS_20_Default_ranged_hashENS_20_Prime_rehash_policyENS_17_Hashtable_traitsILb0ELb0ELb1EEELb1EEixEOy(%rip)
	addq	$16, %rax
.L327:
	addq	$88, %rsp
	popq	%rbx
	popq	%rsi
	popq	%rdi
	popq	%rbp
	popq	%r12
	popq	%r13
	popq	%r14
	popq	%r15
	ret
	.p2align 4,,10
	.p2align 3
.L343:
	leaq	_ZNSt8__detail9_Map_baseIySt4pairIKySt10unique_ptrIN8Polyfish11EndgameBaseINS4_5ValueEEESt14default_deleteIS7_EEESaISB_ENS_10_Select1stESt8equal_toIyESt4hashIyENS_18_Mod_range_hashingENS_20_Default_ranged_hashENS_20_Prime_rehash_policyENS_17_Hashtable_traitsILb0ELb0ELb1EEELb1EEixEOy(%rip), %rdx
	movl	$1475056470, %ecx
	call	__gcov_indirect_call_profiler_v4
	cmpq	$0, __gcov7._ZNSt8__detail9_Map_baseIySt4pairIKySt10unique_ptrIN8Polyfish11EndgameBaseINS4_5ValueEEESt14default_deleteIS7_EEESaISB_ENS_10_Select1stESt8equal_toIyESt4hashIyENS_18_Mod_range_hashingENS_20_Default_ranged_hashENS_20_Prime_rehash_policyENS_17_Hashtable_traitsILb0ELb0ELb1EEELb1EEixEOy(%rip)
	jne	.L329
	.p2align 4,,10
	.p2align 3
.L344:
	movq	.refptr.__gcov_time_profiler_counter(%rip), %rdx
	movq	(%rdx), %rax
	addq	$1, %rax
	movq	%rax, __gcov7._ZNSt8__detail9_Map_baseIySt4pairIKySt10unique_ptrIN8Polyfish11EndgameBaseINS4_5ValueEEESt14default_deleteIS7_EEESaISB_ENS_10_Select1stESt8equal_toIyESt4hashIyENS_18_Mod_range_hashingENS_20_Default_ranged_hashENS_20_Prime_rehash_policyENS_17_Hashtable_traitsILb0ELb0ELb1EEELb1EEixEOy(%rip)
	movq	%rax, (%rdx)
	jmp	.L329
	.p2align 4,,10
	.p2align 3
.L345:
	leaq	_ZNKSt10_HashtableIySt4pairIKySt10unique_ptrIN8Polyfish11EndgameBaseINS3_5ValueEEESt14default_deleteIS6_EEESaISA_ENSt8__detail10_Select1stESt8equal_toIyESt4hashIyENSC_18_Mod_range_hashingENSC_20_Default_ranged_hashENSC_20_Prime_rehash_policyENSC_17_Hashtable_traitsILb0ELb0ELb1EEEE12_M_find_nodeEyRS1_y(%rip), %rdx
	movl	$308226615, %ecx
	call	__gcov_indirect_call_profiler_v4
	cmpq	$0, __gcov7._ZNKSt10_HashtableIySt4pairIKySt10unique_ptrIN8Polyfish11EndgameBaseINS3_5ValueEEESt14default_deleteIS6_EEESaISA_ENSt8__detail10_Select1stESt8equal_toIyESt4hashIyENSC_18_Mod_range_hashingENSC_20_Default_ranged_hashENSC_20_Prime_rehash_policyENSC_17_Hashtable_traitsILb0ELb0ELb1EEEE12_M_find_nodeEyRS1_y.lto_priv.0(%rip)
	jne	.L331
	.p2align 4,,10
	.p2align 3
.L346:
	movq	.refptr.__gcov_time_profiler_counter(%rip), %rdx
	movq	(%rdx), %rax
	addq	$1, %rax
	movq	%rax, __gcov7._ZNKSt10_HashtableIySt4pairIKySt10unique_ptrIN8Polyfish11EndgameBaseINS3_5ValueEEESt14default_deleteIS6_EEESaISA_ENSt8__detail10_Select1stESt8equal_toIyESt4hashIyENSC_18_Mod_range_hashingENSC_20_Default_ranged_hashENSC_20_Prime_rehash_policyENSC_17_Hashtable_traitsILb0ELb0ELb1EEEE12_M_find_nodeEyRS1_y.lto_priv.0(%rip)
	movq	%rax, (%rdx)
	jmp	.L331
	.p2align 4,,10
	.p2align 3
.L348:
	addq	$1, 8+__gcov0._ZNKSt10_HashtableIySt4pairIKySt10unique_ptrIN8Polyfish11EndgameBaseINS3_5ValueEEESt14default_deleteIS6_EEESaISA_ENSt8__detail10_Select1stESt8equal_toIyESt4hashIyENSC_18_Mod_range_hashingENSC_20_Default_ranged_hashENSC_20_Prime_rehash_policyENSC_17_Hashtable_traitsILb0ELb0ELb1EEEE12_M_find_nodeEyRS1_y.lto_priv.0(%rip)
.L336:
	addq	$1, 40+__gcov0._ZNKSt10_HashtableIySt4pairIKySt10unique_ptrIN8Polyfish11EndgameBaseINS3_5ValueEEESt14default_deleteIS6_EEESaISA_ENSt8__detail10_Select1stESt8equal_toIyESt4hashIyENSC_18_Mod_range_hashingENSC_20_Default_ranged_hashENSC_20_Prime_rehash_policyENSC_17_Hashtable_traitsILb0ELb0ELb1EEEE12_M_find_nodeEyRS1_y.lto_priv.0(%rip)
.L333:
	movq	.refptr.__gcov_indirect_call(%rip), %rax
	addq	$1, 8+__gcov0._ZNSt8__detail9_Map_baseIySt4pairIKySt10unique_ptrIN8Polyfish11EndgameBaseINS4_5ValueEEESt14default_deleteIS7_EEESaISB_ENS_10_Select1stESt8equal_toIyESt4hashIyENS_18_Mod_range_hashingENS_20_Default_ranged_hashENS_20_Prime_rehash_policyENS_17_Hashtable_traitsILb0ELb0ELb1EEELb1EEixEOy(%rip)
	cmpq	$0, (%rax)
	jne	.L351
.L340:
	cmpq	$0, __gcov7._ZN9__gnu_cxx13new_allocatorINSt8__detail10_Hash_nodeISt4pairIKySt10unique_ptrIN8Polyfish11EndgameBaseINS6_5ValueEEESt14default_deleteIS9_EEELb0EEEE8allocateEyPKv(%rip)
	je	.L352
.L341:
	movl	$24, %ecx
	addq	$1, __gcov0._ZN9__gnu_cxx13new_allocatorINSt8__detail10_Hash_nodeISt4pairIKySt10unique_ptrIN8Polyfish11EndgameBaseINS6_5ValueEEESt14default_deleteIS9_EEELb0EEEE8allocateEyPKv(%rip)
	call	_Znwy
	movq	72(%rsp), %r8
	movq	%r12, %rcx
	movq	56(%rsp), %rdx
	movq	$0, (%rax)
	movq	%rax, %r9
	movq	(%rsi), %rax
	movq	$0, 16(%r9)
	movq	%rax, 8(%r9)
	movq	$1, 32(%rsp)
	addq	$1, 24+__gcov0._ZN9__gnu_cxx13new_allocatorINSt8__detail10_Hash_nodeISt4pairIKySt10unique_ptrIN8Polyfish11EndgameBaseINS6_5ValueEEESt14default_deleteIS9_EEELb0EEEE8allocateEyPKv(%rip)
	addq	$1, 16+__gcov0._ZNSt8__detail9_Map_baseIySt4pairIKySt10unique_ptrIN8Polyfish11EndgameBaseINS4_5ValueEEESt14default_deleteIS7_EEESaISB_ENS_10_Select1stESt8equal_toIyESt4hashIyENS_18_Mod_range_hashingENS_20_Default_ranged_hashENS_20_Prime_rehash_policyENS_17_Hashtable_traitsILb0ELb0ELb1EEELb1EEixEOy(%rip)
	call	_ZNSt10_HashtableIySt4pairIKySt10unique_ptrIN8Polyfish11EndgameBaseINS3_5ValueEEESt14default_deleteIS6_EEESaISA_ENSt8__detail10_Select1stESt8equal_toIyESt4hashIyENSC_18_Mod_range_hashingENSC_20_Default_ranged_hashENSC_20_Prime_rehash_policyENSC_17_Hashtable_traitsILb0ELb0ELb1EEEE21_M_insert_unique_nodeEyyPNSC_10_Hash_nodeISA_Lb0EEEy
	addq	$1, 24+__gcov0._ZNSt8__detail9_Map_baseIySt4pairIKySt10unique_ptrIN8Polyfish11EndgameBaseINS4_5ValueEEESt14default_deleteIS7_EEESaISB_ENS_10_Select1stESt8equal_toIyESt4hashIyENS_18_Mod_range_hashingENS_20_Default_ranged_hashENS_20_Prime_rehash_policyENS_17_Hashtable_traitsILb0ELb0ELb1EEELb1EEixEOy(%rip)
	addq	$16, %rax
	jmp	.L327
	.p2align 4,,10
	.p2align 3
.L347:
	addq	$1, __gcov0._ZNKSt10_HashtableIySt4pairIKySt10unique_ptrIN8Polyfish11EndgameBaseINS3_5ValueEEESt14default_deleteIS6_EEESaISA_ENSt8__detail10_Select1stESt8equal_toIyESt4hashIyENSC_18_Mod_range_hashingENSC_20_Default_ranged_hashENSC_20_Prime_rehash_policyENSC_17_Hashtable_traitsILb0ELb0ELb1EEEE12_M_find_nodeEyRS1_y.lto_priv.0(%rip)
	jmp	.L333
	.p2align 4,,10
	.p2align 3
.L349:
	addq	$1, 24+__gcov0._ZNKSt10_HashtableIySt4pairIKySt10unique_ptrIN8Polyfish11EndgameBaseINS3_5ValueEEESt14default_deleteIS6_EEESaISA_ENSt8__detail10_Select1stESt8equal_toIyESt4hashIyENSC_18_Mod_range_hashingENSC_20_Default_ranged_hashENSC_20_Prime_rehash_policyENSC_17_Hashtable_traitsILb0ELb0ELb1EEEE12_M_find_nodeEyRS1_y.lto_priv.0(%rip)
	jmp	.L336
	.p2align 4,,10
	.p2align 3
.L351:
	leaq	_ZN9__gnu_cxx13new_allocatorINSt8__detail10_Hash_nodeISt4pairIKySt10unique_ptrIN8Polyfish11EndgameBaseINS6_5ValueEEESt14default_deleteIS9_EEELb0EEEE8allocateEyPKv(%rip), %rdx
	movl	$986281590, %ecx
	call	__gcov_indirect_call_profiler_v4
	jmp	.L340
	.p2align 4,,10
	.p2align 3
.L352:
	movq	.refptr.__gcov_time_profiler_counter(%rip), %rdx
	movq	(%rdx), %rax
	addq	$1, %rax
	movq	%rax, __gcov7._ZN9__gnu_cxx13new_allocatorINSt8__detail10_Hash_nodeISt4pairIKySt10unique_ptrIN8Polyfish11EndgameBaseINS6_5ValueEEESt14default_deleteIS9_EEELb0EEEE8allocateEyPKv(%rip)
	movq	%rax, (%rdx)
	jmp	.L341
	.seh_endproc
	.align 2
	.p2align 4
	.def	_ZNSt10_HashtableIySt4pairIKySt10unique_ptrIN8Polyfish11EndgameBaseINS3_11ScaleFactorEEESt14default_deleteIS6_EEESaISA_ENSt8__detail10_Select1stESt8equal_toIyESt4hashIyENSC_18_Mod_range_hashingENSC_20_Default_ranged_hashENSC_20_Prime_rehash_policyENSC_17_Hashtable_traitsILb0ELb0ELb1EEEE21_M_insert_unique_nodeEyyPNSC_10_Hash_nodeISA_Lb0EEEy;	.scl	3;	.type	32;	.endef
	.seh_proc	_ZNSt10_HashtableIySt4pairIKySt10unique_ptrIN8Polyfish11EndgameBaseINS3_11ScaleFactorEEESt14default_deleteIS6_EEESaISA_ENSt8__detail10_Select1stESt8equal_toIyESt4hashIyENSC_18_Mod_range_hashingENSC_20_Default_ranged_hashENSC_20_Prime_rehash_policyENSC_17_Hashtable_traitsILb0ELb0ELb1EEEE21_M_insert_unique_nodeEyyPNSC_10_Hash_nodeISA_Lb0EEEy
_ZNSt10_HashtableIySt4pairIKySt10unique_ptrIN8Polyfish11EndgameBaseINS3_11ScaleFactorEEESt14default_deleteIS6_EEESaISA_ENSt8__detail10_Select1stESt8equal_toIyESt4hashIyENSC_18_Mod_range_hashingENSC_20_Default_ranged_hashENSC_20_Prime_rehash_policyENSC_17_Hashtable_traitsILb0ELb0ELb1EEEE21_M_insert_unique_nodeEyyPNSC_10_Hash_nodeISA_Lb0EEEy:
	pushq	%r13
	.seh_pushreg	%r13
	pushq	%r12
	.seh_pushreg	%r12
	pushq	%rdi
	.seh_pushreg	%rdi
	pushq	%rsi
	.seh_pushreg	%rsi
	pushq	%rbx
	.seh_pushreg	%rbx
	subq	$64, %rsp
	.seh_stackalloc	64
	.seh_endprologue
	movq	.refptr.__gcov_indirect_call(%rip), %rax
	cmpq	$0, (%rax)
	movq	%rcx, %rbx
	movq	%rdx, %r13
	movq	%r8, %rsi
	movq	%r9, %r12
	je	.L354
	leaq	_ZNSt10_HashtableIySt4pairIKySt10unique_ptrIN8Polyfish11EndgameBaseINS3_11ScaleFactorEEESt14default_deleteIS6_EEESaISA_ENSt8__detail10_Select1stESt8equal_toIyESt4hashIyENSC_18_Mod_range_hashingENSC_20_Default_ranged_hashENSC_20_Prime_rehash_policyENSC_17_Hashtable_traitsILb0ELb0ELb1EEEE21_M_insert_unique_nodeEyyPNSC_10_Hash_nodeISA_Lb0EEEy(%rip), %rdx
	movl	$2079721463, %ecx
	call	__gcov_indirect_call_profiler_v4
.L354:
	addq	$1, __gcov0._ZNSt10_HashtableIySt4pairIKySt10unique_ptrIN8Polyfish11EndgameBaseINS3_11ScaleFactorEEESt14default_deleteIS6_EEESaISA_ENSt8__detail10_Select1stESt8equal_toIyESt4hashIyENSC_18_Mod_range_hashingENSC_20_Default_ranged_hashENSC_20_Prime_rehash_policyENSC_17_Hashtable_traitsILb0ELb0ELb1EEEE21_M_insert_unique_nodeEyyPNSC_10_Hash_nodeISA_Lb0EEEy(%rip)
	cmpq	$0, __gcov7._ZNSt10_HashtableIySt4pairIKySt10unique_ptrIN8Polyfish11EndgameBaseINS3_11ScaleFactorEEESt14default_deleteIS6_EEESaISA_ENSt8__detail10_Select1stESt8equal_toIyESt4hashIyENSC_18_Mod_range_hashingENSC_20_Default_ranged_hashENSC_20_Prime_rehash_policyENSC_17_Hashtable_traitsILb0ELb0ELb1EEEE21_M_insert_unique_nodeEyyPNSC_10_Hash_nodeISA_Lb0EEEy(%rip)
	jne	.L355
	movq	.refptr.__gcov_time_profiler_counter(%rip), %rax
	movq	(%rax), %rdi
	leaq	1(%rdi), %rcx
	movq	%rcx, __gcov7._ZNSt10_HashtableIySt4pairIKySt10unique_ptrIN8Polyfish11EndgameBaseINS3_11ScaleFactorEEESt14default_deleteIS6_EEESaISA_ENSt8__detail10_Select1stESt8equal_toIyESt4hashIyENSC_18_Mod_range_hashingENSC_20_Default_ranged_hashENSC_20_Prime_rehash_policyENSC_17_Hashtable_traitsILb0ELb0ELb1EEEE21_M_insert_unique_nodeEyyPNSC_10_Hash_nodeISA_Lb0EEEy(%rip)
	movq	%rcx, (%rax)
.L355:
	movq	144(%rsp), %rax
	movq	24(%rbx), %r9
	leaq	32(%rbx), %rdx
	leaq	48(%rsp), %rcx
	movq	8(%rbx), %r8
	movq	%rax, 32(%rsp)
	call	_ZNKSt8__detail20_Prime_rehash_policy14_M_need_rehashEyyy
	addq	$1, 8+__gcov0._ZNSt10_HashtableIySt4pairIKySt10unique_ptrIN8Polyfish11EndgameBaseINS3_11ScaleFactorEEESt14default_deleteIS6_EEESaISA_ENSt8__detail10_Select1stESt8equal_toIyESt4hashIyENSC_18_Mod_range_hashingENSC_20_Default_ranged_hashENSC_20_Prime_rehash_policyENSC_17_Hashtable_traitsILb0ELb0ELb1EEEE21_M_insert_unique_nodeEyyPNSC_10_Hash_nodeISA_Lb0EEEy(%rip)
	cmpb	$0, 48(%rsp)
	movq	56(%rsp), %rdx
	jne	.L357
.L356:
	movq	%r12, %r8
	movq	%r13, %rdx
	movq	%rbx, %rcx
	call	_ZNSt10_HashtableIySt4pairIKySt10unique_ptrIN8Polyfish11EndgameBaseINS3_11ScaleFactorEEESt14default_deleteIS6_EEESaISA_ENSt8__detail10_Select1stESt8equal_toIyESt4hashIyENSC_18_Mod_range_hashingENSC_20_Default_ranged_hashENSC_20_Prime_rehash_policyENSC_17_Hashtable_traitsILb0ELb0ELb1EEEE22_M_insert_bucket_beginEyPNSC_10_Hash_nodeISA_Lb0EEE
	addq	$1, 32+__gcov0._ZNSt10_HashtableIySt4pairIKySt10unique_ptrIN8Polyfish11EndgameBaseINS3_11ScaleFactorEEESt14default_deleteIS6_EEESaISA_ENSt8__detail10_Select1stESt8equal_toIyESt4hashIyENSC_18_Mod_range_hashingENSC_20_Default_ranged_hashENSC_20_Prime_rehash_policyENSC_17_Hashtable_traitsILb0ELb0ELb1EEEE21_M_insert_unique_nodeEyyPNSC_10_Hash_nodeISA_Lb0EEEy(%rip)
	movq	%r12, %rax
	addq	$1, 24(%rbx)
	addq	$64, %rsp
	popq	%rbx
	popq	%rsi
	popq	%rdi
	popq	%r12
	popq	%r13
	ret
	.p2align 4,,10
	.p2align 3
.L357:
	xorl	%r8d, %r8d
	movq	%rbx, %rcx
	addq	$1, 16+__gcov0._ZNSt10_HashtableIySt4pairIKySt10unique_ptrIN8Polyfish11EndgameBaseINS3_11ScaleFactorEEESt14default_deleteIS6_EEESaISA_ENSt8__detail10_Select1stESt8equal_toIyESt4hashIyENSC_18_Mod_range_hashingENSC_20_Default_ranged_hashENSC_20_Prime_rehash_policyENSC_17_Hashtable_traitsILb0ELb0ELb1EEEE21_M_insert_unique_nodeEyyPNSC_10_Hash_nodeISA_Lb0EEEy(%rip)
	call	_ZNSt10_HashtableIySt4pairIKySt10unique_ptrIN8Polyfish11EndgameBaseINS3_11ScaleFactorEEESt14default_deleteIS6_EEESaISA_ENSt8__detail10_Select1stESt8equal_toIyESt4hashIyENSC_18_Mod_range_hashingENSC_20_Default_ranged_hashENSC_20_Prime_rehash_policyENSC_17_Hashtable_traitsILb0ELb0ELb1EEEE13_M_rehash_auxEySt17integral_constantIbLb1EE
	movq	8(%rbx), %rdi
	leaq	__gcov3._ZNSt10_HashtableIySt4pairIKySt10unique_ptrIN8Polyfish11EndgameBaseINS3_11ScaleFactorEEESt14default_deleteIS6_EEESaISA_ENSt8__detail10_Select1stESt8equal_toIyESt4hashIyENSC_18_Mod_range_hashingENSC_20_Default_ranged_hashENSC_20_Prime_rehash_policyENSC_17_Hashtable_traitsILb0ELb0ELb1EEEE21_M_insert_unique_nodeEyyPNSC_10_Hash_nodeISA_Lb0EEEy(%rip), %rcx
	addq	$1, 24+__gcov0._ZNSt10_HashtableIySt4pairIKySt10unique_ptrIN8Polyfish11EndgameBaseINS3_11ScaleFactorEEESt14default_deleteIS6_EEESaISA_ENSt8__detail10_Select1stESt8equal_toIyESt4hashIyENSC_18_Mod_range_hashingENSC_20_Default_ranged_hashENSC_20_Prime_rehash_policyENSC_17_Hashtable_traitsILb0ELb0ELb1EEEE21_M_insert_unique_nodeEyyPNSC_10_Hash_nodeISA_Lb0EEEy(%rip)
	movq	%rdi, %rdx
	call	__gcov_topn_values_profiler
	movq	%rdi, %rdx
	leaq	__gcov2._ZNSt10_HashtableIySt4pairIKySt10unique_ptrIN8Polyfish11EndgameBaseINS3_11ScaleFactorEEESt14default_deleteIS6_EEESaISA_ENSt8__detail10_Select1stESt8equal_toIyESt4hashIyENSC_18_Mod_range_hashingENSC_20_Default_ranged_hashENSC_20_Prime_rehash_policyENSC_17_Hashtable_traitsILb0ELb0ELb1EEEE21_M_insert_unique_nodeEyyPNSC_10_Hash_nodeISA_Lb0EEEy(%rip), %rcx
	call	__gcov_pow2_profiler
	movq	%rsi, %rax
	xorl	%edx, %edx
	movl	$2, %r9d
	divq	%rdi
	xorl	%r8d, %r8d
	leaq	__gcov1._ZNSt10_HashtableIySt4pairIKySt10unique_ptrIN8Polyfish11EndgameBaseINS3_11ScaleFactorEEESt14default_deleteIS6_EEESaISA_ENSt8__detail10_Select1stESt8equal_toIyESt4hashIyENSC_18_Mod_range_hashingENSC_20_Default_ranged_hashENSC_20_Prime_rehash_policyENSC_17_Hashtable_traitsILb0ELb0ELb1EEEE21_M_insert_unique_nodeEyyPNSC_10_Hash_nodeISA_Lb0EEEy(%rip), %rcx
	movq	%rdx, %r13
	movq	%rax, %rdx
	call	__gcov_interval_profiler
	jmp	.L356
	.seh_endproc
	.align 2
	.p2align 4
	.globl	_ZNSt8__detail9_Map_baseIySt4pairIKySt10unique_ptrIN8Polyfish11EndgameBaseINS4_11ScaleFactorEEESt14default_deleteIS7_EEESaISB_ENS_10_Select1stESt8equal_toIyESt4hashIyENS_18_Mod_range_hashingENS_20_Default_ranged_hashENS_20_Prime_rehash_policyENS_17_Hashtable_traitsILb0ELb0ELb1EEELb1EEixEOy
	.def	_ZNSt8__detail9_Map_baseIySt4pairIKySt10unique_ptrIN8Polyfish11EndgameBaseINS4_11ScaleFactorEEESt14default_deleteIS7_EEESaISB_ENS_10_Select1stESt8equal_toIyESt4hashIyENS_18_Mod_range_hashingENS_20_Default_ranged_hashENS_20_Prime_rehash_policyENS_17_Hashtable_traitsILb0ELb0ELb1EEELb1EEixEOy;	.scl	2;	.type	32;	.endef
	.seh_proc	_ZNSt8__detail9_Map_baseIySt4pairIKySt10unique_ptrIN8Polyfish11EndgameBaseINS4_11ScaleFactorEEESt14default_deleteIS7_EEESaISB_ENS_10_Select1stESt8equal_toIyESt4hashIyENS_18_Mod_range_hashingENS_20_Default_ranged_hashENS_20_Prime_rehash_policyENS_17_Hashtable_traitsILb0ELb0ELb1EEELb1EEixEOy
_ZNSt8__detail9_Map_baseIySt4pairIKySt10unique_ptrIN8Polyfish11EndgameBaseINS4_11ScaleFactorEEESt14default_deleteIS7_EEESaISB_ENS_10_Select1stESt8equal_toIyESt4hashIyENS_18_Mod_range_hashingENS_20_Default_ranged_hashENS_20_Prime_rehash_policyENS_17_Hashtable_traitsILb0ELb0ELb1EEELb1EEixEOy:
	pushq	%r15
	.seh_pushreg	%r15
	pushq	%r14
	.seh_pushreg	%r14
	pushq	%r13
	.seh_pushreg	%r13
	pushq	%r12
	.seh_pushreg	%r12
	pushq	%rbp
	.seh_pushreg	%rbp
	pushq	%rdi
	.seh_pushreg	%rdi
	pushq	%rsi
	.seh_pushreg	%rsi
	pushq	%rbx
	.seh_pushreg	%rbx
	subq	$88, %rsp
	.seh_stackalloc	88
	.seh_endprologue
	movq	.refptr.__gcov_indirect_call(%rip), %rax
	cmpq	$0, (%rax)
	movq	%rcx, %r12
	movq	%rdx, %rsi
	jne	.L374
	cmpq	$0, __gcov7._ZNSt8__detail9_Map_baseIySt4pairIKySt10unique_ptrIN8Polyfish11EndgameBaseINS4_11ScaleFactorEEESt14default_deleteIS7_EEESaISB_ENS_10_Select1stESt8equal_toIyESt4hashIyENS_18_Mod_range_hashingENS_20_Default_ranged_hashENS_20_Prime_rehash_policyENS_17_Hashtable_traitsILb0ELb0ELb1EEELb1EEixEOy(%rip)
	je	.L375
.L360:
	movq	8(%r12), %rbx
	movq	(%rsi), %rdi
	leaq	__gcov3._ZNSt8__detail9_Map_baseIySt4pairIKySt10unique_ptrIN8Polyfish11EndgameBaseINS4_11ScaleFactorEEESt14default_deleteIS7_EEESaISB_ENS_10_Select1stESt8equal_toIyESt4hashIyENS_18_Mod_range_hashingENS_20_Default_ranged_hashENS_20_Prime_rehash_policyENS_17_Hashtable_traitsILb0ELb0ELb1EEELb1EEixEOy(%rip), %rcx
	movq	%rbx, %rdx
	movq	%rdi, 72(%rsp)
	call	__gcov_topn_values_profiler
	movq	%rbx, %rdx
	leaq	__gcov2._ZNSt8__detail9_Map_baseIySt4pairIKySt10unique_ptrIN8Polyfish11EndgameBaseINS4_11ScaleFactorEEESt14default_deleteIS7_EEESaISB_ENS_10_Select1stESt8equal_toIyESt4hashIyENS_18_Mod_range_hashingENS_20_Default_ranged_hashENS_20_Prime_rehash_policyENS_17_Hashtable_traitsILb0ELb0ELb1EEELb1EEixEOy(%rip), %rcx
	call	__gcov_pow2_profiler
	xorl	%edx, %edx
	movq	%rdi, %rax
	xorl	%r8d, %r8d
	divq	%rbx
	movl	$2, %r9d
	leaq	__gcov1._ZNSt8__detail9_Map_baseIySt4pairIKySt10unique_ptrIN8Polyfish11EndgameBaseINS4_11ScaleFactorEEESt14default_deleteIS7_EEESaISB_ENS_10_Select1stESt8equal_toIyESt4hashIyENS_18_Mod_range_hashingENS_20_Default_ranged_hashENS_20_Prime_rehash_policyENS_17_Hashtable_traitsILb0ELb0ELb1EEELb1EEixEOy(%rip), %rcx
	movq	%rdx, 56(%rsp)
	movq	%rax, %rdx
	call	__gcov_interval_profiler
	movq	.refptr.__gcov_indirect_call(%rip), %rax
	cmpq	$0, (%rax)
	jne	.L376
	cmpq	$0, __gcov7._ZNKSt10_HashtableIySt4pairIKySt10unique_ptrIN8Polyfish11EndgameBaseINS3_11ScaleFactorEEESt14default_deleteIS6_EEESaISA_ENSt8__detail10_Select1stESt8equal_toIyESt4hashIyENSC_18_Mod_range_hashingENSC_20_Default_ranged_hashENSC_20_Prime_rehash_policyENSC_17_Hashtable_traitsILb0ELb0ELb1EEEE12_M_find_nodeEyRS1_y.lto_priv.0(%rip)
	je	.L377
.L362:
	movq	(%r12), %rax
	movq	56(%rsp), %rbx
	movq	(%rax,%rbx,8), %rax
	testq	%rax, %rax
	je	.L378
	movq	(%rax), %rbx
	leaq	__gcov3._ZNKSt10_HashtableIySt4pairIKySt10unique_ptrIN8Polyfish11EndgameBaseINS3_11ScaleFactorEEESt14default_deleteIS6_EEESaISA_ENSt8__detail10_Select1stESt8equal_toIyESt4hashIyENSC_18_Mod_range_hashingENSC_20_Default_ranged_hashENSC_20_Prime_rehash_policyENSC_17_Hashtable_traitsILb0ELb0ELb1EEEE12_M_find_nodeEyRS1_y.lto_priv.0(%rip), %r14
	leaq	__gcov2._ZNKSt10_HashtableIySt4pairIKySt10unique_ptrIN8Polyfish11EndgameBaseINS3_11ScaleFactorEEESt14default_deleteIS6_EEESaISA_ENSt8__detail10_Select1stESt8equal_toIyESt4hashIyENSC_18_Mod_range_hashingENSC_20_Default_ranged_hashENSC_20_Prime_rehash_policyENSC_17_Hashtable_traitsILb0ELb0ELb1EEEE12_M_find_nodeEyRS1_y.lto_priv.0(%rip), %r15
	leaq	__gcov1._ZNKSt10_HashtableIySt4pairIKySt10unique_ptrIN8Polyfish11EndgameBaseINS3_11ScaleFactorEEESt14default_deleteIS6_EEESaISA_ENSt8__detail10_Select1stESt8equal_toIyESt4hashIyENSC_18_Mod_range_hashingENSC_20_Default_ranged_hashENSC_20_Prime_rehash_policyENSC_17_Hashtable_traitsILb0ELb0ELb1EEEE12_M_find_nodeEyRS1_y.lto_priv.0(%rip), %rbp
	movq	8(%rbx), %rdi
	cmpq	%rdi, (%rsi)
	je	.L365
.L381:
	movq	(%rbx), %r10
	testq	%r10, %r10
	je	.L379
	movq	8(%r12), %r13
	movq	8(%r10), %rdi
	movq	%r14, %rcx
	movq	%r10, 64(%rsp)
	addq	$1, 16+__gcov0._ZNKSt10_HashtableIySt4pairIKySt10unique_ptrIN8Polyfish11EndgameBaseINS3_11ScaleFactorEEESt14default_deleteIS6_EEESaISA_ENSt8__detail10_Select1stESt8equal_toIyESt4hashIyENSC_18_Mod_range_hashingENSC_20_Default_ranged_hashENSC_20_Prime_rehash_policyENSC_17_Hashtable_traitsILb0ELb0ELb1EEEE12_M_find_nodeEyRS1_y.lto_priv.0(%rip)
	movq	%r13, %rdx
	call	__gcov_topn_values_profiler
	movq	%r13, %rdx
	movq	%r15, %rcx
	call	__gcov_pow2_profiler
	movq	%rdi, %rax
	xorl	%edx, %edx
	xorl	%r8d, %r8d
	divq	%r13
	movl	$2, %r9d
	movq	%rbp, %rcx
	movq	%rdx, %rdi
	movq	%rax, %rdx
	call	__gcov_interval_profiler
	cmpq	%rdi, 56(%rsp)
	movq	64(%rsp), %r10
	movq	%rbx, %rax
	jne	.L380
	movq	%r10, %rbx
	movq	8(%rbx), %rdi
	cmpq	%rdi, (%rsi)
	jne	.L381
.L365:
	movq	(%rax), %rax
	addq	$1, 32+__gcov0._ZNKSt10_HashtableIySt4pairIKySt10unique_ptrIN8Polyfish11EndgameBaseINS3_11ScaleFactorEEESt14default_deleteIS6_EEESaISA_ENSt8__detail10_Select1stESt8equal_toIyESt4hashIyENSC_18_Mod_range_hashingENSC_20_Default_ranged_hashENSC_20_Prime_rehash_policyENSC_17_Hashtable_traitsILb0ELb0ELb1EEEE12_M_find_nodeEyRS1_y.lto_priv.0(%rip)
	testq	%rax, %rax
	je	.L364
	addq	$1, __gcov0._ZNSt8__detail9_Map_baseIySt4pairIKySt10unique_ptrIN8Polyfish11EndgameBaseINS4_11ScaleFactorEEESt14default_deleteIS7_EEESaISB_ENS_10_Select1stESt8equal_toIyESt4hashIyENS_18_Mod_range_hashingENS_20_Default_ranged_hashENS_20_Prime_rehash_policyENS_17_Hashtable_traitsILb0ELb0ELb1EEELb1EEixEOy(%rip)
	addq	$16, %rax
.L358:
	addq	$88, %rsp
	popq	%rbx
	popq	%rsi
	popq	%rdi
	popq	%rbp
	popq	%r12
	popq	%r13
	popq	%r14
	popq	%r15
	ret
	.p2align 4,,10
	.p2align 3
.L374:
	leaq	_ZNSt8__detail9_Map_baseIySt4pairIKySt10unique_ptrIN8Polyfish11EndgameBaseINS4_11ScaleFactorEEESt14default_deleteIS7_EEESaISB_ENS_10_Select1stESt8equal_toIyESt4hashIyENS_18_Mod_range_hashingENS_20_Default_ranged_hashENS_20_Prime_rehash_policyENS_17_Hashtable_traitsILb0ELb0ELb1EEELb1EEixEOy(%rip), %rdx
	movl	$776111676, %ecx
	call	__gcov_indirect_call_profiler_v4
	cmpq	$0, __gcov7._ZNSt8__detail9_Map_baseIySt4pairIKySt10unique_ptrIN8Polyfish11EndgameBaseINS4_11ScaleFactorEEESt14default_deleteIS7_EEESaISB_ENS_10_Select1stESt8equal_toIyESt4hashIyENS_18_Mod_range_hashingENS_20_Default_ranged_hashENS_20_Prime_rehash_policyENS_17_Hashtable_traitsILb0ELb0ELb1EEELb1EEixEOy(%rip)
	jne	.L360
	.p2align 4,,10
	.p2align 3
.L375:
	movq	.refptr.__gcov_time_profiler_counter(%rip), %rdx
	movq	(%rdx), %rax
	addq	$1, %rax
	movq	%rax, __gcov7._ZNSt8__detail9_Map_baseIySt4pairIKySt10unique_ptrIN8Polyfish11EndgameBaseINS4_11ScaleFactorEEESt14default_deleteIS7_EEESaISB_ENS_10_Select1stESt8equal_toIyESt4hashIyENS_18_Mod_range_hashingENS_20_Default_ranged_hashENS_20_Prime_rehash_policyENS_17_Hashtable_traitsILb0ELb0ELb1EEELb1EEixEOy(%rip)
	movq	%rax, (%rdx)
	jmp	.L360
	.p2align 4,,10
	.p2align 3
.L376:
	leaq	_ZNKSt10_HashtableIySt4pairIKySt10unique_ptrIN8Polyfish11EndgameBaseINS3_11ScaleFactorEEESt14default_deleteIS6_EEESaISA_ENSt8__detail10_Select1stESt8equal_toIyESt4hashIyENSC_18_Mod_range_hashingENSC_20_Default_ranged_hashENSC_20_Prime_rehash_policyENSC_17_Hashtable_traitsILb0ELb0ELb1EEEE12_M_find_nodeEyRS1_y(%rip), %rdx
	movl	$1144836083, %ecx
	call	__gcov_indirect_call_profiler_v4
	cmpq	$0, __gcov7._ZNKSt10_HashtableIySt4pairIKySt10unique_ptrIN8Polyfish11EndgameBaseINS3_11ScaleFactorEEESt14default_deleteIS6_EEESaISA_ENSt8__detail10_Select1stESt8equal_toIyESt4hashIyENSC_18_Mod_range_hashingENSC_20_Default_ranged_hashENSC_20_Prime_rehash_policyENSC_17_Hashtable_traitsILb0ELb0ELb1EEEE12_M_find_nodeEyRS1_y.lto_priv.0(%rip)
	jne	.L362
	.p2align 4,,10
	.p2align 3
.L377:
	movq	.refptr.__gcov_time_profiler_counter(%rip), %rdx
	movq	(%rdx), %rax
	addq	$1, %rax
	movq	%rax, __gcov7._ZNKSt10_HashtableIySt4pairIKySt10unique_ptrIN8Polyfish11EndgameBaseINS3_11ScaleFactorEEESt14default_deleteIS6_EEESaISA_ENSt8__detail10_Select1stESt8equal_toIyESt4hashIyENSC_18_Mod_range_hashingENSC_20_Default_ranged_hashENSC_20_Prime_rehash_policyENSC_17_Hashtable_traitsILb0ELb0ELb1EEEE12_M_find_nodeEyRS1_y.lto_priv.0(%rip)
	movq	%rax, (%rdx)
	jmp	.L362
	.p2align 4,,10
	.p2align 3
.L379:
	addq	$1, 8+__gcov0._ZNKSt10_HashtableIySt4pairIKySt10unique_ptrIN8Polyfish11EndgameBaseINS3_11ScaleFactorEEESt14default_deleteIS6_EEESaISA_ENSt8__detail10_Select1stESt8equal_toIyESt4hashIyENSC_18_Mod_range_hashingENSC_20_Default_ranged_hashENSC_20_Prime_rehash_policyENSC_17_Hashtable_traitsILb0ELb0ELb1EEEE12_M_find_nodeEyRS1_y.lto_priv.0(%rip)
.L367:
	addq	$1, 40+__gcov0._ZNKSt10_HashtableIySt4pairIKySt10unique_ptrIN8Polyfish11EndgameBaseINS3_11ScaleFactorEEESt14default_deleteIS6_EEESaISA_ENSt8__detail10_Select1stESt8equal_toIyESt4hashIyENSC_18_Mod_range_hashingENSC_20_Default_ranged_hashENSC_20_Prime_rehash_policyENSC_17_Hashtable_traitsILb0ELb0ELb1EEEE12_M_find_nodeEyRS1_y.lto_priv.0(%rip)
.L364:
	movq	.refptr.__gcov_indirect_call(%rip), %rax
	addq	$1, 8+__gcov0._ZNSt8__detail9_Map_baseIySt4pairIKySt10unique_ptrIN8Polyfish11EndgameBaseINS4_11ScaleFactorEEESt14default_deleteIS7_EEESaISB_ENS_10_Select1stESt8equal_toIyESt4hashIyENS_18_Mod_range_hashingENS_20_Default_ranged_hashENS_20_Prime_rehash_policyENS_17_Hashtable_traitsILb0ELb0ELb1EEELb1EEixEOy(%rip)
	cmpq	$0, (%rax)
	jne	.L382
.L371:
	cmpq	$0, __gcov7._ZN9__gnu_cxx13new_allocatorINSt8__detail10_Hash_nodeISt4pairIKySt10unique_ptrIN8Polyfish11EndgameBaseINS6_11ScaleFactorEEESt14default_deleteIS9_EEELb0EEEE8allocateEyPKv(%rip)
	je	.L383
.L372:
	movl	$24, %ecx
	addq	$1, __gcov0._ZN9__gnu_cxx13new_allocatorINSt8__detail10_Hash_nodeISt4pairIKySt10unique_ptrIN8Polyfish11EndgameBaseINS6_11ScaleFactorEEESt14default_deleteIS9_EEELb0EEEE8allocateEyPKv(%rip)
	call	_Znwy
	movq	72(%rsp), %r8
	movq	%r12, %rcx
	movq	56(%rsp), %rdx
	movq	$0, (%rax)
	movq	%rax, %r9
	movq	(%rsi), %rax
	movq	$0, 16(%r9)
	movq	%rax, 8(%r9)
	movq	$1, 32(%rsp)
	addq	$1, 24+__gcov0._ZN9__gnu_cxx13new_allocatorINSt8__detail10_Hash_nodeISt4pairIKySt10unique_ptrIN8Polyfish11EndgameBaseINS6_11ScaleFactorEEESt14default_deleteIS9_EEELb0EEEE8allocateEyPKv(%rip)
	addq	$1, 16+__gcov0._ZNSt8__detail9_Map_baseIySt4pairIKySt10unique_ptrIN8Polyfish11EndgameBaseINS4_11ScaleFactorEEESt14default_deleteIS7_EEESaISB_ENS_10_Select1stESt8equal_toIyESt4hashIyENS_18_Mod_range_hashingENS_20_Default_ranged_hashENS_20_Prime_rehash_policyENS_17_Hashtable_traitsILb0ELb0ELb1EEELb1EEixEOy(%rip)
	call	_ZNSt10_HashtableIySt4pairIKySt10unique_ptrIN8Polyfish11EndgameBaseINS3_11ScaleFactorEEESt14default_deleteIS6_EEESaISA_ENSt8__detail10_Select1stESt8equal_toIyESt4hashIyENSC_18_Mod_range_hashingENSC_20_Default_ranged_hashENSC_20_Prime_rehash_policyENSC_17_Hashtable_traitsILb0ELb0ELb1EEEE21_M_insert_unique_nodeEyyPNSC_10_Hash_nodeISA_Lb0EEEy
	addq	$1, 24+__gcov0._ZNSt8__detail9_Map_baseIySt4pairIKySt10unique_ptrIN8Polyfish11EndgameBaseINS4_11ScaleFactorEEESt14default_deleteIS7_EEESaISB_ENS_10_Select1stESt8equal_toIyESt4hashIyENS_18_Mod_range_hashingENS_20_Default_ranged_hashENS_20_Prime_rehash_policyENS_17_Hashtable_traitsILb0ELb0ELb1EEELb1EEixEOy(%rip)
	addq	$16, %rax
	jmp	.L358
	.p2align 4,,10
	.p2align 3
.L378:
	addq	$1, __gcov0._ZNKSt10_HashtableIySt4pairIKySt10unique_ptrIN8Polyfish11EndgameBaseINS3_11ScaleFactorEEESt14default_deleteIS6_EEESaISA_ENSt8__detail10_Select1stESt8equal_toIyESt4hashIyENSC_18_Mod_range_hashingENSC_20_Default_ranged_hashENSC_20_Prime_rehash_policyENSC_17_Hashtable_traitsILb0ELb0ELb1EEEE12_M_find_nodeEyRS1_y.lto_priv.0(%rip)
	jmp	.L364
	.p2align 4,,10
	.p2align 3
.L380:
	addq	$1, 24+__gcov0._ZNKSt10_HashtableIySt4pairIKySt10unique_ptrIN8Polyfish11EndgameBaseINS3_11ScaleFactorEEESt14default_deleteIS6_EEESaISA_ENSt8__detail10_Select1stESt8equal_toIyESt4hashIyENSC_18_Mod_range_hashingENSC_20_Default_ranged_hashENSC_20_Prime_rehash_policyENSC_17_Hashtable_traitsILb0ELb0ELb1EEEE12_M_find_nodeEyRS1_y.lto_priv.0(%rip)
	jmp	.L367
	.p2align 4,,10
	.p2align 3
.L382:
	leaq	_ZN9__gnu_cxx13new_allocatorINSt8__detail10_Hash_nodeISt4pairIKySt10unique_ptrIN8Polyfish11EndgameBaseINS6_11ScaleFactorEEESt14default_deleteIS9_EEELb0EEEE8allocateEyPKv(%rip), %rdx
	movl	$853887600, %ecx
	call	__gcov_indirect_call_profiler_v4
	jmp	.L371
	.p2align 4,,10
	.p2align 3
.L383:
	movq	.refptr.__gcov_time_profiler_counter(%rip), %rdx
	movq	(%rdx), %rax
	addq	$1, %rax
	movq	%rax, __gcov7._ZN9__gnu_cxx13new_allocatorINSt8__detail10_Hash_nodeISt4pairIKySt10unique_ptrIN8Polyfish11EndgameBaseINS6_11ScaleFactorEEESt14default_deleteIS9_EEELb0EEEE8allocateEyPKv(%rip)
	movq	%rax, (%rdx)
	jmp	.L372
	.seh_endproc
	.p2align 4
	.globl	_ZN8Polyfish8Endgames3addILNS_11EndgameCodeE16ENS_11ScaleFactorEEEvRKNSt7__cxx1112basic_stringIcSt11char_traitsIcESaIcEEE
	.def	_ZN8Polyfish8Endgames3addILNS_11EndgameCodeE16ENS_11ScaleFactorEEEvRKNSt7__cxx1112basic_stringIcSt11char_traitsIcESaIcEEE;	.scl	2;	.type	32;	.endef
	.seh_proc	_ZN8Polyfish8Endgames3addILNS_11EndgameCodeE16ENS_11ScaleFactorEEEvRKNSt7__cxx1112basic_stringIcSt11char_traitsIcESaIcEEE
_ZN8Polyfish8Endgames3addILNS_11EndgameCodeE16ENS_11ScaleFactorEEEvRKNSt7__cxx1112basic_stringIcSt11char_traitsIcESaIcEEE:
	pushq	%r15
	.seh_pushreg	%r15
	movl	$5464, %eax
	pushq	%r14
	.seh_pushreg	%r14
	pushq	%r13
	.seh_pushreg	%r13
	pushq	%r12
	.seh_pushreg	%r12
	pushq	%rbp
	.seh_pushreg	%rbp
	pushq	%rdi
	.seh_pushreg	%rdi
	pushq	%rsi
	.seh_pushreg	%rsi
	pushq	%rbx
	.seh_pushreg	%rbx
	call	___chkstk_ms
	subq	%rax, %rsp
	.seh_stackalloc	5464
	.seh_endprologue
	movq	.refptr.__gcov_indirect_call(%rip), %rbp
	leaq	991(%rsp), %rsi
	movq	%rcx, %r12
	andq	$-64, %rsi
	cmpq	$0, 0(%rbp)
	je	.L385
	leaq	_ZN8Polyfish8Endgames3addILNS_11EndgameCodeE16ENS_11ScaleFactorEEEvRKNSt7__cxx1112basic_stringIcSt11char_traitsIcESaIcEEE(%rip), %rdx
	movl	$1097943879, %ecx
	call	__gcov_indirect_call_profiler_v4
.L385:
	addq	$1, __gcov0._ZN8Polyfish8Endgames3addILNS_11EndgameCodeE16ENS_11ScaleFactorEEEvRKNSt7__cxx1112basic_stringIcSt11char_traitsIcESaIcEEE(%rip)
	cmpq	$0, __gcov7._ZN8Polyfish8Endgames3addILNS_11EndgameCodeE16ENS_11ScaleFactorEEEvRKNSt7__cxx1112basic_stringIcSt11char_traitsIcESaIcEEE(%rip)
	jne	.L386
	movq	.refptr.__gcov_time_profiler_counter(%rip), %rdx
	movq	(%rdx), %rax
	addq	$1, %rax
	movq	%rax, __gcov7._ZN8Polyfish8Endgames3addILNS_11EndgameCodeE16ENS_11ScaleFactorEEEvRKNSt7__cxx1112basic_stringIcSt11char_traitsIcESaIcEEE(%rip)
	movq	%rax, (%rdx)
.L386:
	movl	$16, %ecx
	leaq	48(%rsp), %rdi
	leaq	48(%rsp), %r13
	call	_Znwy
	movl	$110, %ecx
	movq	%rsi, %r9
	xorl	%r8d, %r8d
	movq	%rax, %rbx
	movq	%r12, %rdx
	movq	.LC1(%rip), %rax
	leaq	16+_ZTVN8Polyfish7EndgameILNS_11EndgameCodeE16ENS_11ScaleFactorEEE(%rip), %r15
	movq	%r15, (%rbx)
	leaq	40(%rsp), %r14
	movq	%rax, 8(%rbx)
	xorl	%eax, %eax
	rep stosq
	movq	%r13, %rcx
	addq	$1, 8+__gcov0._ZN8Polyfish8Endgames3addILNS_11EndgameCodeE16ENS_11ScaleFactorEEEvRKNSt7__cxx1112basic_stringIcSt11char_traitsIcESaIcEEE(%rip)
	call	_ZN8Polyfish8Position3setERKNSt7__cxx1112basic_stringIcSt11char_traitsIcESaIcEEENS_5ColorEPNS_9StateInfoE
	movq	%r14, %rdx
	addq	$1, 16+__gcov0._ZN8Polyfish8Endgames3addILNS_11EndgameCodeE16ENS_11ScaleFactorEEEvRKNSt7__cxx1112basic_stringIcSt11char_traitsIcESaIcEEE(%rip)
	movq	856(%rax), %rax
	movq	8(%rax), %rax
	movq	%rax, 40(%rsp)
	movq	.refptr._ZN8Polyfish8Endgames4mapsE(%rip), %rax
	leaq	56(%rax), %rcx
	call	_ZNSt8__detail9_Map_baseIySt4pairIKySt10unique_ptrIN8Polyfish11EndgameBaseINS4_11ScaleFactorEEESt14default_deleteIS7_EEESaISB_ENS_10_Select1stESt8equal_toIyESt4hashIyENS_18_Mod_range_hashingENS_20_Default_ranged_hashENS_20_Prime_rehash_policyENS_17_Hashtable_traitsILb0ELb0ELb1EEELb1EEixEOy
	movq	(%rax), %rcx
	movq	%rbx, (%rax)
	testq	%rcx, %rcx
	je	.L392
	movq	(%rcx), %rax
	leaq	__gcov4._ZN8Polyfish8Endgames3addILNS_11EndgameCodeE16ENS_11ScaleFactorEEEvRKNSt7__cxx1112basic_stringIcSt11char_traitsIcESaIcEEE(%rip), %rdi
	addq	$1, 24+__gcov0._ZN8Polyfish8Endgames3addILNS_11EndgameCodeE16ENS_11ScaleFactorEEEvRKNSt7__cxx1112basic_stringIcSt11char_traitsIcESaIcEEE(%rip)
	movq	8(%rax), %rax
	movq	%rdi, 8(%rbp)
	movq	%rax, 0(%rbp)
	call	*%rax
	addq	$1, 40+__gcov0._ZN8Polyfish8Endgames3addILNS_11EndgameCodeE16ENS_11ScaleFactorEEEvRKNSt7__cxx1112basic_stringIcSt11char_traitsIcESaIcEEE(%rip)
.L388:
	movl	$16, %ecx
	movq	%r13, %rdi
	call	_Znwy
	movl	$110, %ecx
	movq	%rsi, %r9
	movq	%r12, %rdx
	movq	%rax, %rbx
	movq	.LC2(%rip), %rax
	movl	$1, %r8d
	addq	$1, 48+__gcov0._ZN8Polyfish8Endgames3addILNS_11EndgameCodeE16ENS_11ScaleFactorEEEvRKNSt7__cxx1112basic_stringIcSt11char_traitsIcESaIcEEE(%rip)
	movq	%r15, (%rbx)
	movq	%rax, 8(%rbx)
	xorl	%eax, %eax
	rep stosq
	leaq	48(%rsp), %rcx
	call	_ZN8Polyfish8Position3setERKNSt7__cxx1112basic_stringIcSt11char_traitsIcESaIcEEENS_5ColorEPNS_9StateInfoE
	movq	%r14, %rdx
	addq	$1, 56+__gcov0._ZN8Polyfish8Endgames3addILNS_11EndgameCodeE16ENS_11ScaleFactorEEEvRKNSt7__cxx1112basic_stringIcSt11char_traitsIcESaIcEEE(%rip)
	movq	856(%rax), %rax
	movq	8(%rax), %rax
	movq	%rax, 40(%rsp)
	movq	.refptr._ZN8Polyfish8Endgames4mapsE(%rip), %rax
	leaq	56(%rax), %rcx
	call	_ZNSt8__detail9_Map_baseIySt4pairIKySt10unique_ptrIN8Polyfish11EndgameBaseINS4_11ScaleFactorEEESt14default_deleteIS7_EEESaISB_ENS_10_Select1stESt8equal_toIyESt4hashIyENS_18_Mod_range_hashingENS_20_Default_ranged_hashENS_20_Prime_rehash_policyENS_17_Hashtable_traitsILb0ELb0ELb1EEELb1EEixEOy
	movq	(%rax), %rcx
	movq	%rbx, (%rax)
	testq	%rcx, %rcx
	je	.L393
	movq	(%rcx), %rax
	leaq	24+__gcov4._ZN8Polyfish8Endgames3addILNS_11EndgameCodeE16ENS_11ScaleFactorEEEvRKNSt7__cxx1112basic_stringIcSt11char_traitsIcESaIcEEE(%rip), %rsi
	addq	$1, 64+__gcov0._ZN8Polyfish8Endgames3addILNS_11EndgameCodeE16ENS_11ScaleFactorEEEvRKNSt7__cxx1112basic_stringIcSt11char_traitsIcESaIcEEE(%rip)
	movq	8(%rax), %rax
	movq	%rsi, 8(%rbp)
	movq	%rax, 0(%rbp)
	call	*%rax
	addq	$1, 80+__gcov0._ZN8Polyfish8Endgames3addILNS_11EndgameCodeE16ENS_11ScaleFactorEEEvRKNSt7__cxx1112basic_stringIcSt11char_traitsIcESaIcEEE(%rip)
.L391:
	addq	$5464, %rsp
	popq	%rbx
	popq	%rsi
	popq	%rdi
	popq	%rbp
	popq	%r12
	popq	%r13
	popq	%r14
	popq	%r15
	ret
	.p2align 4,,10
	.p2align 3
.L392:
	addq	$1, 32+__gcov0._ZN8Polyfish8Endgames3addILNS_11EndgameCodeE16ENS_11ScaleFactorEEEvRKNSt7__cxx1112basic_stringIcSt11char_traitsIcESaIcEEE(%rip)
	jmp	.L388
	.p2align 4,,10
	.p2align 3
.L393:
	addq	$1, 72+__gcov0._ZN8Polyfish8Endgames3addILNS_11EndgameCodeE16ENS_11ScaleFactorEEEvRKNSt7__cxx1112basic_stringIcSt11char_traitsIcESaIcEEE(%rip)
	jmp	.L391
	.seh_endproc
	.p2align 4
	.globl	__tcf_1.lto_priv.18
	.def	__tcf_1.lto_priv.18;	.scl	2;	.type	32;	.endef
	.seh_proc	__tcf_1.lto_priv.18
__tcf_1.lto_priv.18:
	subq	$40, %rsp
	.seh_stackalloc	40
	.seh_endprologue
	movq	.refptr.__gcov_indirect_call(%rip), %rax
	cmpq	$0, (%rax)
	je	.L395
	leaq	__tcf_1.lto_priv.18(%rip), %rdx
	movl	$942417067, %ecx
	call	__gcov_indirect_call_profiler_v4
.L395:
	addq	$1, __gcov0.__tcf_1(%rip)
	cmpq	$0, __gcov7.__tcf_1(%rip)
	jne	.L396
	movq	.refptr.__gcov_time_profiler_counter(%rip), %rdx
	movq	(%rdx), %rax
	addq	$1, %rax
	movq	%rax, __gcov7.__tcf_1(%rip)
	movq	%rax, (%rdx)
.L396:
	leaq	_ZStL8__ioinit.lto_priv.21(%rip), %rcx
	call	_ZNSt8ios_base4InitD1Ev
	addq	$1, 8+__gcov0.__tcf_1(%rip)
	addq	$40, %rsp
	ret
	.seh_endproc
	.p2align 4
	.globl	__tcf_2.lto_priv.8
	.def	__tcf_2.lto_priv.8;	.scl	2;	.type	32;	.endef
	.seh_proc	__tcf_2.lto_priv.8
__tcf_2.lto_priv.8:
	pushq	%r12
	.seh_pushreg	%r12
	subq	$32, %rsp
	.seh_stackalloc	32
	.seh_endprologue
	movq	.refptr.__gcov_indirect_call(%rip), %rax
	cmpq	$0, (%rax)
	je	.L398
	leaq	__tcf_2.lto_priv.8(%rip), %rdx
	movl	$1822819552, %ecx
	call	__gcov_indirect_call_profiler_v4
.L398:
	addq	$1, __gcov0.__tcf_2(%rip)
	cmpq	$0, __gcov7.__tcf_2(%rip)
	jne	.L399
	movq	.refptr.__gcov_time_profiler_counter(%rip), %rdx
	movq	(%rdx), %rax
	addq	$1, %rax
	movq	%rax, __gcov7.__tcf_2(%rip)
	movq	%rax, (%rdx)
.L399:
	movq	.refptr._ZN8Polyfish8Endgames4mapsE(%rip), %r12
	leaq	56(%r12), %rcx
	call	_ZNSt10_HashtableIySt4pairIKySt10unique_ptrIN8Polyfish11EndgameBaseINS3_11ScaleFactorEEESt14default_deleteIS6_EEESaISA_ENSt8__detail10_Select1stESt8equal_toIyESt4hashIyENSC_18_Mod_range_hashingENSC_20_Default_ranged_hashENSC_20_Prime_rehash_policyENSC_17_Hashtable_traitsILb0ELb0ELb1EEEED1Ev
	movq	%r12, %rcx
	addq	$1, 8+__gcov0.__tcf_2(%rip)
	call	_ZNSt10_HashtableIySt4pairIKySt10unique_ptrIN8Polyfish11EndgameBaseINS3_5ValueEEESt14default_deleteIS6_EEESaISA_ENSt8__detail10_Select1stESt8equal_toIyESt4hashIyENSC_18_Mod_range_hashingENSC_20_Default_ranged_hashENSC_20_Prime_rehash_policyENSC_17_Hashtable_traitsILb0ELb0ELb1EEEED1Ev
	addq	$1, 16+__gcov0.__tcf_2(%rip)
	addq	$32, %rsp
	popq	%r12
	ret
	.seh_endproc
	.align 2
	.p2align 4
	.globl	_ZNK8Polyfish8Position16opposite_bishopsEv
	.def	_ZNK8Polyfish8Position16opposite_bishopsEv;	.scl	2;	.type	32;	.endef
	.seh_proc	_ZNK8Polyfish8Position16opposite_bishopsEv
_ZNK8Polyfish8Position16opposite_bishopsEv:
	pushq	%rbx
	.seh_pushreg	%rbx
	subq	$32, %rsp
	.seh_stackalloc	32
	.seh_endprologue
	movq	.refptr.__gcov_indirect_call(%rip), %rax
	cmpq	$0, (%rax)
	movq	%rcx, %rbx
	je	.L401
	leaq	_ZNK8Polyfish8Position16opposite_bishopsEv(%rip), %rdx
	movl	$1746178318, %ecx
	call	__gcov_indirect_call_profiler_v4
.L401:
	addq	$1, __gcov0._ZNK8Polyfish8Position16opposite_bishopsEv.lto_priv.0(%rip)
	cmpq	$0, __gcov7._ZNK8Polyfish8Position16opposite_bishopsEv.lto_priv.0(%rip)
	jne	.L402
	movq	.refptr.__gcov_time_profiler_counter(%rip), %rdx
	movq	(%rdx), %rax
	addq	$1, %rax
	movq	%rax, __gcov7._ZNK8Polyfish8Position16opposite_bishopsEv.lto_priv.0(%rip)
	movq	%rax, (%rdx)
.L402:
	cmpl	$1, 348(%rbx)
	je	.L403
.L405:
	xorl	%eax, %eax
.L400:
	addq	$32, %rsp
	popq	%rbx
	ret
	.p2align 4,,10
	.p2align 3
.L403:
	addq	$1, 8+__gcov0._ZNK8Polyfish8Position16opposite_bishopsEv.lto_priv.0(%rip)
	cmpl	$1, 380(%rbx)
	jne	.L405
	movq	280(%rbx), %rdx
	movq	328(%rbx), %rcx
	addq	$1, 16+__gcov0._ZNK8Polyfish8Position16opposite_bishopsEv.lto_priv.0(%rip)
	andq	%rdx, %rcx
	andq	320(%rbx), %rdx
	rep bsfq	%rdx, %rdx
	rep bsfq	%rcx, %rcx
	movl	%edx, %eax
	sarl	$3, %eax
	addl	%edx, %eax
	addl	%ecx, %eax
	sarl	$3, %ecx
	addl	%ecx, %eax
	andl	$1, %eax
	jne	.L400
	addq	$1, 24+__gcov0._ZNK8Polyfish8Position16opposite_bishopsEv.lto_priv.0(%rip)
	jmp	.L400
	.seh_endproc
	.section .rdata,"dr"
.LC3:
	.ascii "Use NNUE\0"
.LC5:
	.ascii "EvalFile\0"
.LC6:
	.ascii "nn-3c0aa92af1da.nnue\0"
.LC7:
	.ascii "<internal>\0"
.LC8:
	.ascii "\0"
	.text
	.p2align 4
	.globl	_ZN8Polyfish4Eval4NNUE4initEv
	.def	_ZN8Polyfish4Eval4NNUE4initEv;	.scl	2;	.type	32;	.endef
	.seh_proc	_ZN8Polyfish4Eval4NNUE4initEv
_ZN8Polyfish4Eval4NNUE4initEv:
	pushq	%r15
	.seh_pushreg	%r15
	pushq	%r14
	.seh_pushreg	%r14
	pushq	%r13
	.seh_pushreg	%r13
	pushq	%r12
	.seh_pushreg	%r12
	pushq	%rbp
	.seh_pushreg	%rbp
	pushq	%rdi
	.seh_pushreg	%rdi
	pushq	%rsi
	.seh_pushreg	%rsi
	pushq	%rbx
	.seh_pushreg	%rbx
	subq	$808, %rsp
	.seh_stackalloc	808
	vmovups	%xmm6, 784(%rsp)
	.seh_savexmm	%xmm6, 784
	.seh_endprologue
	movq	.refptr.gEmbeddedNNUEData(%rip), %rax
	movq	.refptr.__gcov_indirect_call(%rip), %r15
	movq	%rax, 48(%rsp)
	leaq	16+_ZTVZN8Polyfish4Eval4NNUE4initEvE12MemoryBuffer(%rip), %rax
	vmovq	%rax, %xmm1
	movq	(%r15), %rax
	vpinsrq	$1, 48(%rsp), %xmm1, %xmm6
	testq	%rax, %rax
	jne	.L504
	addq	$1, __gcov0._ZN8Polyfish4Eval4NNUE4initEv.lto_priv.0(%rip)
	cmpq	$0, __gcov7._ZN8Polyfish4Eval4NNUE4initEv.lto_priv.0(%rip)
	je	.L480
.L409:
	movq	.refptr.__gcov7._ZNSt7__cxx1112basic_stringIcSt11char_traitsIcESaIcEEC1IS3_EEPKcRKS3_.lto_priv.0(%rip), %rsi
	cmpq	$0, (%rsi)
	je	.L505
.L410:
	movq	.refptr.__gcov0._ZNSt7__cxx1112basic_stringIcSt11char_traitsIcESaIcEEC1IS3_EEPKcRKS3_.lto_priv.0(%rip), %rbx
	leaq	8+.LC3(%rip), %r8
	xorl	%r9d, %r9d
	leaq	304(%rsp), %r13
	leaq	-8(%r8), %rdx
	movq	%r13, %rcx
	leaq	320(%rsp), %r14
	addq	$1, (%rbx)
	movq	%r14, 304(%rsp)
	call	_ZNSt7__cxx1112basic_stringIcSt11char_traitsIcESaIcEE12_M_constructIPKcEEvT_S8_St20forward_iterator_tag
	addq	$1, 16(%rbx)
	movq	%r13, %rcx
	addq	$1, 8+__gcov0._ZN8Polyfish4Eval4NNUE4initEv.lto_priv.0(%rip)
	call	_ZNSt3mapINSt7__cxx1112basic_stringIcSt11char_traitsIcESaIcEEEN8Polyfish3UCI6OptionENS7_19CaseInsensitiveLessESaISt4pairIKS5_S8_EEEixEOS5_.constprop.0
	addq	$1, 16+__gcov0._ZN8Polyfish4Eval4NNUE4initEv.lto_priv.0(%rip)
	movq	%rax, %rcx
	call	_ZNK8Polyfish3UCI6OptioncvdEv
	vucomisd	.LC4(%rip), %xmm0
	movl	$1, %edx
	movq	304(%rsp), %rcx
	setp	%al
	cmovne	%edx, %eax
	movb	%al, _ZN8Polyfish4Eval7useNNUEE(%rip)
	cmpq	%r14, %rcx
	je	.L411
	movq	320(%rsp), %rax
	addq	$1, 24+__gcov0._ZN8Polyfish4Eval4NNUE4initEv.lto_priv.0(%rip)
	leaq	1(%rax), %rdx
	call	_ZdlPvy
	addq	$1, 32+__gcov0._ZN8Polyfish4Eval4NNUE4initEv.lto_priv.0(%rip)
	movzbl	_ZN8Polyfish4Eval7useNNUEE(%rip), %eax
.L411:
	testb	%al, %al
	jne	.L412
	addq	$1, 40+__gcov0._ZN8Polyfish4Eval4NNUE4initEv.lto_priv.0(%rip)
.L503:
	vmovups	784(%rsp), %xmm6
	addq	$808, %rsp
	popq	%rbx
	popq	%rsi
	popq	%rdi
	popq	%rbp
	popq	%r12
	popq	%r13
	popq	%r14
	popq	%r15
	ret
	.p2align 4,,10
	.p2align 3
.L412:
	addq	$1, 48+__gcov0._ZN8Polyfish4Eval4NNUE4initEv.lto_priv.0(%rip)
	cmpq	$0, (%r15)
	jne	.L506
.L414:
	cmpq	$0, (%rsi)
	je	.L507
.L415:
	addq	$1, (%rbx)
	leaq	8+.LC5(%rip), %r8
	xorl	%r9d, %r9d
	movq	%r13, %rcx
	leaq	-8(%r8), %rdx
	movq	%r14, 304(%rsp)
	call	_ZNSt7__cxx1112basic_stringIcSt11char_traitsIcESaIcEE12_M_constructIPKcEEvT_S8_St20forward_iterator_tag
	addq	$1, 16(%rbx)
	movq	%r13, %rcx
	addq	$1, 56+__gcov0._ZN8Polyfish4Eval4NNUE4initEv.lto_priv.0(%rip)
	call	_ZNSt3mapINSt7__cxx1112basic_stringIcSt11char_traitsIcESaIcEEEN8Polyfish3UCI6OptionENS7_19CaseInsensitiveLessESaISt4pairIKS5_S8_EEEixEOS5_.constprop.0
	addq	$1, 64+__gcov0._ZN8Polyfish4Eval4NNUE4initEv.lto_priv.0(%rip)
	movq	%rax, %rdx
	leaq	144(%rsp), %rax
	movq	%rax, %rcx
	movq	%rax, 64(%rsp)
	call	_ZNK8Polyfish3UCI6OptioncvNSt7__cxx1112basic_stringIcSt11char_traitsIcESaIcEEEEv
	movq	304(%rsp), %rcx
	cmpq	%r14, %rcx
	je	.L508
	movq	320(%rsp), %rax
	addq	$1, 72+__gcov0._ZN8Polyfish4Eval4NNUE4initEv.lto_priv.0(%rip)
	leaq	1(%rax), %rdx
	call	_ZdlPvy
	addq	$1, 88+__gcov0._ZN8Polyfish4Eval4NNUE4initEv.lto_priv.0(%rip)
	cmpq	$0, 152(%rsp)
	je	.L509
.L418:
	cmpq	$0, (%r15)
	jne	.L510
.L419:
	cmpq	$0, (%rsi)
	je	.L511
.L420:
	addq	$1, (%rbx)
	leaq	10+.LC7(%rip), %r8
	xorl	%r9d, %r9d
	movq	%r13, %rcx
	leaq	-10(%r8), %rdx
	movq	%r14, 304(%rsp)
	call	_ZNSt7__cxx1112basic_stringIcSt11char_traitsIcESaIcEE12_M_constructIPKcEEvT_S8_St20forward_iterator_tag
	addq	$1, 16(%rbx)
	addq	$1, 112+__gcov0._ZN8Polyfish4Eval4NNUE4initEv.lto_priv.0(%rip)
	cmpq	$0, (%r15)
	jne	.L512
.L421:
	cmpq	$0, (%rsi)
	je	.L513
.L422:
	addq	$1, (%rbx)
	leaq	.LC8(%rip), %r8
	xorl	%r9d, %r9d
	leaq	352(%rsp), %rax
	movq	%r8, %rdx
	leaq	336(%rsp), %rcx
	movq	%rax, 336(%rsp)
	call	_ZNSt7__cxx1112basic_stringIcSt11char_traitsIcESaIcEE12_M_constructIPKcEEvT_S8_St20forward_iterator_tag
	addq	$1, 16(%rbx)
	movq	_ZN8Polyfish11CommandLine15binaryDirectoryB5cxx11E(%rip), %rdx
	leaq	384(%rsp), %rax
	movq	8+_ZN8Polyfish11CommandLine15binaryDirectoryB5cxx11E(%rip), %r8
	leaq	368(%rsp), %rcx
	movq	%rax, 368(%rsp)
	addq	$1, 120+__gcov0._ZN8Polyfish4Eval4NNUE4initEv.lto_priv.0(%rip)
	addq	%rdx, %r8
	call	_ZNSt7__cxx1112basic_stringIcSt11char_traitsIcESaIcEE12_M_constructIPcEEvT_S7_St20forward_iterator_tag.constprop.0
	movq	(%r15), %rax
	vpxor	%xmm0, %xmm0, %xmm0
	addq	$1, 128+__gcov0._ZN8Polyfish4Eval4NNUE4initEv.lto_priv.0(%rip)
	movq	$0, 128(%rsp)
	vmovdqu	%xmm0, 112(%rsp)
	testq	%rax, %rax
	jne	.L514
	movq	.refptr.__gcov7._ZNSt6vectorINSt7__cxx1112basic_stringIcSt11char_traitsIcESaIcEEESaIS5_EE19_M_range_initializeIPKS5_EEvT_SB_St20forward_iterator_tag.lto_priv.0(%rip), %rdx
	cmpq	$0, (%rdx)
	je	.L478
	movq	.refptr.__gcov0._ZNSt6vectorINSt7__cxx1112basic_stringIcSt11char_traitsIcESaIcEEESaIS5_EE19_M_range_initializeIPKS5_EEvT_SB_St20forward_iterator_tag.lto_priv.0(%rip), %rbx
	addq	$1, 8(%rbx)
.L425:
	movq	.refptr.__gcov7._ZN9__gnu_cxx13new_allocatorINSt7__cxx1112basic_stringIcSt11char_traitsIcESaIcEEEE8allocateEyPKv.lto_priv.0(%rip), %rax
	cmpq	$0, (%rax)
	je	.L515
.L426:
	movq	.refptr.__gcov0._ZN9__gnu_cxx13new_allocatorINSt7__cxx1112basic_stringIcSt11char_traitsIcESaIcEEEE8allocateEyPKv.lto_priv.0(%rip), %rsi
	movl	$96, %ecx
	addq	$1, (%rsi)
	call	_Znwy
	addq	$1, 24(%rsi)
	addq	$1, 24(%rbx)
	leaq	96(%rax), %r12
	cmpq	$0, (%r15)
	movq	%rax, 56(%rsp)
	movq	%rax, 112(%rsp)
	movq	%r12, 128(%rsp)
	jne	.L516
.L427:
	movq	.refptr.__gcov0._ZNSt20__uninitialized_copyILb0EE13__uninit_copyIPKNSt7__cxx1112basic_stringIcSt11char_traitsIcESaIcEEEPS7_EET0_T_SC_SB_.lto_priv.0(%rip), %rbp
	movq	.refptr.__gcov7._ZNSt20__uninitialized_copyILb0EE13__uninit_copyIPKNSt7__cxx1112basic_stringIcSt11char_traitsIcESaIcEEEPS7_EET0_T_SC_SB_.lto_priv.0(%rip), %rax
	addq	$1, 0(%rbp)
	cmpq	$0, (%rax)
	je	.L517
.L428:
	movq	56(%rsp), %rsi
	movq	%r13, %rdi
	.p2align 4,,10
	.p2align 3
.L429:
	leaq	16(%rsi), %rax
	movq	(%rdi), %rdx
	movq	8(%rdi), %r8
	movq	%rsi, %rcx
	movq	%rax, (%rsi)
	addq	$32, %rsi
	addq	$32, %rdi
	addq	%rdx, %r8
	call	_ZNSt7__cxx1112basic_stringIcSt11char_traitsIcESaIcEE12_M_constructIPcEEvT_S7_St20forward_iterator_tag.constprop.0
	addq	$1, 8(%rbp)
	cmpq	%rsi, %r12
	jne	.L429
	addq	$1, 16(%rbp)
	movq	%r12, 120(%rsp)
	addq	$1, 32(%rbx)
	leaq	400(%rsp), %rbx
.L433:
	subq	$32, %rbx
	movq	(%rbx), %rcx
	leaq	16(%rbx), %rax
	cmpq	%rax, %rcx
	je	.L518
	movq	16(%rbx), %rax
	addq	$1, 144+__gcov0._ZN8Polyfish4Eval4NNUE4initEv.lto_priv.0(%rip)
	leaq	1(%rax), %rdx
	call	_ZdlPvy
	addq	$1, 160+__gcov0._ZN8Polyfish4Eval4NNUE4initEv.lto_priv.0(%rip)
	cmpq	%r13, %rbx
	jne	.L433
.L431:
	leaq	192(%rsp), %rax
	addq	$1, 136+__gcov0._ZN8Polyfish4Eval4NNUE4initEv.lto_priv.0(%rip)
	movq	56(%rsp), %rbx
	leaq	176(%rsp), %rdi
	movq	%rax, 40(%rsp)
	movq	.refptr._ZTVSt15basic_streambufIcSt11char_traitsIcEE(%rip), %rax
	leaq	__gcov0._ZSteqIcEN9__gnu_cxx11__enable_ifIXsrSt9__is_charIT_E7__valueEbE6__typeERKNSt7__cxx1112basic_stringIS3_St11char_traitsIS3_ESaIS3_EEESE_.lto_priv.0(%rip), %rbp
	addq	$16, %rax
	movq	%rax, 104(%rsp)
	.p2align 4,,10
	.p2align 3
.L434:
	movq	(%rbx), %rdx
	movq	8(%rbx), %r8
	movq	%rdi, %rcx
	movq	40(%rsp), %rax
	addq	%rdx, %r8
	movq	%rax, 176(%rsp)
	call	_ZNSt7__cxx1112basic_stringIcSt11char_traitsIcESaIcEE12_M_constructIPcEEvT_S7_St20forward_iterator_tag.constprop.0
	cmpq	$0, (%r15)
	jne	.L519
.L437:
	leaq	__gcov7._ZSteqIcEN9__gnu_cxx11__enable_ifIXsrSt9__is_charIT_E7__valueEbE6__typeERKNSt7__cxx1112basic_stringIS3_St11char_traitsIS3_ESaIS3_EEESE_.lto_priv.0(%rip), %rax
	addq	$1, 0(%rbp)
	cmpq	$0, (%rax)
	je	.L520
.L438:
	movq	8+_ZN8Polyfish4Eval19currentEvalFileNameB5cxx11E(%rip), %r8
	cmpq	152(%rsp), %r8
	je	.L521
.L439:
	leaq	.LC7(%rip), %rdx
	movq	%rdi, %rcx
	addq	$1, 168+__gcov0._ZN8Polyfish4Eval4NNUE4initEv.lto_priv.0(%rip)
	call	_ZNKSt7__cxx1112basic_stringIcSt11char_traitsIcESaIcEE7compareEPKc
	addq	$1, 176+__gcov0._ZN8Polyfish4Eval4NNUE4initEv.lto_priv.0(%rip)
	testl	%eax, %eax
	jne	.L522
.L443:
	leaq	.LC7(%rip), %rdx
	movq	%rdi, %rcx
	call	_ZNKSt7__cxx1112basic_stringIcSt11char_traitsIcESaIcEE7compareEPKc
	addq	$1, 280+__gcov0._ZN8Polyfish4Eval4NNUE4initEv.lto_priv.0(%rip)
	testl	%eax, %eax
	je	.L523
.L441:
	movq	176(%rsp), %rcx
	cmpq	40(%rsp), %rcx
	je	.L524
	movq	192(%rsp), %rax
	addq	$32, %rbx
	addq	$1, 392+__gcov0._ZN8Polyfish4Eval4NNUE4initEv.lto_priv.0(%rip)
	leaq	1(%rax), %rdx
	call	_ZdlPvy
	addq	$1, 408+__gcov0._ZN8Polyfish4Eval4NNUE4initEv.lto_priv.0(%rip)
	cmpq	%r12, %rbx
	jne	.L434
.L466:
	movq	(%r15), %rax
	addq	$1, 416+__gcov0._ZN8Polyfish4Eval4NNUE4initEv.lto_priv.0(%rip)
	testq	%rax, %rax
	jne	.L525
	movq	.refptr.__gcov0._ZNSt6vectorINSt7__cxx1112basic_stringIcSt11char_traitsIcESaIcEEESaIS5_EED1Ev.lto_priv.0(%rip), %rdi
	movq	.refptr.__gcov7._ZNSt6vectorINSt7__cxx1112basic_stringIcSt11char_traitsIcESaIcEEESaIS5_EED1Ev.lto_priv.0(%rip), %rdx
	addq	$1, (%rdi)
	cmpq	$0, (%rdx)
	je	.L477
.L468:
	movq	.refptr.__gcov0._ZNSt12_Destroy_auxILb0EE9__destroyIPNSt7__cxx1112basic_stringIcSt11char_traitsIcESaIcEEEEEvT_S9_.lto_priv.0(%rip), %rsi
	movq	.refptr.__gcov7._ZNSt12_Destroy_auxILb0EE9__destroyIPNSt7__cxx1112basic_stringIcSt11char_traitsIcESaIcEEEEEvT_S9_.lto_priv.0(%rip), %rax
	addq	$1, (%rsi)
	cmpq	$0, (%rax)
	je	.L526
.L469:
	movq	56(%rsp), %rbx
	.p2align 4,,10
	.p2align 3
.L470:
	movq	(%rbx), %rcx
	leaq	16(%rbx), %rax
	cmpq	%rax, %rcx
	je	.L527
	addq	$1, 8(%rsi)
	movq	16(%rbx), %rax
	addq	$32, %rbx
	leaq	1(%rax), %rdx
	call	_ZdlPvy
	cmpq	%rbx, %r12
	jne	.L470
.L475:
	addq	$1, 24(%rsi)
	movq	56(%rsp), %rcx
	movl	$96, %edx
	addq	$1, 8(%rdi)
	call	_ZdlPvy
	movq	144(%rsp), %rcx
	addq	$1, 24(%rdi)
	leaq	160(%rsp), %rax
	cmpq	%rax, %rcx
	je	.L528
	movq	160(%rsp), %rax
	addq	$1, 424+__gcov0._ZN8Polyfish4Eval4NNUE4initEv.lto_priv.0(%rip)
	leaq	1(%rax), %rdx
	call	_ZdlPvy
	addq	$1, 440+__gcov0._ZN8Polyfish4Eval4NNUE4initEv.lto_priv.0(%rip)
	jmp	.L503
	.p2align 4,,10
	.p2align 3
.L527:
	addq	$32, %rbx
	addq	$1, 16(%rsi)
	cmpq	%rbx, %r12
	jne	.L470
	jmp	.L475
	.p2align 4,,10
	.p2align 3
.L524:
	addq	$32, %rbx
	addq	$1, 400+__gcov0._ZN8Polyfish4Eval4NNUE4initEv.lto_priv.0(%rip)
	cmpq	%r12, %rbx
	jne	.L434
	jmp	.L466
	.p2align 4,,10
	.p2align 3
.L521:
	leaq	_ZN8Polyfish4Eval19currentEvalFileNameB5cxx11E(%rip), %rax
	movq	144(%rsp), %rdx
	movq	(%rax), %rcx
	testq	%r8, %r8
	je	.L529
	addq	$1, 16+__gcov0._ZSteqIcEN9__gnu_cxx11__enable_ifIXsrSt9__is_charIT_E7__valueEbE6__typeERKNSt7__cxx1112basic_stringIS3_St11char_traitsIS3_ESaIS3_EEESE_.lto_priv.0(%rip)
	call	memcmp
	testl	%eax, %eax
	je	.L441
	addq	$1, 24+__gcov0._ZSteqIcEN9__gnu_cxx11__enable_ifIXsrSt9__is_charIT_E7__valueEbE6__typeERKNSt7__cxx1112basic_stringIS3_St11char_traitsIS3_ESaIS3_EEESE_.lto_priv.0(%rip)
	jmp	.L439
	.p2align 4,,10
	.p2align 3
.L520:
	movq	.refptr.__gcov_time_profiler_counter(%rip), %rdx
	leaq	__gcov7._ZSteqIcEN9__gnu_cxx11__enable_ifIXsrSt9__is_charIT_E7__valueEbE6__typeERKNSt7__cxx1112basic_stringIS3_St11char_traitsIS3_ESaIS3_EEESE_.lto_priv.0(%rip), %rsi
	movq	(%rdx), %rax
	addq	$1, %rax
	movq	%rax, (%rsi)
	movq	%rax, (%rdx)
	jmp	.L438
	.p2align 4,,10
	.p2align 3
.L519:
	movq	.refptr._ZSteqIcEN9__gnu_cxx11__enable_ifIXsrSt9__is_charIT_E7__valueEbE6__typeERKNSt7__cxx1112basic_stringIS3_St11char_traitsIS3_ESaIS3_EEESE_(%rip), %rdx
	movl	$1675963069, %ecx
	call	__gcov_indirect_call_profiler_v4
	jmp	.L437
	.p2align 4,,10
	.p2align 3
.L518:
	addq	$1, 152+__gcov0._ZN8Polyfish4Eval4NNUE4initEv.lto_priv.0(%rip)
	cmpq	%r13, %rbx
	jne	.L433
	jmp	.L431
	.p2align 4,,10
	.p2align 3
.L529:
	addq	$1, 8+__gcov0._ZSteqIcEN9__gnu_cxx11__enable_ifIXsrSt9__is_charIT_E7__valueEbE6__typeERKNSt7__cxx1112basic_stringIS3_St11char_traitsIS3_ESaIS3_EEESE_.lto_priv.0(%rip)
	jmp	.L441
	.p2align 4,,10
	.p2align 3
.L523:
	movq	64(%rsp), %rcx
	leaq	.LC6(%rip), %rdx
	addq	$1, 288+__gcov0._ZN8Polyfish4Eval4NNUE4initEv.lto_priv.0(%rip)
	call	_ZNKSt7__cxx1112basic_stringIcSt11char_traitsIcESaIcEE7compareEPKc
	addq	$1, 296+__gcov0._ZN8Polyfish4Eval4NNUE4initEv.lto_priv.0(%rip)
	testl	%eax, %eax
	jne	.L441
	movq	.refptr.gEmbeddedNNUESize(%rip), %rax
	leaq	296(%rsp), %rsi
	addq	$1, 304+__gcov0._ZN8Polyfish4Eval4NNUE4initEv.lto_priv.0(%rip)
	movq	$0, 248(%rsp)
	movq	%rsi, %rcx
	movq	$0, 256(%rsp)
	movl	(%rax), %eax
	movq	$0, 264(%rsp)
	movq	%rax, 72(%rsp)
	movq	104(%rsp), %rax
	movq	$0, 272(%rsp)
	movq	%rax, 240(%rsp)
	movq	$0, 280(%rsp)
	movq	$0, 288(%rsp)
	call	_ZNSt6localeC1Ev
	movq	48(%rsp), %rcx
	movq	72(%rsp), %rax
	addq	$1, 312+__gcov0._ZN8Polyfish4Eval4NNUE4initEv.lto_priv.0(%rip)
	addq	48(%rsp), %rax
	addq	$1, __gcov0._ZNSiC1EPSt15basic_streambufIcSt11char_traitsIcEE.lto_priv.0(%rip)
	cmpq	$0, __gcov7._ZNSiC1EPSt15basic_streambufIcSt11char_traitsIcEE.lto_priv.0(%rip)
	movq	%rcx, 256(%rsp)
	movq	%rax, 264(%rsp)
	movq	%rcx, 280(%rsp)
	movq	%rcx, 272(%rsp)
	movq	%rax, 288(%rsp)
	vmovdqu	%xmm6, 240(%rsp)
	je	.L530
.L460:
	movq	%r14, %rcx
	call	_ZNSt8ios_baseC2Ev
	xorl	%eax, %eax
	vpxor	%xmm0, %xmm0, %xmm0
	movq	%r14, %rcx
	movw	%ax, 544(%rsp)
	movq	.refptr._ZTVSi(%rip), %rax
	leaq	240(%rsp), %rdx
	addq	$1, 8+__gcov0._ZNSiC1EPSt15basic_streambufIcSt11char_traitsIcEE.lto_priv.0(%rip)
	movq	$0, 536(%rsp)
	addq	$24, %rax
	movq	%rax, 304(%rsp)
	movq	.refptr._ZTVSi(%rip), %rax
	movq	$0, 312(%rsp)
	vmovdqu	%ymm0, 552(%rsp)
	addq	$64, %rax
	movq	%rax, 320(%rsp)
	vzeroupper
	call	_ZNSt9basic_iosIcSt11char_traitsIcEE4initEPSt15basic_streambufIcS1_E
	movq	144(%rsp), %rdx
	movq	152(%rsp), %r8
	leaq	224(%rsp), %r9
	leaq	208(%rsp), %rcx
	movq	%r9, 208(%rsp)
	addq	%rdx, %r8
	movq	%r9, 80(%rsp)
	movq	%rcx, 72(%rsp)
	addq	$1, 16+__gcov0._ZNSiC1EPSt15basic_streambufIcSt11char_traitsIcEE.lto_priv.0(%rip)
	addq	$1, 320+__gcov0._ZN8Polyfish4Eval4NNUE4initEv.lto_priv.0(%rip)
	call	_ZNSt7__cxx1112basic_stringIcSt11char_traitsIcESaIcEE12_M_constructIPcEEvT_S7_St20forward_iterator_tag.constprop.0
	movq	72(%rsp), %rcx
	movq	%r13, %rdx
	addq	$1, 328+__gcov0._ZN8Polyfish4Eval4NNUE4initEv.lto_priv.0(%rip)
	call	_ZN8Polyfish4Eval4NNUE9load_evalENSt7__cxx1112basic_stringIcSt11char_traitsIcESaIcEEERSi
	movq	208(%rsp), %rcx
	movq	80(%rsp), %r9
	cmpq	%r9, %rcx
	je	.L531
	movb	%al, 72(%rsp)
	movq	224(%rsp), %rax
	addq	$1, 336+__gcov0._ZN8Polyfish4Eval4NNUE4initEv.lto_priv.0(%rip)
	leaq	1(%rax), %rdx
	call	_ZdlPvy
	addq	$1, 352+__gcov0._ZN8Polyfish4Eval4NNUE4initEv.lto_priv.0(%rip)
	movzbl	72(%rsp), %eax
.L462:
	testb	%al, %al
	jne	.L532
.L463:
	movq	.refptr._ZTVSi(%rip), %rax
	movq	%r14, %rcx
	movq	$0, 312(%rsp)
	addq	$24, %rax
	movq	%rax, 304(%rsp)
	movq	.refptr._ZTVSt9basic_iosIcSt11char_traitsIcEE(%rip), %rax
	addq	$16, %rax
	movq	%rax, 320(%rsp)
	call	_ZNSt8ios_baseD2Ev
	movq	104(%rsp), %rax
	movq	%rsi, %rcx
	addq	$1, 376+__gcov0._ZN8Polyfish4Eval4NNUE4initEv.lto_priv.0(%rip)
	movq	%rax, 240(%rsp)
	call	_ZNSt6localeD1Ev
	addq	$1, 384+__gcov0._ZN8Polyfish4Eval4NNUE4initEv.lto_priv.0(%rip)
	jmp	.L441
	.p2align 4,,10
	.p2align 3
.L522:
	leaq	240(%rsp), %rax
	movq	64(%rsp), %r8
	movq	%rdi, %rdx
	addq	$1, 184+__gcov0._ZN8Polyfish4Eval4NNUE4initEv.lto_priv.0(%rip)
	movq	%rax, %rcx
	movq	%rax, 80(%rsp)
	call	_ZStplIcSt11char_traitsIcESaIcEENSt7__cxx1112basic_stringIT_T0_T1_EERKS8_SA_
	movq	.refptr.__gcov0._ZNSt14basic_ifstreamIcSt11char_traitsIcEEC1ERKNSt7__cxx1112basic_stringIcS1_SaIcEEESt13_Ios_Openmode.lto_priv.0(%rip), %rsi
	movq	.refptr.__gcov7._ZNSt14basic_ifstreamIcSt11char_traitsIcEEC1ERKNSt7__cxx1112basic_stringIcS1_SaIcEEESt13_Ios_Openmode.lto_priv.0(%rip), %rax
	addq	$1, 192+__gcov0._ZN8Polyfish4Eval4NNUE4initEv.lto_priv.0(%rip)
	addq	$1, (%rsi)
	cmpq	$0, (%rax)
	je	.L533
.L444:
	leaq	512(%rsp), %rax
	movq	%rax, %rcx
	movq	%rax, 72(%rsp)
	call	_ZNSt8ios_baseC2Ev
	movq	.refptr._ZTVSt9basic_iosIcSt11char_traitsIcEE(%rip), %rdx
	vpxor	%xmm0, %xmm0, %xmm0
	movq	$0, 728(%rsp)
	vmovdqu	%ymm0, 744(%rsp)
	leaq	16(%rdx), %rax
	xorl	%edx, %edx
	addq	$1, 8(%rsi)
	movq	%rax, 512(%rsp)
	movq	.refptr._ZTTSt14basic_ifstreamIcSt11char_traitsIcEE(%rip), %rax
	movw	%dx, 736(%rsp)
	movq	8(%rax), %rdx
	movq	16(%rax), %r10
	movq	-24(%rdx), %rax
	movq	%rdx, 304(%rsp)
	movq	%rdx, 88(%rsp)
	movq	%r10, 304(%rsp,%rax)
	movq	$0, 312(%rsp)
	movq	-24(%rdx), %r11
	xorl	%edx, %edx
	movq	%r10, 96(%rsp)
	addq	%r13, %r11
	movq	%r11, %rcx
	vzeroupper
	call	_ZNSt9basic_iosIcSt11char_traitsIcEE4initEPSt15basic_streambufIcS1_E
	addq	$1, 16(%rsi)
	movq	%r14, %rcx
	movq	.refptr._ZTVSt14basic_ifstreamIcSt11char_traitsIcEE(%rip), %rdx
	leaq	24(%rdx), %rax
	movq	%rax, 304(%rsp)
	leaq	64(%rdx), %rax
	movq	%rax, 512(%rsp)
	call	_ZNSt13basic_filebufIcSt11char_traitsIcEEC1Ev
	addq	$1, 24(%rsi)
	movq	72(%rsp), %rcx
	movq	%r14, %rdx
	call	_ZNSt9basic_iosIcSt11char_traitsIcEE4initEPSt15basic_streambufIcS1_E
	movq	.refptr.__gcov0._ZNSt14basic_ifstreamIcSt11char_traitsIcEE4openERKNSt7__cxx1112basic_stringIcS1_SaIcEEESt13_Ios_Openmode.lto_priv.0(%rip), %r9
	movq	.refptr.__gcov7._ZNSt14basic_ifstreamIcSt11char_traitsIcEE4openERKNSt7__cxx1112basic_stringIcS1_SaIcEEESt13_Ios_Openmode.lto_priv.0(%rip), %rax
	addq	$1, 32(%rsi)
	movq	240(%rsp), %rdx
	addq	$1, (%r9)
	cmpq	$0, (%rax)
	je	.L534
.L445:
	movl	$12, %r8d
	movq	%r14, %rcx
	call	_ZNSt13basic_filebufIcSt11char_traitsIcEE4openEPKcSt13_Ios_Openmode
	movq	.refptr.__gcov0._ZNSt14basic_ifstreamIcSt11char_traitsIcEE4openERKNSt7__cxx1112basic_stringIcS1_SaIcEEESt13_Ios_Openmode.lto_priv.0(%rip), %r9
	testq	%rax, %rax
	je	.L535
	movq	304(%rsp), %rax
	addq	$1, 16(%r9)
	xorl	%edx, %edx
	movq	-24(%rax), %rcx
	addq	%r13, %rcx
	call	_ZNSt9basic_iosIcSt11char_traitsIcEE5clearESt12_Ios_Iostate
	movq	.refptr.__gcov0._ZNSt14basic_ifstreamIcSt11char_traitsIcEE4openERKNSt7__cxx1112basic_stringIcS1_SaIcEEESt13_Ios_Openmode.lto_priv.0(%rip), %r9
	addq	$1, 32(%r9)
.L447:
	movq	240(%rsp), %rcx
	addq	$1, 40(%rsi)
	leaq	256(%rsp), %rsi
	cmpq	%rsi, %rcx
	je	.L536
	movq	256(%rsp), %rax
	addq	$1, 200+__gcov0._ZN8Polyfish4Eval4NNUE4initEv.lto_priv.0(%rip)
	leaq	1(%rax), %rdx
	call	_ZdlPvy
	addq	$1, 216+__gcov0._ZN8Polyfish4Eval4NNUE4initEv.lto_priv.0(%rip)
.L449:
	movq	144(%rsp), %rdx
	movq	152(%rsp), %r8
	movq	%rsi, 240(%rsp)
	movq	80(%rsp), %rcx
	addq	%rdx, %r8
	call	_ZNSt7__cxx1112basic_stringIcSt11char_traitsIcESaIcEE12_M_constructIPcEEvT_S7_St20forward_iterator_tag.constprop.0
	addq	$1, 224+__gcov0._ZN8Polyfish4Eval4NNUE4initEv.lto_priv.0(%rip)
	cmpq	$0, (%r15)
	jne	.L537
.L450:
	addq	$1, __gcov0._ZN8Polyfish4Eval4NNUE9load_evalENSt7__cxx1112basic_stringIcSt11char_traitsIcESaIcEEERSi.lto_priv.0(%rip)
	cmpq	$0, __gcov7._ZN8Polyfish4Eval4NNUE9load_evalENSt7__cxx1112basic_stringIcSt11char_traitsIcESaIcEEERSi.lto_priv.0(%rip)
	je	.L538
.L451:
	call	_ZN8Polyfish4Eval4NNUE10initializeEv
	movq	80(%rsp), %rdx
	leaq	_ZN8Polyfish4Eval4NNUE8fileNameB5cxx11E(%rip), %rcx
	addq	$1, 8+__gcov0._ZN8Polyfish4Eval4NNUE9load_evalENSt7__cxx1112basic_stringIcSt11char_traitsIcESaIcEEERSi.lto_priv.0(%rip)
	call	_ZNSt7__cxx1112basic_stringIcSt11char_traitsIcESaIcEE9_M_assignERKS4_
	movq	%r13, %rcx
	addq	$1, 16+__gcov0._ZN8Polyfish4Eval4NNUE9load_evalENSt7__cxx1112basic_stringIcSt11char_traitsIcESaIcEEERSi.lto_priv.0(%rip)
	call	_ZN8Polyfish4Eval4NNUE15read_parametersERSi
	movq	240(%rsp), %rcx
	addq	$1, 24+__gcov0._ZN8Polyfish4Eval4NNUE9load_evalENSt7__cxx1112basic_stringIcSt11char_traitsIcESaIcEEERSi.lto_priv.0(%rip)
	cmpq	%rsi, %rcx
	je	.L539
	movb	%al, 80(%rsp)
	movq	256(%rsp), %rax
	addq	$1, 232+__gcov0._ZN8Polyfish4Eval4NNUE4initEv.lto_priv.0(%rip)
	leaq	1(%rax), %rdx
	call	_ZdlPvy
	movzbl	80(%rsp), %eax
	addq	$1, 248+__gcov0._ZN8Polyfish4Eval4NNUE4initEv.lto_priv.0(%rip)
	testb	%al, %al
	jne	.L540
.L454:
	cmpq	$0, (%r15)
	je	.L455
	movq	.refptr._ZNSt14basic_ifstreamIcSt11char_traitsIcEED1Ev(%rip), %rdx
	movl	$264073443, %ecx
	call	__gcov_indirect_call_profiler_v4
.L455:
	movq	.refptr.__gcov0._ZNSt14basic_ifstreamIcSt11char_traitsIcEED1Ev.lto_priv.0(%rip), %r8
	movq	.refptr.__gcov7._ZNSt14basic_ifstreamIcSt11char_traitsIcEED1Ev.lto_priv.0(%rip), %rax
	addq	$1, (%r8)
	cmpq	$0, (%rax)
	je	.L541
.L456:
	movq	.refptr._ZTVSt14basic_ifstreamIcSt11char_traitsIcEE(%rip), %rax
	addq	$24, %rax
	movq	%rax, 304(%rsp)
	movq	.refptr._ZTVSt14basic_ifstreamIcSt11char_traitsIcEE(%rip), %rax
	addq	$64, %rax
	cmpq	$0, (%r15)
	movq	%rax, 512(%rsp)
	jne	.L542
.L457:
	movq	.refptr.__gcov0._ZNSt13basic_filebufIcSt11char_traitsIcEED2Ev.lto_priv.0(%rip), %rsi
	movq	.refptr.__gcov7._ZNSt13basic_filebufIcSt11char_traitsIcEED2Ev.lto_priv.0(%rip), %rax
	addq	$1, (%rsi)
	cmpq	$0, (%rax)
	je	.L543
.L458:
	movq	.refptr._ZTVSt13basic_filebufIcSt11char_traitsIcEE(%rip), %rax
	movq	%r14, %rcx
	addq	$16, %rax
	movq	%rax, 320(%rsp)
	call	_ZNSt13basic_filebufIcSt11char_traitsIcEE5closeEv
	addq	$1, 8(%rsi)
	leaq	392(%rsp), %rcx
	call	_ZNSt12__basic_fileIcED1Ev
	addq	$1, 16(%rsi)
	movq	.refptr._ZTVSt15basic_streambufIcSt11char_traitsIcEE(%rip), %rax
	leaq	376(%rsp), %rcx
	addq	$16, %rax
	movq	%rax, 320(%rsp)
	call	_ZNSt6localeD1Ev
	movq	88(%rsp), %rax
	addq	$1, 24(%rsi)
	movq	.refptr.__gcov0._ZNSt14basic_ifstreamIcSt11char_traitsIcEED1Ev.lto_priv.0(%rip), %r8
	movq	96(%rsp), %rsi
	movq	%rax, 304(%rsp)
	movq	-24(%rax), %rax
	addq	$1, 8(%r8)
	movq	72(%rsp), %rcx
	movq	%rsi, 304(%rsp,%rax)
	movq	.refptr._ZTVSt9basic_iosIcSt11char_traitsIcEE(%rip), %rax
	movq	$0, 312(%rsp)
	addq	$16, %rax
	movq	%rax, 512(%rsp)
	call	_ZNSt8ios_baseD2Ev
	movq	.refptr.__gcov0._ZNSt14basic_ifstreamIcSt11char_traitsIcEED1Ev.lto_priv.0(%rip), %r8
	addq	$1, 272+__gcov0._ZN8Polyfish4Eval4NNUE4initEv.lto_priv.0(%rip)
	addq	$1, 16(%r8)
	jmp	.L443
	.p2align 4,,10
	.p2align 3
.L508:
	addq	$1, 80+__gcov0._ZN8Polyfish4Eval4NNUE4initEv.lto_priv.0(%rip)
	cmpq	$0, 152(%rsp)
	jne	.L418
.L509:
	movq	64(%rsp), %rcx
	leaq	.LC6(%rip), %rdx
	addq	$1, 96+__gcov0._ZN8Polyfish4Eval4NNUE4initEv.lto_priv.0(%rip)
	call	_ZNSt7__cxx1112basic_stringIcSt11char_traitsIcESaIcEE6assignEPKc
	addq	$1, 104+__gcov0._ZN8Polyfish4Eval4NNUE4initEv.lto_priv.0(%rip)
	jmp	.L418
	.p2align 4,,10
	.p2align 3
.L528:
	addq	$1, 432+__gcov0._ZN8Polyfish4Eval4NNUE4initEv.lto_priv.0(%rip)
	jmp	.L503
	.p2align 4,,10
	.p2align 3
.L504:
	leaq	_ZN8Polyfish4Eval4NNUE4initEv(%rip), %rdx
	movl	$1291066366, %ecx
	call	__gcov_indirect_call_profiler_v4
	addq	$1, __gcov0._ZN8Polyfish4Eval4NNUE4initEv.lto_priv.0(%rip)
	movq	(%r15), %rax
	cmpq	$0, __gcov7._ZN8Polyfish4Eval4NNUE4initEv.lto_priv.0(%rip)
	je	.L480
.L408:
	testq	%rax, %rax
	je	.L409
	movq	.refptr._ZNSt7__cxx1112basic_stringIcSt11char_traitsIcESaIcEEC1IS3_EEPKcRKS3_(%rip), %rdx
	movl	$337037418, %ecx
	call	__gcov_indirect_call_profiler_v4
	movq	.refptr.__gcov7._ZNSt7__cxx1112basic_stringIcSt11char_traitsIcESaIcEEC1IS3_EEPKcRKS3_.lto_priv.0(%rip), %rsi
	cmpq	$0, (%rsi)
	jne	.L410
	.p2align 4,,10
	.p2align 3
.L505:
	movq	.refptr.__gcov_time_profiler_counter(%rip), %rdx
	movq	(%rdx), %rax
	addq	$1, %rax
	movq	%rax, (%rsi)
	movq	%rax, (%rdx)
	jmp	.L410
	.p2align 4,,10
	.p2align 3
.L480:
	movq	.refptr.__gcov_time_profiler_counter(%rip), %rcx
	movq	(%rcx), %rdi
	leaq	1(%rdi), %rdx
	movq	%rdx, __gcov7._ZN8Polyfish4Eval4NNUE4initEv.lto_priv.0(%rip)
	movq	%rdx, (%rcx)
	jmp	.L408
	.p2align 4,,10
	.p2align 3
.L539:
	addq	$1, 240+__gcov0._ZN8Polyfish4Eval4NNUE4initEv.lto_priv.0(%rip)
	testb	%al, %al
	je	.L454
.L540:
	movq	64(%rsp), %rdx
	leaq	_ZN8Polyfish4Eval19currentEvalFileNameB5cxx11E(%rip), %rcx
	addq	$1, 256+__gcov0._ZN8Polyfish4Eval4NNUE4initEv.lto_priv.0(%rip)
	call	_ZNSt7__cxx1112basic_stringIcSt11char_traitsIcESaIcEE9_M_assignERKS4_
	addq	$1, 264+__gcov0._ZN8Polyfish4Eval4NNUE4initEv.lto_priv.0(%rip)
	jmp	.L454
	.p2align 4,,10
	.p2align 3
.L536:
	addq	$1, 208+__gcov0._ZN8Polyfish4Eval4NNUE4initEv.lto_priv.0(%rip)
	jmp	.L449
	.p2align 4,,10
	.p2align 3
.L535:
	movq	304(%rsp), %rax
	addq	$1, 8(%r9)
	movq	-24(%rax), %rcx
	addq	%r13, %rcx
	movl	32(%rcx), %edx
	orl	$4, %edx
	call	_ZNSt9basic_iosIcSt11char_traitsIcEE5clearESt12_Ios_Iostate
	movq	.refptr.__gcov0._ZNSt14basic_ifstreamIcSt11char_traitsIcEE4openERKNSt7__cxx1112basic_stringIcS1_SaIcEEESt13_Ios_Openmode.lto_priv.0(%rip), %r9
	addq	$1, 24(%r9)
	jmp	.L447
	.p2align 4,,10
	.p2align 3
.L507:
	movq	.refptr.__gcov_time_profiler_counter(%rip), %rdx
	movq	(%rdx), %rax
	addq	$1, %rax
	movq	%rax, (%rsi)
	movq	%rax, (%rdx)
	jmp	.L415
	.p2align 4,,10
	.p2align 3
.L506:
	movq	.refptr._ZNSt7__cxx1112basic_stringIcSt11char_traitsIcESaIcEEC1IS3_EEPKcRKS3_(%rip), %rdx
	movl	$337037418, %ecx
	call	__gcov_indirect_call_profiler_v4
	jmp	.L414
	.p2align 4,,10
	.p2align 3
.L510:
	movq	.refptr._ZNSt7__cxx1112basic_stringIcSt11char_traitsIcESaIcEEC1IS3_EEPKcRKS3_(%rip), %rdx
	movl	$337037418, %ecx
	call	__gcov_indirect_call_profiler_v4
	jmp	.L419
	.p2align 4,,10
	.p2align 3
.L512:
	movq	.refptr._ZNSt7__cxx1112basic_stringIcSt11char_traitsIcESaIcEEC1IS3_EEPKcRKS3_(%rip), %rdx
	movl	$337037418, %ecx
	call	__gcov_indirect_call_profiler_v4
	jmp	.L421
	.p2align 4,,10
	.p2align 3
.L511:
	movq	.refptr.__gcov_time_profiler_counter(%rip), %rdx
	movq	(%rdx), %rax
	addq	$1, %rax
	movq	%rax, (%rsi)
	movq	%rax, (%rdx)
	jmp	.L420
	.p2align 4,,10
	.p2align 3
.L514:
	movq	.refptr._ZNSt6vectorINSt7__cxx1112basic_stringIcSt11char_traitsIcESaIcEEESaIS5_EE19_M_range_initializeIPKS5_EEvT_SB_St20forward_iterator_tag(%rip), %rdx
	movl	$1616564229, %ecx
	call	__gcov_indirect_call_profiler_v4
	movq	.refptr.__gcov7._ZNSt6vectorINSt7__cxx1112basic_stringIcSt11char_traitsIcESaIcEEESaIS5_EE19_M_range_initializeIPKS5_EEvT_SB_St20forward_iterator_tag.lto_priv.0(%rip), %rdx
	movq	(%r15), %rax
	cmpq	$0, (%rdx)
	jne	.L424
.L478:
	movq	.refptr.__gcov_time_profiler_counter(%rip), %r8
	movq	(%r8), %rdi
	leaq	1(%rdi), %rcx
	movq	%rcx, (%rdx)
	movq	%rcx, (%r8)
.L424:
	movq	.refptr.__gcov0._ZNSt6vectorINSt7__cxx1112basic_stringIcSt11char_traitsIcESaIcEEESaIS5_EE19_M_range_initializeIPKS5_EEvT_SB_St20forward_iterator_tag.lto_priv.0(%rip), %rbx
	addq	$1, 8(%rbx)
	testq	%rax, %rax
	je	.L425
	movq	.refptr._ZN9__gnu_cxx13new_allocatorINSt7__cxx1112basic_stringIcSt11char_traitsIcESaIcEEEE8allocateEyPKv(%rip), %rdx
	movl	$774033910, %ecx
	call	__gcov_indirect_call_profiler_v4
	jmp	.L425
	.p2align 4,,10
	.p2align 3
.L513:
	movq	.refptr.__gcov_time_profiler_counter(%rip), %rdx
	movq	(%rdx), %rax
	addq	$1, %rax
	movq	%rax, (%rsi)
	movq	%rax, (%rdx)
	jmp	.L422
	.p2align 4,,10
	.p2align 3
.L525:
	movq	.refptr._ZNSt6vectorINSt7__cxx1112basic_stringIcSt11char_traitsIcESaIcEEESaIS5_EED1Ev(%rip), %rdx
	movl	$890895920, %ecx
	call	__gcov_indirect_call_profiler_v4
	movq	.refptr.__gcov0._ZNSt6vectorINSt7__cxx1112basic_stringIcSt11char_traitsIcESaIcEEESaIS5_EED1Ev.lto_priv.0(%rip), %rdi
	movq	.refptr.__gcov7._ZNSt6vectorINSt7__cxx1112basic_stringIcSt11char_traitsIcESaIcEEESaIS5_EED1Ev.lto_priv.0(%rip), %rdx
	movq	(%r15), %rax
	addq	$1, (%rdi)
	cmpq	$0, (%rdx)
	jne	.L467
.L477:
	movq	.refptr.__gcov_time_profiler_counter(%rip), %r8
	movq	(%r8), %rsi
	leaq	1(%rsi), %rcx
	movq	%rcx, (%rdx)
	movq	%rcx, (%r8)
.L467:
	testq	%rax, %rax
	je	.L468
	movq	.refptr._ZNSt12_Destroy_auxILb0EE9__destroyIPNSt7__cxx1112basic_stringIcSt11char_traitsIcESaIcEEEEEvT_S9_(%rip), %rdx
	movl	$32020916, %ecx
	call	__gcov_indirect_call_profiler_v4
	jmp	.L468
	.p2align 4,,10
	.p2align 3
.L517:
	movq	.refptr.__gcov_time_profiler_counter(%rip), %rcx
	movq	(%rcx), %rdi
	leaq	1(%rdi), %rdx
	movq	%rdx, (%rax)
	movq	%rdx, (%rcx)
	jmp	.L428
	.p2align 4,,10
	.p2align 3
.L516:
	movq	.refptr._ZNSt20__uninitialized_copyILb0EE13__uninit_copyIPKNSt7__cxx1112basic_stringIcSt11char_traitsIcESaIcEEEPS7_EET0_T_SC_SB_(%rip), %rdx
	movl	$1699058223, %ecx
	call	__gcov_indirect_call_profiler_v4
	jmp	.L427
	.p2align 4,,10
	.p2align 3
.L526:
	movq	.refptr.__gcov_time_profiler_counter(%rip), %rcx
	movq	(%rcx), %rbx
	leaq	1(%rbx), %rdx
	movq	%rdx, (%rax)
	movq	%rdx, (%rcx)
	jmp	.L469
	.p2align 4,,10
	.p2align 3
.L543:
	movq	.refptr.__gcov_time_profiler_counter(%rip), %rcx
	movq	(%rcx), %rdx
	addq	$1, %rdx
	movq	%rdx, (%rax)
	movq	%rdx, (%rcx)
	jmp	.L458
	.p2align 4,,10
	.p2align 3
.L542:
	movq	.refptr._ZNSt13basic_filebufIcSt11char_traitsIcEED2Ev(%rip), %rdx
	movl	$646146352, %ecx
	call	__gcov_indirect_call_profiler_v4
	jmp	.L457
	.p2align 4,,10
	.p2align 3
.L541:
	movq	.refptr.__gcov_time_profiler_counter(%rip), %rcx
	movq	(%rcx), %rsi
	leaq	1(%rsi), %rdx
	movq	%rdx, (%rax)
	movq	%rdx, (%rcx)
	jmp	.L456
	.p2align 4,,10
	.p2align 3
.L538:
	movq	.refptr.__gcov_time_profiler_counter(%rip), %rdx
	movq	(%rdx), %rax
	addq	$1, %rax
	movq	%rax, __gcov7._ZN8Polyfish4Eval4NNUE9load_evalENSt7__cxx1112basic_stringIcSt11char_traitsIcESaIcEEERSi.lto_priv.0(%rip)
	movq	%rax, (%rdx)
	jmp	.L451
	.p2align 4,,10
	.p2align 3
.L537:
	movq	.refptr._ZN8Polyfish4Eval4NNUE9load_evalENSt7__cxx1112basic_stringIcSt11char_traitsIcESaIcEEERSi(%rip), %rdx
	movl	$1214027052, %ecx
	call	__gcov_indirect_call_profiler_v4
	jmp	.L450
	.p2align 4,,10
	.p2align 3
.L534:
	movq	.refptr.__gcov_time_profiler_counter(%rip), %r8
	movq	(%r8), %rcx
	addq	$1, %rcx
	movq	%rcx, (%rax)
	movq	%rcx, (%r8)
	jmp	.L445
	.p2align 4,,10
	.p2align 3
.L533:
	movq	.refptr.__gcov_time_profiler_counter(%rip), %rcx
	movq	(%rcx), %rdx
	addq	$1, %rdx
	movq	%rdx, (%rax)
	movq	%rdx, (%rcx)
	jmp	.L444
	.p2align 4,,10
	.p2align 3
.L531:
	addq	$1, 344+__gcov0._ZN8Polyfish4Eval4NNUE4initEv.lto_priv.0(%rip)
	jmp	.L462
	.p2align 4,,10
	.p2align 3
.L515:
	movq	.refptr.__gcov_time_profiler_counter(%rip), %rcx
	movq	(%rcx), %rdi
	leaq	1(%rdi), %rdx
	movq	%rdx, (%rax)
	movq	%rdx, (%rcx)
	jmp	.L426
	.p2align 4,,10
	.p2align 3
.L532:
	movq	64(%rsp), %rdx
	leaq	_ZN8Polyfish4Eval19currentEvalFileNameB5cxx11E(%rip), %rcx
	addq	$1, 360+__gcov0._ZN8Polyfish4Eval4NNUE4initEv.lto_priv.0(%rip)
	call	_ZNSt7__cxx1112basic_stringIcSt11char_traitsIcESaIcEE9_M_assignERKS4_
	addq	$1, 368+__gcov0._ZN8Polyfish4Eval4NNUE4initEv.lto_priv.0(%rip)
	jmp	.L463
.L530:
	movq	.refptr.__gcov_time_profiler_counter(%rip), %rdx
	movq	(%rdx), %rax
	addq	$1, %rax
	movq	%rax, __gcov7._ZNSiC1EPSt15basic_streambufIcSt11char_traitsIcEE.lto_priv.0(%rip)
	movq	%rax, (%rdx)
	jmp	.L460
	.seh_endproc
	.section .rdata,"dr"
	.align 8
.LC9:
	.ascii "If the UCI option \"Use NNUE\" is set to true, network evaluation parameters compatible with the engine must be available.\0"
	.align 8
.LC10:
	.ascii "The option is set to true, but the network file \0"
.LC11:
	.ascii " was not loaded successfully.\0"
	.align 8
.LC12:
	.ascii "The UCI option EvalFile might need to specify the full path, including the directory name, to the network file.\0"
	.align 8
.LC13:
	.ascii "The default net can be downloaded from: https://tests.stockfishchess.org/api/nn/\0"
	.align 8
.LC14:
	.ascii "The engine will be terminated now.\0"
.LC15:
	.ascii "info string ERROR: \0"
	.align 8
.LC16:
	.ascii "info string classical evaluation enabled\0"
	.align 8
.LC17:
	.ascii "info string NNUE evaluation using \0"
.LC18:
	.ascii " enabled\0"
	.text
	.p2align 4
	.globl	_ZN8Polyfish4Eval4NNUE6verifyEv
	.def	_ZN8Polyfish4Eval4NNUE6verifyEv;	.scl	2;	.type	32;	.endef
	.seh_proc	_ZN8Polyfish4Eval4NNUE6verifyEv
_ZN8Polyfish4Eval4NNUE6verifyEv:
	pushq	%r13
	.seh_pushreg	%r13
	pushq	%r12
	.seh_pushreg	%r12
	pushq	%rbp
	.seh_pushreg	%rbp
	pushq	%rdi
	.seh_pushreg	%rdi
	pushq	%rsi
	.seh_pushreg	%rsi
	pushq	%rbx
	.seh_pushreg	%rbx
	subq	$248, %rsp
	.seh_stackalloc	248
	.seh_endprologue
	movq	.refptr.__gcov_indirect_call(%rip), %rsi
	movq	(%rsi), %rax
	testq	%rax, %rax
	jne	.L588
	addq	$1, __gcov0._ZN8Polyfish4Eval4NNUE6verifyEv.lto_priv.0(%rip)
	cmpq	$0, __gcov7._ZN8Polyfish4Eval4NNUE6verifyEv.lto_priv.0(%rip)
	je	.L579
.L547:
	movq	.refptr.__gcov7._ZNSt7__cxx1112basic_stringIcSt11char_traitsIcESaIcEEC1IS3_EEPKcRKS3_.lto_priv.0(%rip), %rax
	cmpq	$0, (%rax)
	je	.L589
.L548:
	movq	.refptr.__gcov0._ZNSt7__cxx1112basic_stringIcSt11char_traitsIcESaIcEEC1IS3_EEPKcRKS3_.lto_priv.0(%rip), %rbx
	leaq	8+.LC5(%rip), %r8
	xorl	%r9d, %r9d
	leaq	208(%rsp), %r12
	leaq	-8(%r8), %rdx
	movq	%r12, %rcx
	leaq	224(%rsp), %rdi
	addq	$1, (%rbx)
	movq	%rdi, 208(%rsp)
	call	_ZNSt7__cxx1112basic_stringIcSt11char_traitsIcESaIcEE12_M_constructIPKcEEvT_S8_St20forward_iterator_tag
	addq	$1, 16(%rbx)
	movq	%r12, %rcx
	addq	$1, 8+__gcov0._ZN8Polyfish4Eval4NNUE6verifyEv.lto_priv.0(%rip)
	call	_ZNSt3mapINSt7__cxx1112basic_stringIcSt11char_traitsIcESaIcEEEN8Polyfish3UCI6OptionENS7_19CaseInsensitiveLessESaISt4pairIKS5_S8_EEEixEOS5_.constprop.0
	addq	$1, 16+__gcov0._ZN8Polyfish4Eval4NNUE6verifyEv.lto_priv.0(%rip)
	cmpq	$0, (%rsi)
	movq	%rax, %rbx
	jne	.L590
.L549:
	addq	$1, __gcov0._ZNK8Polyfish3UCI6OptioncvNSt7__cxx1112basic_stringIcSt11char_traitsIcESaIcEEEEv.lto_priv.0(%rip)
	cmpq	$0, __gcov7._ZNK8Polyfish3UCI6OptioncvNSt7__cxx1112basic_stringIcSt11char_traitsIcESaIcEEEEv.lto_priv.0(%rip)
	je	.L591
.L550:
	movq	32(%rbx), %rdx
	movq	40(%rbx), %r8
	leaq	48(%rsp), %r13
	leaq	64(%rsp), %rbp
	movq	%r13, %rcx
	movq	%rbp, 48(%rsp)
	addq	%rdx, %r8
	call	_ZNSt7__cxx1112basic_stringIcSt11char_traitsIcESaIcEE12_M_constructIPcEEvT_S7_St20forward_iterator_tag.constprop.0
	movq	208(%rsp), %rcx
	addq	$1, 8+__gcov0._ZNK8Polyfish3UCI6OptioncvNSt7__cxx1112basic_stringIcSt11char_traitsIcESaIcEEEEv.lto_priv.0(%rip)
	cmpq	%rdi, %rcx
	je	.L551
	movq	224(%rsp), %rax
	addq	$1, 24+__gcov0._ZN8Polyfish4Eval4NNUE6verifyEv.lto_priv.0(%rip)
	leaq	1(%rax), %rdx
	call	_ZdlPvy
	addq	$1, 32+__gcov0._ZN8Polyfish4Eval4NNUE6verifyEv.lto_priv.0(%rip)
.L551:
	cmpq	$0, 56(%rsp)
	je	.L592
.L552:
	cmpb	$0, _ZN8Polyfish4Eval7useNNUEE(%rip)
	je	.L554
	addq	$1, 56+__gcov0._ZN8Polyfish4Eval4NNUE6verifyEv.lto_priv.0(%rip)
	cmpq	$0, (%rsi)
	jne	.L593
.L555:
	addq	$1, __gcov0._ZSteqIcEN9__gnu_cxx11__enable_ifIXsrSt9__is_charIT_E7__valueEbE6__typeERKNSt7__cxx1112basic_stringIS3_St11char_traitsIS3_ESaIS3_EEESE_.lto_priv.0(%rip)
	cmpq	$0, __gcov7._ZSteqIcEN9__gnu_cxx11__enable_ifIXsrSt9__is_charIT_E7__valueEbE6__typeERKNSt7__cxx1112basic_stringIS3_St11char_traitsIS3_ESaIS3_EEESE_.lto_priv.0(%rip)
	je	.L594
.L556:
	movq	8+_ZN8Polyfish4Eval19currentEvalFileNameB5cxx11E(%rip), %r8
	cmpq	56(%rsp), %r8
	jne	.L557
	movq	48(%rsp), %rdx
	movq	_ZN8Polyfish4Eval19currentEvalFileNameB5cxx11E(%rip), %rcx
	testq	%r8, %r8
	je	.L595
	addq	$1, 16+__gcov0._ZSteqIcEN9__gnu_cxx11__enable_ifIXsrSt9__is_charIT_E7__valueEbE6__typeERKNSt7__cxx1112basic_stringIS3_St11char_traitsIS3_ESaIS3_EEESE_.lto_priv.0(%rip)
	call	memcmp
	testl	%eax, %eax
	je	.L559
	addq	$1, 24+__gcov0._ZSteqIcEN9__gnu_cxx11__enable_ifIXsrSt9__is_charIT_E7__valueEbE6__typeERKNSt7__cxx1112basic_stringIS3_St11char_traitsIS3_ESaIS3_EEESE_.lto_priv.0(%rip)
.L557:
	leaq	176(%rsp), %rcx
	leaq	.LC9(%rip), %rdx
	addq	$1, 64+__gcov0._ZN8Polyfish4Eval4NNUE6verifyEv.lto_priv.0(%rip)
	call	_ZNSt7__cxx1112basic_stringIcSt11char_traitsIcESaIcEEC1IS3_EEPKcRKS3_.constprop.0
	movq	%r13, %r8
	movq	%r12, %rcx
	leaq	.LC10(%rip), %rdx
	addq	$1, 72+__gcov0._ZN8Polyfish4Eval4NNUE6verifyEv.lto_priv.0(%rip)
	call	_ZStplIcSt11char_traitsIcESaIcEENSt7__cxx1112basic_stringIT_T0_T1_EEPKS5_RKS8_
	leaq	144(%rsp), %rcx
	movq	%r12, %rdx
	leaq	.LC11(%rip), %r8
	addq	$1, 80+__gcov0._ZN8Polyfish4Eval4NNUE6verifyEv.lto_priv.0(%rip)
	call	_ZStplIcSt11char_traitsIcESaIcEENSt7__cxx1112basic_stringIT_T0_T1_EEOS8_PKS5_
	movq	208(%rsp), %rcx
	addq	$1, 88+__gcov0._ZN8Polyfish4Eval4NNUE6verifyEv.lto_priv.0(%rip)
	cmpq	%rdi, %rcx
	je	.L560
	movq	224(%rsp), %rax
	addq	$1, 96+__gcov0._ZN8Polyfish4Eval4NNUE6verifyEv.lto_priv.0(%rip)
	leaq	1(%rax), %rdx
	call	_ZdlPvy
	addq	$1, 120+__gcov0._ZN8Polyfish4Eval4NNUE6verifyEv.lto_priv.0(%rip)
.L560:
	leaq	112(%rsp), %rcx
	leaq	.LC12(%rip), %rdx
	call	_ZNSt7__cxx1112basic_stringIcSt11char_traitsIcESaIcEEC1IS3_EEPKcRKS3_.constprop.0
	leaq	.LC6(%rip), %rdx
	movq	%r12, %rcx
	addq	$1, 128+__gcov0._ZN8Polyfish4Eval4NNUE6verifyEv.lto_priv.0(%rip)
	call	_ZNSt7__cxx1112basic_stringIcSt11char_traitsIcESaIcEEC1IS3_EEPKcRKS3_.constprop.0
	leaq	80(%rsp), %rcx
	movq	%r12, %r8
	leaq	.LC13(%rip), %rdx
	addq	$1, 136+__gcov0._ZN8Polyfish4Eval4NNUE6verifyEv.lto_priv.0(%rip)
	call	_ZStplIcSt11char_traitsIcESaIcEENSt7__cxx1112basic_stringIT_T0_T1_EEPKS5_OS8_
	movq	208(%rsp), %rcx
	addq	$1, 144+__gcov0._ZN8Polyfish4Eval4NNUE6verifyEv.lto_priv.0(%rip)
	cmpq	%rdi, %rcx
	je	.L561
	movq	224(%rsp), %rax
	addq	$1, 152+__gcov0._ZN8Polyfish4Eval4NNUE6verifyEv.lto_priv.0(%rip)
	leaq	1(%rax), %rdx
	call	_ZdlPvy
	addq	$1, 160+__gcov0._ZN8Polyfish4Eval4NNUE6verifyEv.lto_priv.0(%rip)
.L561:
	movq	%r12, %rcx
	leaq	.LC14(%rip), %rdx
	leaq	.LC15(%rip), %r12
	call	_ZNSt7__cxx1112basic_stringIcSt11char_traitsIcESaIcEEC1IS3_EEPKcRKS3_.constprop.0
	addq	$1, 168+__gcov0._ZN8Polyfish4Eval4NNUE6verifyEv.lto_priv.0(%rip)
	call	_ZN8PolyfishlsERSoNS_8SyncCoutE.constprop.0
	movl	$19, %r8d
	movq	%r12, %rdx
	addq	$1, 176+__gcov0._ZN8Polyfish4Eval4NNUE6verifyEv.lto_priv.0(%rip)
	movq	%rax, %rcx
	movq	%rax, %r13
	call	_ZSt16__ostream_insertIcSt11char_traitsIcEERSt13basic_ostreamIT_T0_ES6_PKS3_x
	movq	184(%rsp), %r8
	movq	%r13, %rcx
	movq	176(%rsp), %rdx
	addq	$1, 184+__gcov0._ZN8Polyfish4Eval4NNUE6verifyEv.lto_priv.0(%rip)
	call	_ZSt16__ostream_insertIcSt11char_traitsIcEERSt13basic_ostreamIT_T0_ES6_PKS3_x
	addq	$1, 192+__gcov0._ZN8Polyfish4Eval4NNUE6verifyEv.lto_priv.0(%rip)
	movq	%rax, %rcx
	call	_ZSt4endlIcSt11char_traitsIcEERSt13basic_ostreamIT_T0_ES6_
	addq	$1, 200+__gcov0._ZN8Polyfish4Eval4NNUE6verifyEv.lto_priv.0(%rip)
	movq	%rax, %rcx
	call	_ZN8PolyfishlsERSoNS_8SyncCoutE.constprop.1
	addq	$1, 208+__gcov0._ZN8Polyfish4Eval4NNUE6verifyEv.lto_priv.0(%rip)
	call	_ZN8PolyfishlsERSoNS_8SyncCoutE.constprop.0
	movl	$19, %r8d
	movq	%r12, %rdx
	addq	$1, 216+__gcov0._ZN8Polyfish4Eval4NNUE6verifyEv.lto_priv.0(%rip)
	movq	%rax, %rcx
	movq	%rax, %r13
	call	_ZSt16__ostream_insertIcSt11char_traitsIcEERSt13basic_ostreamIT_T0_ES6_PKS3_x
	movq	152(%rsp), %r8
	movq	%r13, %rcx
	movq	144(%rsp), %rdx
	addq	$1, 224+__gcov0._ZN8Polyfish4Eval4NNUE6verifyEv.lto_priv.0(%rip)
	call	_ZSt16__ostream_insertIcSt11char_traitsIcEERSt13basic_ostreamIT_T0_ES6_PKS3_x
	addq	$1, 232+__gcov0._ZN8Polyfish4Eval4NNUE6verifyEv.lto_priv.0(%rip)
	movq	%rax, %rcx
	call	_ZSt4endlIcSt11char_traitsIcEERSt13basic_ostreamIT_T0_ES6_
	addq	$1, 240+__gcov0._ZN8Polyfish4Eval4NNUE6verifyEv.lto_priv.0(%rip)
	movq	%rax, %rcx
	call	_ZN8PolyfishlsERSoNS_8SyncCoutE.constprop.1
	addq	$1, 248+__gcov0._ZN8Polyfish4Eval4NNUE6verifyEv.lto_priv.0(%rip)
	call	_ZN8PolyfishlsERSoNS_8SyncCoutE.constprop.0
	movl	$19, %r8d
	movq	%r12, %rdx
	addq	$1, 256+__gcov0._ZN8Polyfish4Eval4NNUE6verifyEv.lto_priv.0(%rip)
	movq	%rax, %rcx
	movq	%rax, %r13
	call	_ZSt16__ostream_insertIcSt11char_traitsIcEERSt13basic_ostreamIT_T0_ES6_PKS3_x
	movq	120(%rsp), %r8
	movq	%r13, %rcx
	movq	112(%rsp), %rdx
	addq	$1, 264+__gcov0._ZN8Polyfish4Eval4NNUE6verifyEv.lto_priv.0(%rip)
	call	_ZSt16__ostream_insertIcSt11char_traitsIcEERSt13basic_ostreamIT_T0_ES6_PKS3_x
	addq	$1, 272+__gcov0._ZN8Polyfish4Eval4NNUE6verifyEv.lto_priv.0(%rip)
	movq	%rax, %rcx
	call	_ZSt4endlIcSt11char_traitsIcEERSt13basic_ostreamIT_T0_ES6_
	addq	$1, 280+__gcov0._ZN8Polyfish4Eval4NNUE6verifyEv.lto_priv.0(%rip)
	movq	%rax, %rcx
	call	_ZN8PolyfishlsERSoNS_8SyncCoutE.constprop.1
	addq	$1, 288+__gcov0._ZN8Polyfish4Eval4NNUE6verifyEv.lto_priv.0(%rip)
	call	_ZN8PolyfishlsERSoNS_8SyncCoutE.constprop.0
	movl	$19, %r8d
	movq	%r12, %rdx
	addq	$1, 296+__gcov0._ZN8Polyfish4Eval4NNUE6verifyEv.lto_priv.0(%rip)
	movq	%rax, %rcx
	movq	%rax, %r13
	call	_ZSt16__ostream_insertIcSt11char_traitsIcEERSt13basic_ostreamIT_T0_ES6_PKS3_x
	movq	88(%rsp), %r8
	movq	%r13, %rcx
	movq	80(%rsp), %rdx
	addq	$1, 304+__gcov0._ZN8Polyfish4Eval4NNUE6verifyEv.lto_priv.0(%rip)
	call	_ZSt16__ostream_insertIcSt11char_traitsIcEERSt13basic_ostreamIT_T0_ES6_PKS3_x
	addq	$1, 312+__gcov0._ZN8Polyfish4Eval4NNUE6verifyEv.lto_priv.0(%rip)
	movq	%rax, %rcx
	call	_ZSt4endlIcSt11char_traitsIcEERSt13basic_ostreamIT_T0_ES6_
	addq	$1, 320+__gcov0._ZN8Polyfish4Eval4NNUE6verifyEv.lto_priv.0(%rip)
	movq	%rax, %rcx
	call	_ZN8PolyfishlsERSoNS_8SyncCoutE.constprop.1
	addq	$1, 328+__gcov0._ZN8Polyfish4Eval4NNUE6verifyEv.lto_priv.0(%rip)
	call	_ZN8PolyfishlsERSoNS_8SyncCoutE.constprop.0
	movl	$19, %r8d
	movq	%r12, %rdx
	addq	$1, 336+__gcov0._ZN8Polyfish4Eval4NNUE6verifyEv.lto_priv.0(%rip)
	movq	%rax, %rcx
	movq	%rax, %r13
	call	_ZSt16__ostream_insertIcSt11char_traitsIcEERSt13basic_ostreamIT_T0_ES6_PKS3_x
	movq	216(%rsp), %r8
	movq	%r13, %rcx
	movq	208(%rsp), %rdx
	addq	$1, 344+__gcov0._ZN8Polyfish4Eval4NNUE6verifyEv.lto_priv.0(%rip)
	call	_ZSt16__ostream_insertIcSt11char_traitsIcEERSt13basic_ostreamIT_T0_ES6_PKS3_x
	addq	$1, 352+__gcov0._ZN8Polyfish4Eval4NNUE6verifyEv.lto_priv.0(%rip)
	movq	%rax, %rcx
	call	_ZSt4endlIcSt11char_traitsIcEERSt13basic_ostreamIT_T0_ES6_
	addq	$1, 360+__gcov0._ZN8Polyfish4Eval4NNUE6verifyEv.lto_priv.0(%rip)
	movq	%rax, %rcx
	call	_ZN8PolyfishlsERSoNS_8SyncCoutE.constprop.1
	movl	$1, %ecx
	addq	$1, 368+__gcov0._ZN8Polyfish4Eval4NNUE6verifyEv.lto_priv.0(%rip)
	call	exit
	.p2align 4,,10
	.p2align 3
.L554:
	addq	$1, 112+__gcov0._ZN8Polyfish4Eval4NNUE6verifyEv.lto_priv.0(%rip)
	call	_ZN8PolyfishlsERSoNS_8SyncCoutE.constprop.0
	movl	$40, %r8d
	leaq	.LC16(%rip), %rdx
	addq	$1, 424+__gcov0._ZN8Polyfish4Eval4NNUE6verifyEv.lto_priv.0(%rip)
	movq	%rax, %rcx
	movq	%rax, %r12
	call	_ZSt16__ostream_insertIcSt11char_traitsIcEERSt13basic_ostreamIT_T0_ES6_PKS3_x
	movq	.refptr.__gcov7._ZSt4endlIcSt11char_traitsIcEERSt13basic_ostreamIT_T0_ES6_.lto_priv.0(%rip), %rax
	addq	$1, 432+__gcov0._ZN8Polyfish4Eval4NNUE6verifyEv.lto_priv.0(%rip)
	cmpq	$0, (%rax)
	je	.L596
.L576:
	movq	(%r12), %rax
	movq	-24(%rax), %rax
	movq	240(%r12,%rax), %r13
	testq	%r13, %r13
	je	.L587
	movq	.refptr.__gcov0._ZSt4endlIcSt11char_traitsIcEERSt13basic_ostreamIT_T0_ES6_.lto_priv.0(%rip), %rbx
	addq	$1, 8(%rbx)
	cmpq	$0, (%rsi)
	jne	.L597
.L569:
	movq	.refptr.__gcov7._ZNKSt5ctypeIcE5widenEc.lto_priv.0(%rip), %rax
	cmpq	$0, (%rax)
	je	.L598
.L570:
	cmpb	$0, 56(%r13)
	je	.L571
	movq	.refptr.__gcov0._ZNKSt5ctypeIcE5widenEc.lto_priv.0(%rip), %rax
	movsbl	67(%r13), %edx
	addq	$1, (%rax)
.L572:
	addq	$1, 16(%rbx)
	movq	%r12, %rcx
	call	_ZNSo3putEc
	addq	$1, 24(%rbx)
	movq	%rax, %rcx
	call	_ZNSo5flushEv
	addq	$1, 32(%rbx)
	movq	%rax, %rcx
	addq	$1, 440+__gcov0._ZN8Polyfish4Eval4NNUE6verifyEv.lto_priv.0(%rip)
	call	_ZN8PolyfishlsERSoNS_8SyncCoutE.constprop.1
.L567:
	movq	48(%rsp), %rcx
	cmpq	%rbp, %rcx
	je	.L599
	movq	64(%rsp), %rax
	addq	$1, 448+__gcov0._ZN8Polyfish4Eval4NNUE6verifyEv.lto_priv.0(%rip)
	leaq	1(%rax), %rdx
	call	_ZdlPvy
	addq	$1, 464+__gcov0._ZN8Polyfish4Eval4NNUE6verifyEv.lto_priv.0(%rip)
	addq	$248, %rsp
	popq	%rbx
	popq	%rsi
	popq	%rdi
	popq	%rbp
	popq	%r12
	popq	%r13
	ret
	.p2align 4,,10
	.p2align 3
.L599:
	addq	$1, 456+__gcov0._ZN8Polyfish4Eval4NNUE6verifyEv.lto_priv.0(%rip)
	addq	$248, %rsp
	popq	%rbx
	popq	%rsi
	popq	%rdi
	popq	%rbp
	popq	%r12
	popq	%r13
	ret
	.p2align 4,,10
	.p2align 3
.L592:
	addq	$1, 40+__gcov0._ZN8Polyfish4Eval4NNUE6verifyEv.lto_priv.0(%rip)
	addq	$1, __gcov0._ZNSt7__cxx1112basic_stringIcSt11char_traitsIcESaIcEE6assignEPKc.lto_priv.0(%rip)
	cmpq	$0, __gcov7._ZNSt7__cxx1112basic_stringIcSt11char_traitsIcESaIcEE6assignEPKc.lto_priv.0(%rip)
	je	.L600
.L553:
	leaq	.LC6(%rip), %r9
	xorl	%r8d, %r8d
	xorl	%edx, %edx
	movq	%r13, %rcx
	movq	$20, 32(%rsp)
	call	_ZNSt7__cxx1112basic_stringIcSt11char_traitsIcESaIcEE10_M_replaceEyyPKcy
	addq	$1, 8+__gcov0._ZNSt7__cxx1112basic_stringIcSt11char_traitsIcESaIcEE6assignEPKc.lto_priv.0(%rip)
	addq	$1, 48+__gcov0._ZN8Polyfish4Eval4NNUE6verifyEv.lto_priv.0(%rip)
	jmp	.L552
	.p2align 4,,10
	.p2align 3
.L571:
	movq	.refptr.__gcov0._ZNKSt5ctypeIcE5widenEc.lto_priv.0(%rip), %rdi
	movq	%r13, %rcx
	addq	$1, 8(%rdi)
	call	_ZNKSt5ctypeIcE13_M_widen_initEv
	movq	0(%r13), %rax
	addq	$1, 16(%rdi)
	movq	%r13, %rcx
	movq	.refptr.__gcov4._ZNKSt5ctypeIcE5widenEc.lto_priv.0(%rip), %rdx
	movq	48(%rax), %rax
	movq	%rdx, 8(%rsi)
	movl	$10, %edx
	movq	%rax, (%rsi)
	call	*%rax
	addq	$1, 24(%rdi)
	movsbl	%al, %edx
	jmp	.L572
	.p2align 4,,10
	.p2align 3
.L594:
	movq	.refptr.__gcov_time_profiler_counter(%rip), %rdx
	movq	(%rdx), %rax
	addq	$1, %rax
	movq	%rax, __gcov7._ZSteqIcEN9__gnu_cxx11__enable_ifIXsrSt9__is_charIT_E7__valueEbE6__typeERKNSt7__cxx1112basic_stringIS3_St11char_traitsIS3_ESaIS3_EEESE_.lto_priv.0(%rip)
	movq	%rax, (%rdx)
	jmp	.L556
	.p2align 4,,10
	.p2align 3
.L593:
	movq	.refptr._ZSteqIcEN9__gnu_cxx11__enable_ifIXsrSt9__is_charIT_E7__valueEbE6__typeERKNSt7__cxx1112basic_stringIS3_St11char_traitsIS3_ESaIS3_EEESE_(%rip), %rdx
	movl	$1675963069, %ecx
	call	__gcov_indirect_call_profiler_v4
	jmp	.L555
	.p2align 4,,10
	.p2align 3
.L595:
	addq	$1, 8+__gcov0._ZSteqIcEN9__gnu_cxx11__enable_ifIXsrSt9__is_charIT_E7__valueEbE6__typeERKNSt7__cxx1112basic_stringIS3_St11char_traitsIS3_ESaIS3_EEESE_.lto_priv.0(%rip)
.L559:
	addq	$1, 104+__gcov0._ZN8Polyfish4Eval4NNUE6verifyEv.lto_priv.0(%rip)
	call	_ZN8PolyfishlsERSoNS_8SyncCoutE.constprop.0
	movl	$34, %r8d
	leaq	.LC17(%rip), %rdx
	addq	$1, 376+__gcov0._ZN8Polyfish4Eval4NNUE6verifyEv.lto_priv.0(%rip)
	movq	%rax, %rcx
	movq	%rax, %r12
	call	_ZSt16__ostream_insertIcSt11char_traitsIcEERSt13basic_ostreamIT_T0_ES6_PKS3_x
	movq	56(%rsp), %r8
	movq	%r12, %rcx
	movq	48(%rsp), %rdx
	addq	$1, 384+__gcov0._ZN8Polyfish4Eval4NNUE6verifyEv.lto_priv.0(%rip)
	call	_ZSt16__ostream_insertIcSt11char_traitsIcEERSt13basic_ostreamIT_T0_ES6_PKS3_x
	movl	$8, %r8d
	leaq	.LC18(%rip), %rdx
	addq	$1, 392+__gcov0._ZN8Polyfish4Eval4NNUE6verifyEv.lto_priv.0(%rip)
	movq	%rax, %rcx
	movq	%rax, %r12
	call	_ZSt16__ostream_insertIcSt11char_traitsIcEERSt13basic_ostreamIT_T0_ES6_PKS3_x
	movq	.refptr.__gcov7._ZSt4endlIcSt11char_traitsIcEERSt13basic_ostreamIT_T0_ES6_.lto_priv.0(%rip), %rax
	addq	$1, 400+__gcov0._ZN8Polyfish4Eval4NNUE6verifyEv.lto_priv.0(%rip)
	cmpq	$0, (%rax)
	je	.L601
.L578:
	movq	(%r12), %rax
	movq	-24(%rax), %rax
	movq	240(%r12,%rax), %r13
	testq	%r13, %r13
	je	.L587
	movq	.refptr.__gcov0._ZSt4endlIcSt11char_traitsIcEERSt13basic_ostreamIT_T0_ES6_.lto_priv.0(%rip), %rbx
	addq	$1, 8(%rbx)
	cmpq	$0, (%rsi)
	jne	.L602
.L563:
	movq	.refptr.__gcov7._ZNKSt5ctypeIcE5widenEc.lto_priv.0(%rip), %rax
	cmpq	$0, (%rax)
	je	.L603
.L564:
	cmpb	$0, 56(%r13)
	je	.L565
	movq	.refptr.__gcov0._ZNKSt5ctypeIcE5widenEc.lto_priv.0(%rip), %rax
	movsbl	67(%r13), %edx
	addq	$1, (%rax)
.L566:
	addq	$1, 16(%rbx)
	movq	%r12, %rcx
	call	_ZNSo3putEc
	addq	$1, 24(%rbx)
	movq	%rax, %rcx
	call	_ZNSo5flushEv
	addq	$1, 32(%rbx)
	movq	%rax, %rcx
	addq	$1, 408+__gcov0._ZN8Polyfish4Eval4NNUE6verifyEv.lto_priv.0(%rip)
	call	_ZN8PolyfishlsERSoNS_8SyncCoutE.constprop.1
	addq	$1, 416+__gcov0._ZN8Polyfish4Eval4NNUE6verifyEv.lto_priv.0(%rip)
	jmp	.L567
	.p2align 4,,10
	.p2align 3
.L565:
	movq	.refptr.__gcov0._ZNKSt5ctypeIcE5widenEc.lto_priv.0(%rip), %rdi
	movq	%r13, %rcx
	addq	$1, 8(%rdi)
	call	_ZNKSt5ctypeIcE13_M_widen_initEv
	movq	0(%r13), %rax
	addq	$1, 16(%rdi)
	movq	%r13, %rcx
	movq	.refptr.__gcov4._ZNKSt5ctypeIcE5widenEc.lto_priv.0(%rip), %rdx
	movq	48(%rax), %rax
	movq	%rdx, 8(%rsi)
	movl	$10, %edx
	movq	%rax, (%rsi)
	call	*%rax
	addq	$1, 24(%rdi)
	movsbl	%al, %edx
	jmp	.L566
	.p2align 4,,10
	.p2align 3
.L588:
	leaq	_ZN8Polyfish4Eval4NNUE6verifyEv(%rip), %rdx
	movl	$1950281724, %ecx
	call	__gcov_indirect_call_profiler_v4
	addq	$1, __gcov0._ZN8Polyfish4Eval4NNUE6verifyEv.lto_priv.0(%rip)
	movq	(%rsi), %rax
	cmpq	$0, __gcov7._ZN8Polyfish4Eval4NNUE6verifyEv.lto_priv.0(%rip)
	jne	.L546
	.p2align 4,,10
	.p2align 3
.L579:
	movq	.refptr.__gcov_time_profiler_counter(%rip), %rcx
	movq	(%rcx), %rdi
	leaq	1(%rdi), %rdx
	movq	%rdx, __gcov7._ZN8Polyfish4Eval4NNUE6verifyEv.lto_priv.0(%rip)
	movq	%rdx, (%rcx)
.L546:
	testq	%rax, %rax
	je	.L547
	movq	.refptr._ZNSt7__cxx1112basic_stringIcSt11char_traitsIcESaIcEEC1IS3_EEPKcRKS3_(%rip), %rdx
	movl	$337037418, %ecx
	call	__gcov_indirect_call_profiler_v4
	movq	.refptr.__gcov7._ZNSt7__cxx1112basic_stringIcSt11char_traitsIcESaIcEEC1IS3_EEPKcRKS3_.lto_priv.0(%rip), %rax
	cmpq	$0, (%rax)
	jne	.L548
	.p2align 4,,10
	.p2align 3
.L589:
	movq	.refptr.__gcov_time_profiler_counter(%rip), %rcx
	movq	(%rcx), %rdi
	leaq	1(%rdi), %rdx
	movq	%rdx, (%rax)
	movq	%rdx, (%rcx)
	jmp	.L548
	.p2align 4,,10
	.p2align 3
.L590:
	movq	.refptr._ZNK8Polyfish3UCI6OptioncvNSt7__cxx1112basic_stringIcSt11char_traitsIcESaIcEEEEv(%rip), %rdx
	movl	$1566889725, %ecx
	call	__gcov_indirect_call_profiler_v4
	jmp	.L549
	.p2align 4,,10
	.p2align 3
.L591:
	movq	.refptr.__gcov_time_profiler_counter(%rip), %rdx
	movq	(%rdx), %rax
	addq	$1, %rax
	movq	%rax, __gcov7._ZNK8Polyfish3UCI6OptioncvNSt7__cxx1112basic_stringIcSt11char_traitsIcESaIcEEEEv.lto_priv.0(%rip)
	movq	%rax, (%rdx)
	jmp	.L550
	.p2align 4,,10
	.p2align 3
.L596:
	movq	.refptr.__gcov_time_profiler_counter(%rip), %rcx
	movq	(%rcx), %rdi
	leaq	1(%rdi), %rdx
	movq	%rdx, (%rax)
	movq	%rdx, (%rcx)
	jmp	.L576
	.p2align 4,,10
	.p2align 3
.L601:
	movq	.refptr.__gcov_time_profiler_counter(%rip), %rcx
	movq	(%rcx), %rdi
	leaq	1(%rdi), %rdx
	movq	%rdx, (%rax)
	movq	%rdx, (%rcx)
	jmp	.L578
	.p2align 4,,10
	.p2align 3
.L603:
	movq	.refptr.__gcov_time_profiler_counter(%rip), %rcx
	movq	(%rcx), %rdi
	leaq	1(%rdi), %rdx
	movq	%rdx, (%rax)
	movq	%rdx, (%rcx)
	jmp	.L564
	.p2align 4,,10
	.p2align 3
.L602:
	movq	.refptr._ZNKSt5ctypeIcE5widenEc(%rip), %rdx
	movl	$1827960770, %ecx
	call	__gcov_indirect_call_profiler_v4
	jmp	.L563
	.p2align 4,,10
	.p2align 3
.L598:
	movq	.refptr.__gcov_time_profiler_counter(%rip), %rcx
	movq	(%rcx), %rdi
	leaq	1(%rdi), %rdx
	movq	%rdx, (%rax)
	movq	%rdx, (%rcx)
	jmp	.L570
	.p2align 4,,10
	.p2align 3
.L597:
	movq	.refptr._ZNKSt5ctypeIcE5widenEc(%rip), %rdx
	movl	$1827960770, %ecx
	call	__gcov_indirect_call_profiler_v4
	jmp	.L569
	.p2align 4,,10
	.p2align 3
.L600:
	movq	.refptr.__gcov_time_profiler_counter(%rip), %rdx
	movq	(%rdx), %rax
	addq	$1, %rax
	movq	%rax, __gcov7._ZNSt7__cxx1112basic_stringIcSt11char_traitsIcESaIcEE6assignEPKc.lto_priv.0(%rip)
	movq	%rax, (%rdx)
	jmp	.L553
.L587:
	movq	.refptr.__gcov0._ZSt4endlIcSt11char_traitsIcEERSt13basic_ostreamIT_T0_ES6_.lto_priv.0(%rip), %rax
	addq	$1, (%rax)
	call	_ZSt16__throw_bad_castv
	nop
	.seh_endproc
	.section .rdata,"dr"
.LC20:
	.ascii " \0"
	.text
	.p2align 4
	.def	_ZN8Polyfish5TracelsERSoNS_5ScoreE;	.scl	3;	.type	32;	.endef
	.seh_proc	_ZN8Polyfish5TracelsERSoNS_5ScoreE
_ZN8Polyfish5TracelsERSoNS_5ScoreE:
	pushq	%r13
	.seh_pushreg	%r13
	pushq	%r12
	.seh_pushreg	%r12
	pushq	%rbx
	.seh_pushreg	%rbx
	subq	$64, %rsp
	.seh_stackalloc	64
	vmovups	%xmm6, 32(%rsp)
	.seh_savexmm	%xmm6, 32
	vmovups	%xmm7, 48(%rsp)
	.seh_savexmm	%xmm7, 48
	.seh_endprologue
	movq	.refptr.__gcov_indirect_call(%rip), %rax
	cmpq	$0, (%rax)
	movq	%rcx, %r12
	movl	%edx, %ebx
	je	.L605
	leaq	_ZN8Polyfish5TracelsERSoNS_5ScoreE(%rip), %rdx
	movl	$1923060332, %ecx
	call	__gcov_indirect_call_profiler_v4
.L605:
	addq	$1, __gcov0._ZN8Polyfish5TracelsERSoNS_5ScoreE.lto_priv.0(%rip)
	cmpq	$0, __gcov7._ZN8Polyfish5TracelsERSoNS_5ScoreE.lto_priv.0(%rip)
	jne	.L606
	movq	.refptr.__gcov_time_profiler_counter(%rip), %rdx
	movq	(%rdx), %rax
	addq	$1, %rax
	movq	%rax, __gcov7._ZN8Polyfish5TracelsERSoNS_5ScoreE.lto_priv.0(%rip)
	movq	%rax, (%rdx)
.L606:
	movq	(%r12), %rax
	vxorps	%xmm6, %xmm6, %xmm6
	vmovsd	.LC19(%rip), %xmm7
	movq	%r12, %rcx
	movq	-24(%rax), %rax
	movq	$5, 16(%r12,%rax)
	movswl	%bx, %eax
	addl	$32768, %ebx
	vcvtsi2sdl	%eax, %xmm6, %xmm1
	sarl	$16, %ebx
	vdivsd	%xmm7, %xmm1, %xmm1
	call	_ZNSo9_M_insertIdEERSoT_
	movl	$1, %r8d
	leaq	.LC20(%rip), %rdx
	addq	$1, 8+__gcov0._ZN8Polyfish5TracelsERSoNS_5ScoreE.lto_priv.0(%rip)
	movq	%rax, %rcx
	movq	%rax, %r13
	call	_ZSt16__ostream_insertIcSt11char_traitsIcEERSt13basic_ostreamIT_T0_ES6_PKS3_x
	movq	0(%r13), %rax
	movq	%r13, %rcx
	addq	$1, 16+__gcov0._ZN8Polyfish5TracelsERSoNS_5ScoreE.lto_priv.0(%rip)
	vcvtsi2sdl	%ebx, %xmm6, %xmm1
	movq	-24(%rax), %rax
	movq	$5, 16(%r13,%rax)
	vdivsd	%xmm7, %xmm1, %xmm1
	call	_ZNSo9_M_insertIdEERSoT_
	addq	$1, 24+__gcov0._ZN8Polyfish5TracelsERSoNS_5ScoreE.lto_priv.0(%rip)
	vmovups	32(%rsp), %xmm6
	movq	%r12, %rax
	vmovups	48(%rsp), %xmm7
	addq	$64, %rsp
	popq	%rbx
	popq	%r12
	popq	%r13
	ret
	.seh_endproc
	.section .rdata,"dr"
.LC21:
	.ascii " ----  ----\0"
.LC22:
	.ascii " | \0"
.LC23:
	.ascii " |\12\0"
	.text
	.p2align 4
	.def	_ZN8Polyfish5TracelsERSoNS0_4TermE;	.scl	3;	.type	32;	.endef
	.seh_proc	_ZN8Polyfish5TracelsERSoNS0_4TermE
_ZN8Polyfish5TracelsERSoNS0_4TermE:
	pushq	%r14
	.seh_pushreg	%r14
	pushq	%r13
	.seh_pushreg	%r13
	pushq	%r12
	.seh_pushreg	%r12
	pushq	%rsi
	.seh_pushreg	%rsi
	pushq	%rbx
	.seh_pushreg	%rbx
	subq	$32, %rsp
	.seh_stackalloc	32
	.seh_endprologue
	movq	.refptr.__gcov_indirect_call(%rip), %rax
	cmpq	$0, (%rax)
	movq	%rcx, %r12
	movslq	%edx, %rbx
	jne	.L618
.L608:
	cmpq	$0, __gcov7._ZN8Polyfish5TracelsERSoNS0_4TermE.lto_priv.0(%rip)
	je	.L619
.L609:
	leal	-8(%rbx), %eax
	cmpl	$1, %eax
	jbe	.L617
	cmpl	$14, %ebx
	je	.L617
	addq	$1, 8+__gcov0._ZN8Polyfish5TracelsERSoNS0_4TermE.lto_priv.0(%rip)
	cmpl	$15, %ebx
	jne	.L613
.L612:
	leaq	.LC21(%rip), %r14
	movl	$11, %r8d
	movq	%r12, %rcx
	movq	%r14, %rdx
	leaq	.LC22(%rip), %r13
	call	_ZSt16__ostream_insertIcSt11char_traitsIcEERSt13basic_ostreamIT_T0_ES6_PKS3_x
	movl	$3, %r8d
	movq	%r13, %rdx
	movq	%r12, %rcx
	addq	$1, 24+__gcov0._ZN8Polyfish5TracelsERSoNS0_4TermE.lto_priv.0(%rip)
	call	_ZSt16__ostream_insertIcSt11char_traitsIcEERSt13basic_ostreamIT_T0_ES6_PKS3_x
	addq	$1, 32+__gcov0._ZN8Polyfish5TracelsERSoNS0_4TermE.lto_priv.0(%rip)
	cmpq	$0, __gcov7._ZStlsISt11char_traitsIcEERSt13basic_ostreamIcT_ES5_PKc.lto_priv.0(%rip)
	je	.L620
.L614:
	movl	$11, %r8d
	movq	%r14, %rdx
	movq	%r12, %rcx
	addq	$1, 8+__gcov0._ZStlsISt11char_traitsIcEERSt13basic_ostreamIcT_ES5_PKc.lto_priv.0(%rip)
	call	_ZSt16__ostream_insertIcSt11char_traitsIcEERSt13basic_ostreamIT_T0_ES6_PKS3_x
	addq	$1, 24+__gcov0._ZStlsISt11char_traitsIcEERSt13basic_ostreamIcT_ES5_PKc.lto_priv.0(%rip)
	leaq	_ZN8Polyfish5Trace6scoresE(%rip), %rsi
	addq	$1, 40+__gcov0._ZN8Polyfish5TracelsERSoNS0_4TermE.lto_priv.0(%rip)
.L615:
	movl	$3, %r8d
	movq	%r13, %rdx
	movq	%r12, %rcx
	call	_ZSt16__ostream_insertIcSt11char_traitsIcEERSt13basic_ostreamIT_T0_ES6_PKS3_x
	movl	(%rsi,%rbx,8), %edx
	movq	%r12, %rcx
	subl	4(%rsi,%rbx,8), %edx
	addq	$1, 72+__gcov0._ZN8Polyfish5TracelsERSoNS0_4TermE.lto_priv.0(%rip)
	call	_ZN8Polyfish5TracelsERSoNS_5ScoreE
	addq	$1, 80+__gcov0._ZN8Polyfish5TracelsERSoNS0_4TermE.lto_priv.0(%rip)
	cmpq	$0, __gcov7._ZStlsISt11char_traitsIcEERSt13basic_ostreamIcT_ES5_PKc.lto_priv.0(%rip)
	movq	%rax, %rcx
	je	.L621
.L616:
	movl	$3, %r8d
	leaq	.LC23(%rip), %rdx
	addq	$1, 8+__gcov0._ZStlsISt11char_traitsIcEERSt13basic_ostreamIcT_ES5_PKc.lto_priv.0(%rip)
	call	_ZSt16__ostream_insertIcSt11char_traitsIcEERSt13basic_ostreamIT_T0_ES6_PKS3_x
	addq	$1, 24+__gcov0._ZStlsISt11char_traitsIcEERSt13basic_ostreamIcT_ES5_PKc.lto_priv.0(%rip)
	movq	%r12, %rax
	addq	$1, 88+__gcov0._ZN8Polyfish5TracelsERSoNS0_4TermE.lto_priv.0(%rip)
	addq	$32, %rsp
	popq	%rbx
	popq	%rsi
	popq	%r12
	popq	%r13
	popq	%r14
	ret
	.p2align 4,,10
	.p2align 3
.L613:
	leaq	_ZN8Polyfish5Trace6scoresE(%rip), %rsi
	movq	%r12, %rcx
	addq	$1, 16+__gcov0._ZN8Polyfish5TracelsERSoNS0_4TermE.lto_priv.0(%rip)
	movl	(%rsi,%rbx,8), %edx
	leaq	.LC22(%rip), %r13
	call	_ZN8Polyfish5TracelsERSoNS_5ScoreE
	movl	$3, %r8d
	movq	%r13, %rdx
	addq	$1, 48+__gcov0._ZN8Polyfish5TracelsERSoNS0_4TermE.lto_priv.0(%rip)
	movq	%rax, %rcx
	movq	%rax, %r14
	call	_ZSt16__ostream_insertIcSt11char_traitsIcEERSt13basic_ostreamIT_T0_ES6_PKS3_x
	movl	4(%rsi,%rbx,8), %edx
	movq	%r14, %rcx
	addq	$1, 56+__gcov0._ZN8Polyfish5TracelsERSoNS0_4TermE.lto_priv.0(%rip)
	call	_ZN8Polyfish5TracelsERSoNS_5ScoreE
	addq	$1, 64+__gcov0._ZN8Polyfish5TracelsERSoNS0_4TermE.lto_priv.0(%rip)
	jmp	.L615
	.p2align 4,,10
	.p2align 3
.L617:
	addq	$1, __gcov0._ZN8Polyfish5TracelsERSoNS0_4TermE.lto_priv.0(%rip)
	jmp	.L612
	.p2align 4,,10
	.p2align 3
.L619:
	movq	.refptr.__gcov_time_profiler_counter(%rip), %rdx
	movq	(%rdx), %rax
	addq	$1, %rax
	movq	%rax, __gcov7._ZN8Polyfish5TracelsERSoNS0_4TermE.lto_priv.0(%rip)
	movq	%rax, (%rdx)
	jmp	.L609
	.p2align 4,,10
	.p2align 3
.L621:
	movq	.refptr.__gcov_time_profiler_counter(%rip), %rdx
	movq	(%rdx), %rax
	addq	$1, %rax
	movq	%rax, __gcov7._ZStlsISt11char_traitsIcEERSt13basic_ostreamIcT_ES5_PKc.lto_priv.0(%rip)
	movq	%rax, (%rdx)
	jmp	.L616
	.p2align 4,,10
	.p2align 3
.L618:
	leaq	_ZN8Polyfish5TracelsERSoNS0_4TermE(%rip), %rdx
	movl	$247067814, %ecx
	call	__gcov_indirect_call_profiler_v4
	jmp	.L608
	.p2align 4,,10
	.p2align 3
.L620:
	movq	.refptr.__gcov_time_profiler_counter(%rip), %rdx
	movq	(%rdx), %rax
	addq	$1, %rax
	movq	%rax, __gcov7._ZStlsISt11char_traitsIcEERSt13basic_ostreamIcT_ES5_PKc.lto_priv.0(%rip)
	movq	%rax, (%rdx)
	jmp	.L614
	.seh_endproc
	.p2align 4
	.globl	_ZN8Polyfish4Eval8evaluateERKNS_8PositionEPi
	.def	_ZN8Polyfish4Eval8evaluateERKNS_8PositionEPi;	.scl	2;	.type	32;	.endef
	.seh_proc	_ZN8Polyfish4Eval8evaluateERKNS_8PositionEPi
_ZN8Polyfish4Eval8evaluateERKNS_8PositionEPi:
	pushq	%r15
	.seh_pushreg	%r15
	pushq	%r14
	.seh_pushreg	%r14
	pushq	%r13
	.seh_pushreg	%r13
	pushq	%r12
	.seh_pushreg	%r12
	pushq	%rbp
	.seh_pushreg	%rbp
	pushq	%rdi
	.seh_pushreg	%rdi
	pushq	%rsi
	.seh_pushreg	%rsi
	pushq	%rbx
	.seh_pushreg	%rbx
	subq	$744, %rsp
	.seh_stackalloc	744
	.seh_endprologue
	movq	.refptr.__gcov_indirect_call(%rip), %rax
	cmpq	$0, (%rax)
	movq	%rdx, 824(%rsp)
	movq	%rcx, %rbx
	jne	.L1215
	cmpq	$0, __gcov7._ZN8Polyfish4Eval8evaluateERKNS_8PositionEPi.lto_priv.0(%rip)
	je	.L1216
.L624:
	movl	872(%rbx), %eax
	movl	868(%rbx), %edi
	addl	$32768, %eax
	movl	%edi, 52(%rsp)
	sarl	$16, %eax
	movl	%eax, 48(%rsp)
	testl	%edi, %edi
	je	.L625
	negl	%eax
	addq	$1, __gcov0._ZN8Polyfish4Eval8evaluateERKNS_8PositionEPi.lto_priv.0(%rip)
	movl	%eax, 48(%rsp)
.L625:
	movq	848(%rbx), %rcx
	movzbl	_ZN8Polyfish4Eval7useNNUEE(%rip), %r8d
	cmpl	$9, 5600(%rcx)
	jg	.L626
	movl	336(%rbx), %eax
	addl	368(%rbx), %eax
	addq	$1, 8+__gcov0._ZN8Polyfish4Eval8evaluateERKNS_8PositionEPi.lto_priv.0(%rip)
	cmpl	$7, %eax
	jle	.L1217
	addq	$1, 16+__gcov0._ZN8Polyfish4Eval8evaluateERKNS_8PositionEPi.lto_priv.0(%rip)
.L626:
	movl	48(%rsp), %esi
	movq	856(%rbx), %r9
	movl	%esi, %eax
	movl	20(%r9), %edx
	addl	16(%r9), %edx
	negl	%eax
	movl	28(%r9), %r9d
	cmovs	%esi, %eax
	testl	%edx, %edx
	leal	(%rax,%rax,4), %r10d
	leal	63(%rdx), %eax
	cmovns	%edx, %eax
	addl	$10, %r9d
	sarl	$6, %eax
	addl	$856, %eax
	imull	%r9d, %eax
	cmpl	%eax, %r10d
	jle	.L1218
	testb	%r8b, %r8b
	je	.L628
	addq	$1, 40+__gcov0._ZN8Polyfish4Eval8evaluateERKNS_8PositionEPi.lto_priv.0(%rip)
.L631:
	addq	$1, __gcov0._ZN8Polyfish12_GLOBAL__N_110EvaluationILNS_5Trace7TracingE0EE5valueEv.lto_priv.0(%rip)
	cmpq	$0, __gcov7._ZN8Polyfish12_GLOBAL__N_110EvaluationILNS_5Trace7TracingE0EE5valueEv.lto_priv.0(%rip)
	movq	%rbx, 496(%rsp)
	movq	$0, 536(%rsp)
	je	.L1219
.L632:
	movq	%rbx, %rcx
	call	_ZN8Polyfish8Material5probeERKNS_8PositionE
	movq	8(%rax), %rcx
	movq	%rax, 504(%rsp)
	testq	%rcx, %rcx
	je	.L633
	movq	(%rcx), %rax
	movq	.refptr.__gcov_indirect_call(%rip), %rdi
	leaq	__gcov4._ZN8Polyfish12_GLOBAL__N_110EvaluationILNS_5Trace7TracingE0EE5valueEv.lto_priv.0(%rip), %rsi
	addq	$1, 8+__gcov0._ZN8Polyfish12_GLOBAL__N_110EvaluationILNS_5Trace7TracingE0EE5valueEv.lto_priv.0(%rip)
	movq	496(%rsp), %rdx
	movq	16(%rax), %rax
	movq	%rsi, 8(%rdi)
	movq	%rax, (%rdi)
	call	*%rax
	addq	$1, 24+__gcov0._ZN8Polyfish12_GLOBAL__N_110EvaluationILNS_5Trace7TracingE0EE5valueEv.lto_priv.0(%rip)
.L634:
	movl	%eax, %edx
	movzbl	_ZN8Polyfish4Eval7useNNUEE(%rip), %ecx
	addq	$1, 48+__gcov0._ZN8Polyfish4Eval8evaluateERKNS_8PositionEPi.lto_priv.0(%rip)
	negl	%edx
	cmovs	%eax, %edx
	testb	%cl, %cl
	jne	.L852
	cmpl	$296, %edx
	setg	%r8b
.L853:
	movq	856(%rbx), %r9
	movl	$195, %edx
	subl	28(%r9), %edx
	imull	%eax, %edx
	movslq	%edx, %rax
	movl	%edx, %r9d
	imulq	$81421181, %rax, %rax
	sarl	$31, %r9d
	sarq	$34, %rax
	subl	%r9d, %eax
	cmpl	$-6648187, %edx
	jl	.L926
	addq	$1, 96+__gcov0._ZN8Polyfish4Eval8evaluateERKNS_8PositionEPi.lto_priv.0(%rip)
	cmpl	$6648187, %edx
	jg	.L927
	addq	$1, 104+__gcov0._ZN8Polyfish4Eval8evaluateERKNS_8PositionEPi.lto_priv.0(%rip)
.L867:
	cmpq	$0, 824(%rsp)
	je	.L1220
.L868:
	testb	%cl, %cl
	je	.L870
	addq	$1, 120+__gcov0._ZN8Polyfish4Eval8evaluateERKNS_8PositionEPi.lto_priv.0(%rip)
	testb	%r8b, %r8b
	je	.L622
	addq	$1, 128+__gcov0._ZN8Polyfish4Eval8evaluateERKNS_8PositionEPi.lto_priv.0(%rip)
.L870:
	movl	%eax, %ecx
	subl	48(%rsp), %ecx
	movq	824(%rsp), %rbx
	movl	%ecx, %edx
	negl	%edx
	cmovs	%ecx, %edx
	addq	$1, 136+__gcov0._ZN8Polyfish4Eval8evaluateERKNS_8PositionEPi.lto_priv.0(%rip)
	movl	%edx, (%rbx)
.L622:
	addq	$744, %rsp
	popq	%rbx
	popq	%rsi
	popq	%rdi
	popq	%rbp
	popq	%r12
	popq	%r13
	popq	%r14
	popq	%r15
	ret
	.p2align 4,,10
	.p2align 3
.L1218:
	addq	$1, 24+__gcov0._ZN8Polyfish4Eval8evaluateERKNS_8PositionEPi.lto_priv.0(%rip)
	testb	%r8b, %r8b
	je	.L628
	addq	$1, 40+__gcov0._ZN8Polyfish4Eval8evaluateERKNS_8PositionEPi.lto_priv.0(%rip)
	addq	$1, 56+__gcov0._ZN8Polyfish4Eval8evaluateERKNS_8PositionEPi.lto_priv.0(%rip)
.L629:
	imull	$106, %edx, %edx
	movslq	52(%rsp), %rax
	leaq	488(%rsp), %r8
	addq	$1, 64+__gcov0._ZN8Polyfish4Eval8evaluateERKNS_8PositionEPi.lto_priv.0(%rip)
	movl	160(%rcx,%rax,4), %ebp
	movq	%rbx, %rcx
	movslq	%edx, %rdi
	sarl	$31, %edx
	imulq	$1717986919, %rdi, %rdi
	sarq	$43, %rdi
	subl	%edx, %edi
	movl	$1, %edx
	call	_ZN8Polyfish4Eval4NNUE8evaluateERKNS_8PositionEbPi
	leal	1092(%rdi), %esi
	movl	%eax, %edx
	subl	48(%rsp), %eax
	movl	%eax, %ecx
	negl	%ecx
	cmovs	%eax, %ecx
	imull	$104, 488(%rsp), %eax
	imull	$131, %ecx, %ecx
	addl	%eax, %ecx
	leal	255(%rcx), %eax
	cmovns	%ecx, %eax
	sarl	$8, %eax
	cmpq	$0, 824(%rsp)
	je	.L1221
	movq	824(%rsp), %rcx
	addq	$1, 80+__gcov0._ZN8Polyfish4Eval8evaluateERKNS_8PositionEPi.lto_priv.0(%rip)
	movl	%eax, (%rcx)
.L855:
	addl	$269, %eax
	imull	%ebp, %eax
	testl	%eax, %eax
	leal	255(%rax), %ecx
	cmovs	%ecx, %eax
	imull	%edx, %esi
	addl	$338, %edi
	sarl	$8, %eax
	imull	%eax, %edi
	addl	%edi, %esi
	leal	1023(%rsi), %edx
	cmovns	%esi, %edx
	sarl	$10, %edx
	cmpb	$0, 876(%rbx)
	movl	%edx, %eax
	je	.L856
	addq	$1, 88+__gcov0._ZN8Polyfish4Eval8evaluateERKNS_8PositionEPi.lto_priv.0(%rip)
	cmpq	$0, __gcov7._ZN8Polyfish12_GLOBAL__N_17fix_FRCERKNS_8PositionE.lto_priv.0(%rip)
	je	.L1222
.L857:
	movabsq	$-9151314442816847743, %rcx
	andq	280(%rbx), %rcx
	je	.L1223
	cmpl	$3, (%rbx)
	je	.L860
.L862:
	movl	$-50, %ecx
	xorl	%eax, %eax
.L861:
	cmpl	$3, 28(%rbx)
	je	.L1224
.L863:
	cmpl	$11, 224(%rbx)
	je	.L1225
.L864:
	cmpl	$11, 252(%rbx)
	je	.L1226
.L865:
	leal	(%rax,%rax,2), %ecx
	movl	868(%rbx), %eax
	testl	%eax, %eax
	jne	.L866
	addq	$1, 72+__gcov0._ZN8Polyfish12_GLOBAL__N_17fix_FRCERKNS_8PositionE.lto_priv.0(%rip)
	leal	(%rdx,%rcx), %eax
	.p2align 4,,10
	.p2align 3
.L856:
	xorl	%r8d, %r8d
	movl	$1, %ecx
	jmp	.L853
	.p2align 4,,10
	.p2align 3
.L1217:
	testb	%r8b, %r8b
	je	.L628
	movq	856(%rbx), %rax
	addq	$1, 40+__gcov0._ZN8Polyfish4Eval8evaluateERKNS_8PositionEPi.lto_priv.0(%rip)
	addq	$1, 56+__gcov0._ZN8Polyfish4Eval8evaluateERKNS_8PositionEPi.lto_priv.0(%rip)
	movl	16(%rax), %edx
	addl	20(%rax), %edx
	jmp	.L629
	.p2align 4,,10
	.p2align 3
.L628:
	addq	$1, 32+__gcov0._ZN8Polyfish4Eval8evaluateERKNS_8PositionEPi.lto_priv.0(%rip)
	jmp	.L631
	.p2align 4,,10
	.p2align 3
.L926:
	cmpq	$0, 824(%rsp)
	movl	$-31507, %eax
	jne	.L868
.L1220:
	addq	$1, 112+__gcov0._ZN8Polyfish4Eval8evaluateERKNS_8PositionEPi.lto_priv.0(%rip)
	jmp	.L622
	.p2align 4,,10
	.p2align 3
.L852:
	addq	$1, 56+__gcov0._ZN8Polyfish4Eval8evaluateERKNS_8PositionEPi.lto_priv.0(%rip)
	movl	%ecx, %r8d
	cmpl	$296, %edx
	jg	.L853
	movq	856(%rbx), %rax
	movq	848(%rbx), %rcx
	movl	16(%rax), %edx
	addl	20(%rax), %edx
	jmp	.L629
	.p2align 4,,10
	.p2align 3
.L927:
	movl	$31507, %eax
	jmp	.L867
	.p2align 4,,10
	.p2align 3
.L1215:
	leaq	_ZN8Polyfish4Eval8evaluateERKNS_8PositionEPi(%rip), %rdx
	movl	$2048250586, %ecx
	call	__gcov_indirect_call_profiler_v4
	cmpq	$0, __gcov7._ZN8Polyfish4Eval8evaluateERKNS_8PositionEPi.lto_priv.0(%rip)
	jne	.L624
	.p2align 4,,10
	.p2align 3
.L1216:
	movq	.refptr.__gcov_time_profiler_counter(%rip), %rdx
	movq	(%rdx), %rax
	addq	$1, %rax
	movq	%rax, __gcov7._ZN8Polyfish4Eval8evaluateERKNS_8PositionEPi.lto_priv.0(%rip)
	movq	%rax, (%rdx)
	jmp	.L624
	.p2align 4,,10
	.p2align 3
.L1219:
	movq	.refptr.__gcov_time_profiler_counter(%rip), %rdx
	movq	(%rdx), %rax
	addq	$1, %rax
	movq	%rax, __gcov7._ZN8Polyfish12_GLOBAL__N_110EvaluationILNS_5Trace7TracingE0EE5valueEv.lto_priv.0(%rip)
	movq	%rax, (%rdx)
	jmp	.L632
	.p2align 4,,10
	.p2align 3
.L633:
	movq	496(%rsp), %rcx
	addq	$1, 16+__gcov0._ZN8Polyfish12_GLOBAL__N_110EvaluationILNS_5Trace7TracingE0EE5valueEv.lto_priv.0(%rip)
	movl	872(%rcx), %esi
	addl	32(%rax), %esi
	movq	848(%rcx), %rax
	addl	8431084(%rax), %esi
	call	_ZN8Polyfish5Pawns5probeERKNS_8PositionE
	addq	$1, __gcov0._ZZN8Polyfish12_GLOBAL__N_110EvaluationILNS_5Trace7TracingE0EE5valueEvENKUlNS_5ValueEE_clES5_.lto_priv.0(%rip)
	addl	8(%rax), %esi
	subl	12(%rax), %esi
	movq	%rax, 512(%rsp)
	movq	%rax, %r8
	cmpq	$0, __gcov7._ZZN8Polyfish12_GLOBAL__N_110EvaluationILNS_5Trace7TracingE0EE5valueEvENKUlNS_5ValueEE_clES5_.lto_priv.0(%rip)
	movl	%esi, 200(%rsp)
	movl	%esi, 484(%rsp)
	je	.L1227
.L635:
	movq	496(%rsp), %rdx
	movl	200(%rsp), %edi
	leal	32768(%rdi), %eax
	movswl	%di, %r13d
	movl	%edi, %r10d
	movq	%rdx, %r12
	movq	856(%rdx), %r11
	movq	320(%rdx), %rsi
	shrl	$16, %eax
	movl	%eax, %r9d
	cwtl
	movq	328(%rdx), %r15
	movq	%rsi, 40(%rsp)
	movl	16(%r11), %ecx
	movq	264(%rdx), %rsi
	addl	20(%r11), %ecx
	movl	%ecx, %r14d
	leal	(%rax,%r13), %ecx
	movq	%rsi, 32(%rsp)
	movl	%ecx, %esi
	negl	%esi
	cmovs	%ecx, %esi
	movq	848(%rdx), %rcx
	movl	156(%rcx), %edi
	movl	%edi, %ecx
	negl	%ecx
	cmovs	%edi, %ecx
	leal	(%rcx,%rcx,4), %edi
	leal	31(%r14), %ecx
	sarl	$2, %edi
	testl	%r14d, %r14d
	cmovns	%r14d, %ecx
	sarl	$5, %ecx
	leal	3631(%rdi,%rcx), %ecx
	cmpl	%ecx, %esi
	jle	.L636
	addq	$1, 40+__gcov0._ZN8Polyfish12_GLOBAL__N_110EvaluationILNS_5Trace7TracingE0EE5valueEv.lto_priv.0(%rip)
.L637:
	cmpq	$0, __gcov7._ZNK8Polyfish12_GLOBAL__N_110EvaluationILNS_5Trace7TracingE0EE8winnableENS_5ScoreE.lto_priv.0(%rip)
	je	.L1228
.L822:
	movq	304(%rdx), %rcx
	movq	40(%rsp), %r11
	andq	304(%rdx), %r11
	andq	%r15, %rcx
	rep bsfq	%r11, %r11
	rep bsfq	%rcx, %rcx
	movl	%r11d, %esi
	andl	$7, %r11d
	movl	%ecx, %ebp
	andl	$7, %ecx
	sarl	$3, %esi
	subl	%ecx, %r11d
	sarl	$3, %ebp
	movl	%r11d, %ecx
	negl	%ecx
	cmovs	%r11d, %ecx
	movl	%esi, %r11d
	subl	%ebp, %r11d
	addl	%r11d, %ecx
	movabsq	$1085102592571150095, %r11
	testq	%r11, 32(%rsp)
	je	.L1214
	addq	$1, __gcov0._ZNK8Polyfish12_GLOBAL__N_110EvaluationILNS_5Trace7TracingE0EE8winnableENS_5ScoreE.lto_priv.0(%rip)
	movabsq	$-1085102592571150096, %r11
	testq	%r11, 32(%rsp)
	je	.L1229
	movl	$0, 32(%rsp)
	xorl	%r11d, %r11d
	movl	$21, %r15d
	jmp	.L824
	.p2align 4,,10
	.p2align 3
.L1229:
	addq	$1, 8+__gcov0._ZNK8Polyfish12_GLOBAL__N_110EvaluationILNS_5Trace7TracingE0EE8winnableENS_5ScoreE.lto_priv.0(%rip)
.L1214:
	movl	%ecx, %r11d
	movl	$4, 32(%rsp)
	xorl	%r15d, %r15d
	sarl	$31, %r11d
	andl	$-43, %r11d
.L824:
	movl	$24, %edi
	cmpl	$3, %esi
	jg	.L825
	addq	$1, 16+__gcov0._ZNK8Polyfish12_GLOBAL__N_110EvaluationILNS_5Trace7TracingE0EE8winnableENS_5ScoreE.lto_priv.0(%rip)
	xorl	%edi, %edi
	cmpl	$3, %ebp
	jle	.L1230
.L825:
	movq	16(%r8), %rsi
	orq	24(%r8), %rsi
	xorl	%r8d, %r8d
	leal	(%rcx,%rcx,8), %ecx
	popcntq	%rsi, %r8
	movl	372(%rdx), %esi
	leal	(%r8,%r8,8), %r8d
	addl	340(%rdx), %esi
	leal	(%rsi,%rsi,2), %esi
	leal	(%r8,%rsi,4), %r8d
	addl	%ecx, %r8d
	addl	%r15d, %r8d
	addl	%edi, %r8d
	testl	%r14d, %r14d
	jne	.L826
	addl	$51, %r8d
.L827:
	addl	%r11d, %r8d
	movl	%r13d, %ecx
	xorl	%r11d, %r11d
	testl	%r13d, %r13d
	setg	%r11b
	shrl	$31, %ecx
	leal	-110(%r8), %edi
	subl	%ecx, %r11d
	movl	%r10d, %ecx
	negw	%cx
	cmovs	%r10d, %ecx
	subl	$60, %r8d
	movzwl	%cx, %ecx
	negl	%ecx
	cmpl	%r8d, %ecx
	jle	.L828
	imull	%r11d, %ecx
	addl	%ecx, %r13d
.L829:
	xorl	%esi, %esi
	movl	%eax, %ecx
	testl	%eax, %eax
	setg	%sil
	shrl	$31, %ecx
	subl	%ecx, %esi
	movl	%r9d, %ecx
	negw	%cx
	cmovs	%r9d, %ecx
	movzwl	%cx, %ecx
	negl	%ecx
	cmpl	%ecx, %edi
	jge	.L830
	addq	$1, 56+__gcov0._ZNK8Polyfish12_GLOBAL__N_110EvaluationILNS_5Trace7TracingE0EE8winnableENS_5ScoreE.lto_priv.0(%rip)
	movl	%ecx, %edi
.L830:
	imull	%edi, %esi
	xorl	%r14d, %r14d
	movq	504(%rsp), %rdi
	addl	%eax, %esi
	testl	%esi, %esi
	setle	%r15b
	setle	%r14b
	movzbl	%r15b, %r15d
	movq	16(%rdi,%r15,8), %rcx
	testq	%rcx, %rcx
	je	.L831
	movq	(%rcx), %rax
	movq	.refptr.__gcov_indirect_call(%rip), %r10
	leaq	__gcov4._ZNK8Polyfish12_GLOBAL__N_110EvaluationILNS_5Trace7TracingE0EE8winnableENS_5ScoreE.lto_priv.0(%rip), %r8
	addq	$1, 64+__gcov0._ZNK8Polyfish12_GLOBAL__N_110EvaluationILNS_5Trace7TracingE0EE8winnableENS_5ScoreE.lto_priv.0(%rip)
	movq	16(%rax), %rax
	movq	%r8, 8(%r10)
	movq	%rax, (%r10)
	call	*%rax
	addq	$1, 72+__gcov0._ZNK8Polyfish12_GLOBAL__N_110EvaluationILNS_5Trace7TracingE0EE8winnableENS_5ScoreE.lto_priv.0(%rip)
	cmpl	$255, %eax
	je	.L832
	movq	496(%rsp), %rdx
	movq	%rdx, %r12
.L833:
	movl	%eax, %edi
	cmpl	$64, %eax
	je	.L1231
.L834:
	movq	504(%rsp), %rax
	addq	$1, 152+__gcov0._ZN8Polyfish12_GLOBAL__N_110EvaluationILNS_5Trace7TracingE0EE5valueEv.lto_priv.0(%rip)
	movl	868(%rdx), %edx
	movswl	36(%rax), %r8d
	movl	$128, %eax
	subl	%r8d, %eax
	imull	%esi, %eax
	imull	%edi, %eax
	testl	%eax, %eax
	leal	63(%rax), %ecx
	cmovns	%eax, %ecx
	imull	%r13d, %r8d
	sarl	$6, %ecx
	addl	%r8d, %ecx
	leal	2047(%rcx), %eax
	cmovns	%ecx, %eax
	sarl	$11, %eax
	sall	$4, %eax
	testl	%edx, %edx
	je	.L634
	addq	$1, 160+__gcov0._ZN8Polyfish12_GLOBAL__N_110EvaluationILNS_5Trace7TracingE0EE5valueEv.lto_priv.0(%rip)
	negl	%eax
	jmp	.L634
	.p2align 4,,10
	.p2align 3
.L832:
	addq	$1, 80+__gcov0._ZNK8Polyfish12_GLOBAL__N_110EvaluationILNS_5Trace7TracingE0EE8winnableENS_5ScoreE.lto_priv.0(%rip)
	movq	496(%rsp), %rdx
	movq	%rdx, %r12
.L831:
	addq	$1, 88+__gcov0._ZNK8Polyfish12_GLOBAL__N_110EvaluationILNS_5Trace7TracingE0EE8winnableENS_5ScoreE.lto_priv.0(%rip)
	movzbl	38(%rdi,%r15), %eax
	jmp	.L833
	.p2align 4,,10
	.p2align 3
.L828:
	addq	$1, 40+__gcov0._ZNK8Polyfish12_GLOBAL__N_110EvaluationILNS_5Trace7TracingE0EE8winnableENS_5ScoreE.lto_priv.0(%rip)
	testl	%r8d, %r8d
	jg	.L829
	imull	%r8d, %r11d
	addq	$1, 48+__gcov0._ZNK8Polyfish12_GLOBAL__N_110EvaluationILNS_5Trace7TracingE0EE8winnableENS_5ScoreE.lto_priv.0(%rip)
	addl	%r11d, %r13d
	jmp	.L829
	.p2align 4,,10
	.p2align 3
.L826:
	addq	$1, 32+__gcov0._ZNK8Polyfish12_GLOBAL__N_110EvaluationILNS_5Trace7TracingE0EE8winnableENS_5ScoreE.lto_priv.0(%rip)
	jmp	.L827
	.p2align 4,,10
	.p2align 3
.L636:
	addq	$1, 32+__gcov0._ZN8Polyfish12_GLOBAL__N_110EvaluationILNS_5Trace7TracingE0EE5valueEv.lto_priv.0(%rip)
	addq	$1, __gcov0._ZN8Polyfish12_GLOBAL__N_110EvaluationILNS_5Trace7TracingE0EE10initializeILNS_5ColorE0EEEvv.lto_priv.0(%rip)
	cmpq	$0, __gcov7._ZN8Polyfish12_GLOBAL__N_110EvaluationILNS_5Trace7TracingE0EE10initializeILNS_5ColorE0EEEvv.lto_priv.0(%rip)
	je	.L1232
.L638:
	movq	40(%rsp), %rdi
	movq	32(%rsp), %r13
	movq	256(%rdx), %r9
	movq	304(%rdx), %rcx
	andq	%rdi, %r13
	movq	40(%r8), %rbp
	movq	%rdi, %r10
	movq	32(%r8), %r8
	movq	%r13, %rax
	movq	%r13, %rsi
	movq	%r9, %r14
	andq	%rcx, %r10
	salq	$7, %rax
	salq	$9, %rsi
	rep bsfq	%r10, %r10
	andq	%rax, %rsi
	shrq	$8, %r14
	movabsq	$9114861777597660672, %rax
	andq	%rax, %rsi
	movq	296(%rdx), %rax
	movq	%rcx, %rdx
	orq	$16776960, %r14
	andq	%r13, %r14
	movl	%r10d, %r13d
	orq	%rax, %rdx
	andq	%rdx, %rdi
	orq	64(%r11), %rdi
	orq	%r14, %rdi
	movq	.refptr._ZN8Polyfish13PseudoAttacksE(%rip), %r14
	orq	%rbp, %rdi
	notq	%rdi
	movq	%rdi, 520(%rsp)
	movslq	%r10d, %rdi
	movq	3072(%r14,%rdi,8), %rdi
	movq	%rdi, %r14
	movq	%rdi, 592(%rsp)
	andq	%r8, %rdi
	orq	%r8, %r14
	orq	%rsi, %rdi
	sarl	$3, %r13d
	vmovq	%r14, %xmm0
	movq	%rdi, 672(%rsp)
	movl	$8, %edi
	vpinsrq	$1, %r8, %xmm0, %xmm0
	vmovdqu	%xmm0, 544(%rsp)
	je	.L639
	addq	$1, 8+__gcov0._ZN8Polyfish12_GLOBAL__N_110EvaluationILNS_5Trace7TracingE0EE10initializeILNS_5ColorE0EEEvv.lto_priv.0(%rip)
	movl	$48, %edi
	cmpl	$7, %r13d
	je	.L639
	addq	$1, 16+__gcov0._ZN8Polyfish12_GLOBAL__N_110EvaluationILNS_5Trace7TracingE0EE10initializeILNS_5ColorE0EEEvv.lto_priv.0(%rip)
	movl	%r10d, %edi
	andl	$-8, %edi
.L639:
	andl	$7, %r10d
	jne	.L1233
	movl	$1, %r10d
.L640:
	addl	%r10d, %edi
	movq	.refptr._ZN8Polyfish13PseudoAttacksE(%rip), %r14
	notq	%rsi
	addq	$1, 48+__gcov0._ZN8Polyfish12_GLOBAL__N_110EvaluationILNS_5Trace7TracingE0EE5valueEv.lto_priv.0(%rip)
	movslq	%edi, %rdi
	addq	$1, __gcov0._ZN8Polyfish12_GLOBAL__N_110EvaluationILNS_5Trace7TracingE0EE10initializeILNS_5ColorE1EEEvv.lto_priv.0(%rip)
	movq	3072(%r14,%rdi,8), %r10
	movq	.refptr._ZN8Polyfish8SquareBBE(%rip), %r14
	movl	$0, 716(%rsp)
	movl	$0, 724(%rsp)
	orq	(%r14,%rdi,8), %r10
	movq	%r10, %rdi
	movq	%rbp, %r10
	andq	%rdi, %r10
	andq	%rdi, %rsi
	popcntq	%r10, %r10
	cmpq	$0, __gcov7._ZN8Polyfish12_GLOBAL__N_110EvaluationILNS_5Trace7TracingE0EE10initializeILNS_5ColorE1EEEvv.lto_priv.0(%rip)
	movl	%r10d, 708(%rsp)
	movq	%rsi, 688(%rsp)
	je	.L1234
.L641:
	movq	32(%rsp), %rsi
	andq	%r15, %rdx
	orq	72(%r11), %rdx
	movq	%r9, %r11
	salq	$8, %r11
	andq	%r15, %rcx
	andq	%r15, %rsi
	rep bsfq	%rcx, %rcx
	movq	%rsi, %rdi
	movq	%rsi, %r10
	shrq	$9, %rdi
	shrq	$7, %r10
	andq	%rdi, %r10
	movabsq	$35604928818740862, %rdi
	andq	%rdi, %r10
	movabsq	$72056494526300160, %rdi
	orq	%rdi, %r11
	andq	%rsi, %r11
	movq	.refptr._ZN8Polyfish13PseudoAttacksE(%rip), %rsi
	orq	%r11, %rdx
	movl	%ecx, %r11d
	orq	%r8, %rdx
	notq	%rdx
	movq	%rdx, 528(%rsp)
	movslq	%ecx, %rdx
	movq	3072(%rsi,%rdx,8), %rdx
	movq	%rdx, %rsi
	movq	%rdx, 656(%rsp)
	andq	%rbp, %rdx
	orq	%rbp, %rsi
	orq	%r10, %rdx
	sarl	$3, %r11d
	vmovq	%rsi, %xmm0
	movq	%rdx, 680(%rsp)
	movl	$8, %edx
	vpinsrq	$1, %rbp, %xmm0, %xmm0
	vmovdqu	%xmm0, 608(%rsp)
	je	.L642
	addq	$1, 8+__gcov0._ZN8Polyfish12_GLOBAL__N_110EvaluationILNS_5Trace7TracingE0EE10initializeILNS_5ColorE1EEEvv.lto_priv.0(%rip)
	movl	$48, %edx
	cmpl	$7, %r11d
	je	.L642
	addq	$1, 16+__gcov0._ZN8Polyfish12_GLOBAL__N_110EvaluationILNS_5Trace7TracingE0EE10initializeILNS_5ColorE1EEEvv.lto_priv.0(%rip)
	movl	%ecx, %edx
	andl	$-8, %edx
.L642:
	andl	$7, %ecx
	je	.L883
	addq	$1, 24+__gcov0._ZN8Polyfish12_GLOBAL__N_110EvaluationILNS_5Trace7TracingE0EE10initializeILNS_5ColorE1EEEvv.lto_priv.0(%rip)
	cmpl	$7, %ecx
	je	.L884
	addq	$1, 32+__gcov0._ZN8Polyfish12_GLOBAL__N_110EvaluationILNS_5Trace7TracingE0EE10initializeILNS_5ColorE1EEEvv.lto_priv.0(%rip)
.L643:
	addl	%ecx, %edx
	movq	.refptr._ZN8Polyfish13PseudoAttacksE(%rip), %rsi
	notq	%r10
	addq	$1, 56+__gcov0._ZN8Polyfish12_GLOBAL__N_110EvaluationILNS_5Trace7TracingE0EE5valueEv.lto_priv.0(%rip)
	movslq	%edx, %rdx
	addq	$1, __gcov0._ZN8Polyfish12_GLOBAL__N_110EvaluationILNS_5Trace7TracingE0EE6piecesILNS_5ColorE1ELNS_9PieceTypeE5EEENS_5ScoreEv.lto_priv.0(%rip)
	movq	3072(%rsi,%rdx,8), %rcx
	movq	.refptr._ZN8Polyfish8SquareBBE(%rip), %rsi
	movl	$0, 712(%rsp)
	movl	$0, 720(%rsp)
	orq	(%rsi,%rdx,8), %rcx
	andq	%rcx, %r8
	andq	%rcx, %r10
	popcntq	%r8, %r8
	cmpq	$0, __gcov7._ZN8Polyfish12_GLOBAL__N_110EvaluationILNS_5Trace7TracingE0EE6piecesILNS_5ColorE1ELNS_9PieceTypeE5EEENS_5ScoreEv.lto_priv.0(%rip)
	movl	%r8d, 704(%rsp)
	movq	%r10, 696(%rsp)
	je	.L1235
.L644:
	movq	$0, 648(%rsp)
	andq	%rax, %r15
	je	.L885
	movq	.refptr._ZN8Polyfish6LineBBE(%rip), %rbp
	xorl	%esi, %esi
	movq	%r9, %rdx
	leaq	_ZN8Polyfish12_GLOBAL__N_1L13MobilityBonusE.lto_priv.0(%rip), %r13
	leaq	488(%rsp), %rdi
	jmp	.L651
	.p2align 4,,10
	.p2align 3
.L1236:
	addq	$1, 32+__gcov0._ZN8Polyfish12_GLOBAL__N_110EvaluationILNS_5Trace7TracingE0EE6piecesILNS_5ColorE1ELNS_9PieceTypeE5EEENS_5ScoreEv.lto_priv.0(%rip)
	movq	496(%rsp), %r12
	subl	$1245241, %esi
	testq	%r15, %r15
	je	.L1211
.L649:
	movq	256(%r12), %rdx
.L651:
	xorl	%r14d, %r14d
	leaq	-1(%r15), %rax
	rep bsfq	%r15, %r14
	andq	%rax, %r15
	movl	%r14d, %ecx
	call	_ZN8Polyfish10attacks_bbILNS_9PieceTypeE5EEEyNS_6SquareEy
	movq	856(%r12), %rdx
	movq	.refptr._ZN8Polyfish8SquareBBE(%rip), %r10
	movslq	%r14d, %rcx
	movq	72(%rdx), %rdx
	andq	(%r10,%rcx,8), %rdx
	je	.L646
	movq	328(%r12), %rdx
	andq	304(%r12), %rdx
	rep bsfq	%rdx, %rdx
	addq	$1, 8+__gcov0._ZN8Polyfish12_GLOBAL__N_110EvaluationILNS_5Trace7TracingE0EE6piecesILNS_5ColorE1ELNS_9PieceTypeE5EEENS_5ScoreEv.lto_priv.0(%rip)
	movslq	%edx, %rdx
	salq	$6, %rdx
	addq	%rcx, %rdx
	andq	0(%rbp,%rdx,8), %rax
.L646:
	movq	608(%rsp), %rdx
	orq	%rax, 648(%rsp)
	andq	%rax, %rdx
	orq	%rdx, 680(%rsp)
	movq	608(%rsp), %rdx
	orq	%rax, %rdx
	movq	%rdx, 608(%rsp)
	movq	%rax, %rdx
	andq	688(%rsp), %rdx
	je	.L647
	movq	592(%rsp), %rdx
	addq	$1, 16+__gcov0._ZN8Polyfish12_GLOBAL__N_110EvaluationILNS_5Trace7TracingE0EE6piecesILNS_5ColorE1ELNS_9PieceTypeE5EEENS_5ScoreEv.lto_priv.0(%rip)
	addl	$1, 708(%rsp)
	andq	%rax, %rdx
	addl	$14, 716(%rsp)
	popcntq	%rdx, %rdx
	addl	%edx, 724(%rsp)
.L647:
	movq	288(%r12), %rdx
	movq	%rdi, %r9
	movl	%r14d, %r8d
	movq	%r12, %rcx
	andq	528(%rsp), %rax
	orq	280(%r12), %rdx
	andq	320(%r12), %rdx
	popcntq	%rax, %rax
	movl	384(%r13,%rax,4), %eax
	addl	%eax, 540(%rsp)
	call	_ZNK8Polyfish8Position15slider_blockersEyNS_6SquareERy
	addq	$1, 24+__gcov0._ZN8Polyfish12_GLOBAL__N_110EvaluationILNS_5Trace7TracingE0EE6piecesILNS_5ColorE1ELNS_9PieceTypeE5EEENS_5ScoreEv.lto_priv.0(%rip)
	testq	%rax, %rax
	jne	.L1236
	movq	496(%rsp), %r12
	testq	%r15, %r15
	jne	.L649
.L1211:
	movq	320(%r12), %rax
	movl	%esi, 440(%rsp)
	movq	%rax, 40(%rsp)
	movq	296(%r12), %rax
.L645:
	addq	$1, 40+__gcov0._ZN8Polyfish12_GLOBAL__N_110EvaluationILNS_5Trace7TracingE0EE6piecesILNS_5ColorE1ELNS_9PieceTypeE5EEENS_5ScoreEv.lto_priv.0(%rip)
	addq	$1, 64+__gcov0._ZN8Polyfish12_GLOBAL__N_110EvaluationILNS_5Trace7TracingE0EE5valueEv.lto_priv.0(%rip)
	addq	$1, __gcov0._ZN8Polyfish12_GLOBAL__N_110EvaluationILNS_5Trace7TracingE0EE6piecesILNS_5ColorE0ELNS_9PieceTypeE5EEENS_5ScoreEv.lto_priv.0(%rip)
	cmpq	$0, __gcov7._ZN8Polyfish12_GLOBAL__N_110EvaluationILNS_5Trace7TracingE0EE6piecesILNS_5ColorE0ELNS_9PieceTypeE5EEENS_5ScoreEv.lto_priv.0(%rip)
	je	.L1237
.L652:
	movl	$0, 192(%rsp)
	andq	40(%rsp), %rax
	movq	$0, 584(%rsp)
	movq	%rax, %rbp
	je	.L653
	leaq	_ZN8Polyfish12_GLOBAL__N_1L13MobilityBonusE.lto_priv.0(%rip), %rax
	movq	.refptr._ZN8Polyfish6LineBBE(%rip), %rsi
	leaq	488(%rsp), %rdi
	movq	%rax, 32(%rsp)
	.p2align 4,,10
	.p2align 3
.L659:
	xorl	%r13d, %r13d
	movq	256(%r12), %rdx
	leaq	-1(%rbp), %rax
	rep bsfq	%rbp, %r13
	andq	%rax, %rbp
	movl	%r13d, %ecx
	call	_ZN8Polyfish10attacks_bbILNS_9PieceTypeE5EEEyNS_6SquareEy
	movq	856(%r12), %rdx
	movq	.refptr._ZN8Polyfish8SquareBBE(%rip), %r15
	movslq	%r13d, %rcx
	movq	64(%rdx), %rdx
	andq	(%r15,%rcx,8), %rdx
	je	.L654
	movq	320(%r12), %rdx
	andq	304(%r12), %rdx
	rep bsfq	%rdx, %rdx
	addq	$1, 8+__gcov0._ZN8Polyfish12_GLOBAL__N_110EvaluationILNS_5Trace7TracingE0EE6piecesILNS_5ColorE0ELNS_9PieceTypeE5EEENS_5ScoreEv.lto_priv.0(%rip)
	movslq	%edx, %rdx
	salq	$6, %rdx
	addq	%rcx, %rdx
	andq	(%rsi,%rdx,8), %rax
.L654:
	movq	544(%rsp), %rdx
	orq	%rax, 584(%rsp)
	andq	%rax, %rdx
	orq	%rdx, 672(%rsp)
	movq	544(%rsp), %rdx
	orq	%rax, %rdx
	movq	%rdx, 544(%rsp)
	movq	%rax, %rdx
	andq	696(%rsp), %rdx
	je	.L655
	movq	656(%rsp), %rdx
	addq	$1, 16+__gcov0._ZN8Polyfish12_GLOBAL__N_110EvaluationILNS_5Trace7TracingE0EE6piecesILNS_5ColorE0ELNS_9PieceTypeE5EEENS_5ScoreEv.lto_priv.0(%rip)
	addl	$1, 704(%rsp)
	andq	%rax, %rdx
	addl	$14, 712(%rsp)
	popcntq	%rdx, %rdx
	addl	%edx, 720(%rsp)
.L655:
	movq	32(%rsp), %rcx
	andq	520(%rsp), %rax
	movq	%rdi, %r9
	movl	%r13d, %r8d
	movq	288(%r12), %rdx
	popcntq	%rax, %rax
	orq	280(%r12), %rdx
	movl	384(%rcx,%rax,4), %eax
	andq	328(%r12), %rdx
	movq	%r12, %rcx
	addl	%eax, 536(%rsp)
	call	_ZNK8Polyfish8Position15slider_blockersEyNS_6SquareERy
	addq	$1, 24+__gcov0._ZN8Polyfish12_GLOBAL__N_110EvaluationILNS_5Trace7TracingE0EE6piecesILNS_5ColorE0ELNS_9PieceTypeE5EEENS_5ScoreEv.lto_priv.0(%rip)
	testq	%rax, %rax
	je	.L656
	addq	$1, 32+__gcov0._ZN8Polyfish12_GLOBAL__N_110EvaluationILNS_5Trace7TracingE0EE6piecesILNS_5ColorE0ELNS_9PieceTypeE5EEENS_5ScoreEv.lto_priv.0(%rip)
	movq	496(%rsp), %r12
	subl	$1245241, 192(%rsp)
	testq	%rbp, %rbp
	jne	.L659
.L658:
	movq	320(%r12), %rax
	movq	%rax, 40(%rsp)
.L653:
	addq	$1, 40+__gcov0._ZN8Polyfish12_GLOBAL__N_110EvaluationILNS_5Trace7TracingE0EE6piecesILNS_5ColorE0ELNS_9PieceTypeE5EEENS_5ScoreEv.lto_priv.0(%rip)
