	.file	"<artificial>"
	.text
	.section	.text.startup,"x"
	.p2align 4
	.globl	_GLOBAL__sub_I__ZN8Polyfish10MovePickerC2ERKNS_8PositionENS_4MoveEiPKNS_5StatsIsLi14365ELi2EJLi4096EEEEPKNS5_IsLi10692ELi16EJLi64ELi8EEEEPPKNS5_IsLi29952ELi16EJLi64EEEES4_PKS4_.lto_priv.0
	.def	_GLOBAL__sub_I__ZN8Polyfish10MovePickerC2ERKNS_8PositionENS_4MoveEiPKNS_5StatsIsLi14365ELi2EJLi4096EEEEPKNS5_IsLi10692ELi16EJLi64ELi8EEEEPPKNS5_IsLi29952ELi16EJLi64EEEES4_PKS4_.lto_priv.0;	.scl	2;	.type	32;	.endef
	.seh_proc	_GLOBAL__sub_I__ZN8Polyfish10MovePickerC2ERKNS_8PositionENS_4MoveEiPKNS_5StatsIsLi14365ELi2EJLi4096EEEEPKNS5_IsLi10692ELi16EJLi64ELi8EEEEPPKNS5_IsLi29952ELi16EJLi64EEEES4_PKS4_.lto_priv.0
_GLOBAL__sub_I__ZN8Polyfish10MovePickerC2ERKNS_8PositionENS_4MoveEiPKNS_5StatsIsLi14365ELi2EJLi4096EEEEPKNS5_IsLi10692ELi16EJLi64ELi8EEEEPPKNS5_IsLi29952ELi16EJLi64EEEES4_PKS4_.lto_priv.0:
	subq	$40, %rsp
	.seh_stackalloc	40
	.seh_endprologue
	movq	.refptr.__gcov_indirect_call(%rip), %rax
	cmpq	$0, (%rax)
	je	.L2
	leaq	_GLOBAL__sub_I__ZN8Polyfish10MovePickerC2ERKNS_8PositionENS_4MoveEiPKNS_5StatsIsLi14365ELi2EJLi4096EEEEPKNS5_IsLi10692ELi16EJLi64ELi8EEEEPPKNS5_IsLi29952ELi16EJLi64EEEES4_PKS4_.lto_priv.0(%rip), %rdx
	movl	$98426177, %ecx
	call	__gcov_indirect_call_profiler_v4
.L2:
	addq	$1, __gcov0._GLOBAL__sub_I__ZN8Polyfish10MovePickerC2ERKNS_8PositionENS_4MoveEiPKNS_5StatsIsLi14365ELi2EJLi4096EEEEPKNS5_IsLi10692ELi16EJLi64ELi8EEEEPPKNS5_IsLi29952ELi16EJLi64EEEES4_PKS4_.lto_priv.0(%rip)
	cmpq	$0, __gcov7._GLOBAL__sub_I__ZN8Polyfish10MovePickerC2ERKNS_8PositionENS_4MoveEiPKNS_5StatsIsLi14365ELi2EJLi4096EEEEPKNS5_IsLi10692ELi16EJLi64ELi8EEEEPPKNS5_IsLi29952ELi16EJLi64EEEES4_PKS4_.lto_priv.0(%rip)
	jne	.L3
	movq	.refptr.__gcov_time_profiler_counter(%rip), %rdx
	movq	(%rdx), %rax
	addq	$1, %rax
	movq	%rax, __gcov7._GLOBAL__sub_I__ZN8Polyfish10MovePickerC2ERKNS_8PositionENS_4MoveEiPKNS_5StatsIsLi14365ELi2EJLi4096EEEEPKNS5_IsLi10692ELi16EJLi64ELi8EEEEPPKNS5_IsLi29952ELi16EJLi64EEEES4_PKS4_.lto_priv.0(%rip)
	movq	%rax, (%rdx)
.L3:
	leaq	_ZStL8__ioinit.lto_priv.7(%rip), %rcx
	call	_ZNSt8ios_base4InitC1Ev
	leaq	__tcf_1.lto_priv.6(%rip), %rcx
	addq	$1, 8+__gcov0._GLOBAL__sub_I__ZN8Polyfish10MovePickerC2ERKNS_8PositionENS_4MoveEiPKNS_5StatsIsLi14365ELi2EJLi4096EEEEPKNS5_IsLi10692ELi16EJLi64ELi8EEEEPPKNS5_IsLi29952ELi16EJLi64EEEES4_PKS4_.lto_priv.0(%rip)
	call	atexit
	addq	$1, 16+__gcov0._GLOBAL__sub_I__ZN8Polyfish10MovePickerC2ERKNS_8PositionENS_4MoveEiPKNS_5StatsIsLi14365ELi2EJLi4096EEEEPKNS5_IsLi10692ELi16EJLi64ELi8EEEEPPKNS5_IsLi29952ELi16EJLi64EEEES4_PKS4_.lto_priv.0(%rip)
	addq	$40, %rsp
	ret
	.seh_endproc
	.p2align 4
	.globl	_GLOBAL__sub_I__ZN8Polyfish5Pawns5probeERKNS_8PositionE.lto_priv.0
	.def	_GLOBAL__sub_I__ZN8Polyfish5Pawns5probeERKNS_8PositionE.lto_priv.0;	.scl	2;	.type	32;	.endef
	.seh_proc	_GLOBAL__sub_I__ZN8Polyfish5Pawns5probeERKNS_8PositionE.lto_priv.0
_GLOBAL__sub_I__ZN8Polyfish5Pawns5probeERKNS_8PositionE.lto_priv.0:
	subq	$40, %rsp
	.seh_stackalloc	40
	.seh_endprologue
	movq	.refptr.__gcov_indirect_call(%rip), %rax
	cmpq	$0, (%rax)
	je	.L6
	leaq	_GLOBAL__sub_I__ZN8Polyfish5Pawns5probeERKNS_8PositionE.lto_priv.0(%rip), %rdx
	movl	$296088975, %ecx
	call	__gcov_indirect_call_profiler_v4
.L6:
	addq	$1, __gcov0._GLOBAL__sub_I__ZN8Polyfish5Pawns5probeERKNS_8PositionE.lto_priv.0(%rip)
	cmpq	$0, __gcov7._GLOBAL__sub_I__ZN8Polyfish5Pawns5probeERKNS_8PositionE.lto_priv.0(%rip)
	jne	.L7
	movq	.refptr.__gcov_time_profiler_counter(%rip), %rdx
	movq	(%rdx), %rax
	addq	$1, %rax
	movq	%rax, __gcov7._GLOBAL__sub_I__ZN8Polyfish5Pawns5probeERKNS_8PositionE.lto_priv.0(%rip)
	movq	%rax, (%rdx)
.L7:
	leaq	_ZStL8__ioinit.lto_priv.8(%rip), %rcx
	call	_ZNSt8ios_base4InitC1Ev
	leaq	__tcf_1.lto_priv.7(%rip), %rcx
	addq	$1, 8+__gcov0._GLOBAL__sub_I__ZN8Polyfish5Pawns5probeERKNS_8PositionE.lto_priv.0(%rip)
	call	atexit
	addq	$1, 16+__gcov0._GLOBAL__sub_I__ZN8Polyfish5Pawns5probeERKNS_8PositionE.lto_priv.0(%rip)
	addq	$40, %rsp
	ret
	.seh_endproc
	.section .rdata,"dr"
.LC0:
	.ascii " PNBRQK  pnbrqk\0"
	.section	.text.startup,"x"
	.p2align 4
	.globl	_GLOBAL__sub_I__ZN8Polyfish7Zobrist3psqE.lto_priv.0
	.def	_GLOBAL__sub_I__ZN8Polyfish7Zobrist3psqE.lto_priv.0;	.scl	2;	.type	32;	.endef
	.seh_proc	_GLOBAL__sub_I__ZN8Polyfish7Zobrist3psqE.lto_priv.0
_GLOBAL__sub_I__ZN8Polyfish7Zobrist3psqE.lto_priv.0:
	subq	$40, %rsp
	.seh_stackalloc	40
	.seh_endprologue
	movq	.refptr.__gcov_indirect_call(%rip), %rax
	cmpq	$0, (%rax)
	jne	.L12
.L9:
	addq	$1, __gcov0._GLOBAL__sub_I__ZN8Polyfish7Zobrist3psqE.lto_priv.0(%rip)
	cmpq	$0, __gcov7._GLOBAL__sub_I__ZN8Polyfish7Zobrist3psqE.lto_priv.0(%rip)
	je	.L13
.L10:
	addq	$1, __gcov0._Z41__static_initialization_and_destruction_0ii.lto_priv.11(%rip)
	cmpq	$0, __gcov7._Z41__static_initialization_and_destruction_0ii.lto_priv.11(%rip)
	je	.L14
.L11:
	leaq	_ZStL8__ioinit.lto_priv.9(%rip), %rcx
	addq	$1, 8+__gcov0._Z41__static_initialization_and_destruction_0ii.lto_priv.11(%rip)
	addq	$1, 16+__gcov0._Z41__static_initialization_and_destruction_0ii.lto_priv.11(%rip)
	call	_ZNSt8ios_base4InitC1Ev
	leaq	__tcf_1.lto_priv.8(%rip), %rcx
	addq	$1, 24+__gcov0._Z41__static_initialization_and_destruction_0ii.lto_priv.11(%rip)
	call	atexit
	leaq	.LC0(%rip), %rdx
	leaq	_ZN8Polyfish12_GLOBAL__N_1L11PieceToCharE.lto_priv.1(%rip), %rcx
	addq	$1, 32+__gcov0._Z41__static_initialization_and_destruction_0ii.lto_priv.11(%rip)
	call	_ZNSt7__cxx1112basic_stringIcSt11char_traitsIcESaIcEEC1IS3_EEPKcRKS3_.constprop.0
	leaq	__tcf_2.lto_priv.9(%rip), %rcx
	addq	$1, 40+__gcov0._Z41__static_initialization_and_destruction_0ii.lto_priv.11(%rip)
	call	atexit
	addq	$1, 48+__gcov0._Z41__static_initialization_and_destruction_0ii.lto_priv.11(%rip)
	addq	$1, 8+__gcov0._GLOBAL__sub_I__ZN8Polyfish7Zobrist3psqE.lto_priv.0(%rip)
	addq	$40, %rsp
	ret
.L12:
	leaq	_GLOBAL__sub_I__ZN8Polyfish7Zobrist3psqE.lto_priv.0(%rip), %rdx
	movl	$273840008, %ecx
	call	__gcov_indirect_call_profiler_v4
	jmp	.L9
.L13:
	movq	.refptr.__gcov_time_profiler_counter(%rip), %rdx
	movq	(%rdx), %rax
	addq	$1, %rax
	movq	%rax, __gcov7._GLOBAL__sub_I__ZN8Polyfish7Zobrist3psqE.lto_priv.0(%rip)
	movq	%rax, (%rdx)
	jmp	.L10
.L14:
	movq	.refptr.__gcov_time_profiler_counter(%rip), %rdx
	movq	(%rdx), %rax
	addq	$1, %rax
	movq	%rax, __gcov7._Z41__static_initialization_and_destruction_0ii.lto_priv.11(%rip)
	movq	%rax, (%rdx)
	jmp	.L11
	.seh_endproc
	.text
	.p2align 4
	.globl	__tcf_1.lto_priv.6
	.def	__tcf_1.lto_priv.6;	.scl	2;	.type	32;	.endef
	.seh_proc	__tcf_1.lto_priv.6
__tcf_1.lto_priv.6:
	subq	$40, %rsp
	.seh_stackalloc	40
	.seh_endprologue
	movq	.refptr.__gcov_indirect_call(%rip), %rax
	cmpq	$0, (%rax)
	je	.L16
	leaq	__tcf_1.lto_priv.6(%rip), %rdx
	movl	$1859010996, %ecx
	call	__gcov_indirect_call_profiler_v4
.L16:
	addq	$1, __gcov0.__tcf_1.lto_priv.6(%rip)
	cmpq	$0, __gcov7.__tcf_1.lto_priv.6(%rip)
	jne	.L17
	movq	.refptr.__gcov_time_profiler_counter(%rip), %rdx
	movq	(%rdx), %rax
	addq	$1, %rax
	movq	%rax, __gcov7.__tcf_1.lto_priv.6(%rip)
	movq	%rax, (%rdx)
.L17:
	leaq	_ZStL8__ioinit.lto_priv.7(%rip), %rcx
	call	_ZNSt8ios_base4InitD1Ev
	addq	$1, 8+__gcov0.__tcf_1.lto_priv.6(%rip)
	addq	$40, %rsp
	ret
	.seh_endproc
	.p2align 4
	.globl	__tcf_1.lto_priv.7
	.def	__tcf_1.lto_priv.7;	.scl	2;	.type	32;	.endef
	.seh_proc	__tcf_1.lto_priv.7
__tcf_1.lto_priv.7:
	subq	$40, %rsp
	.seh_stackalloc	40
	.seh_endprologue
	movq	.refptr.__gcov_indirect_call(%rip), %rax
	cmpq	$0, (%rax)
	je	.L19
	leaq	__tcf_1.lto_priv.7(%rip), %rdx
	movl	$503080729, %ecx
	call	__gcov_indirect_call_profiler_v4
.L19:
	addq	$1, __gcov0.__tcf_1.lto_priv.7(%rip)
	cmpq	$0, __gcov7.__tcf_1.lto_priv.7(%rip)
	jne	.L20
	movq	.refptr.__gcov_time_profiler_counter(%rip), %rdx
	movq	(%rdx), %rax
	addq	$1, %rax
	movq	%rax, __gcov7.__tcf_1.lto_priv.7(%rip)
	movq	%rax, (%rdx)
.L20:
	leaq	_ZStL8__ioinit.lto_priv.8(%rip), %rcx
	call	_ZNSt8ios_base4InitD1Ev
	addq	$1, 8+__gcov0.__tcf_1.lto_priv.7(%rip)
	addq	$40, %rsp
	ret
	.seh_endproc
	.p2align 4
	.globl	_ZSt6skipwsRSt8ios_base
	.def	_ZSt6skipwsRSt8ios_base;	.scl	2;	.type	32;	.endef
	.seh_proc	_ZSt6skipwsRSt8ios_base
_ZSt6skipwsRSt8ios_base:
	pushq	%r12
	.seh_pushreg	%r12
	subq	$32, %rsp
	.seh_stackalloc	32
	.seh_endprologue
	movq	.refptr.__gcov_indirect_call(%rip), %rax
	cmpq	$0, (%rax)
	movq	%rcx, %r12
	je	.L22
	leaq	_ZSt6skipwsRSt8ios_base(%rip), %rdx
	movl	$1686480104, %ecx
	call	__gcov_indirect_call_profiler_v4
.L22:
	addq	$1, __gcov0._ZSt6skipwsRSt8ios_base.lto_priv.0(%rip)
	cmpq	$0, __gcov7._ZSt6skipwsRSt8ios_base.lto_priv.0(%rip)
	jne	.L23
	movq	.refptr.__gcov_time_profiler_counter(%rip), %rdx
	movq	(%rdx), %rax
	addq	$1, %rax
	movq	%rax, __gcov7._ZSt6skipwsRSt8ios_base.lto_priv.0(%rip)
	movq	%rax, (%rdx)
.L23:
	orl	$4096, 24(%r12)
	movq	%r12, %rax
	addq	$32, %rsp
	popq	%r12
	ret
	.seh_endproc
	.p2align 4
	.def	_ZSt8noskipwsRSt8ios_base;	.scl	3;	.type	32;	.endef
	.seh_proc	_ZSt8noskipwsRSt8ios_base
_ZSt8noskipwsRSt8ios_base:
	pushq	%r12
	.seh_pushreg	%r12
	subq	$32, %rsp
	.seh_stackalloc	32
	.seh_endprologue
	movq	.refptr.__gcov_indirect_call(%rip), %rax
	cmpq	$0, (%rax)
	movq	%rcx, %r12
	je	.L25
	leaq	_ZSt8noskipwsRSt8ios_base(%rip), %rdx
	movl	$57319972, %ecx
	call	__gcov_indirect_call_profiler_v4
.L25:
	addq	$1, __gcov0._ZSt8noskipwsRSt8ios_base(%rip)
	cmpq	$0, __gcov7._ZSt8noskipwsRSt8ios_base(%rip)
	jne	.L26
	movq	.refptr.__gcov_time_profiler_counter(%rip), %rdx
	movq	(%rdx), %rax
	addq	$1, %rax
	movq	%rax, __gcov7._ZSt8noskipwsRSt8ios_base(%rip)
	movq	%rax, (%rdx)
.L26:
	andl	$-4097, 24(%r12)
	movq	%r12, %rax
	addq	$32, %rsp
	popq	%r12
	ret
	.seh_endproc
	.p2align 4
	.def	_ZSt9uppercaseRSt8ios_base;	.scl	3;	.type	32;	.endef
	.seh_proc	_ZSt9uppercaseRSt8ios_base
_ZSt9uppercaseRSt8ios_base:
	pushq	%r12
	.seh_pushreg	%r12
	subq	$32, %rsp
	.seh_stackalloc	32
	.seh_endprologue
	movq	.refptr.__gcov_indirect_call(%rip), %rax
	cmpq	$0, (%rax)
	movq	%rcx, %r12
	je	.L28
	leaq	_ZSt9uppercaseRSt8ios_base(%rip), %rdx
	movl	$1130441696, %ecx
	call	__gcov_indirect_call_profiler_v4
.L28:
	addq	$1, __gcov0._ZSt9uppercaseRSt8ios_base(%rip)
	cmpq	$0, __gcov7._ZSt9uppercaseRSt8ios_base(%rip)
	jne	.L29
	movq	.refptr.__gcov_time_profiler_counter(%rip), %rdx
	movq	(%rdx), %rax
	addq	$1, %rax
	movq	%rax, __gcov7._ZSt9uppercaseRSt8ios_base(%rip)
	movq	%rax, (%rdx)
.L29:
	orl	$16384, 24(%r12)
	movq	%r12, %rax
	addq	$32, %rsp
	popq	%r12
	ret
	.seh_endproc
	.align 2
	.p2align 4
	.globl	_ZN8Polyfish8Position9put_pieceENS_5PieceENS_6SquareE
	.def	_ZN8Polyfish8Position9put_pieceENS_5PieceENS_6SquareE;	.scl	2;	.type	32;	.endef
	.seh_proc	_ZN8Polyfish8Position9put_pieceENS_5PieceENS_6SquareE
_ZN8Polyfish8Position9put_pieceENS_5PieceENS_6SquareE:
	pushq	%rdi
	.seh_pushreg	%rdi
	pushq	%rsi
	.seh_pushreg	%rsi
	pushq	%rbx
	.seh_pushreg	%rbx
	subq	$32, %rsp
	.seh_stackalloc	32
	.seh_endprologue
	movq	.refptr.__gcov_indirect_call(%rip), %rax
	cmpq	$0, (%rax)
	movq	%rcx, %rbx
	movl	%edx, %esi
	movl	%r8d, %edi
	je	.L31
	leaq	_ZN8Polyfish8Position9put_pieceENS_5PieceENS_6SquareE(%rip), %rdx
	movl	$879297383, %ecx
	call	__gcov_indirect_call_profiler_v4
.L31:
	addq	$1, __gcov0._ZN8Polyfish8Position9put_pieceENS_5PieceENS_6SquareE.lto_priv.0(%rip)
	cmpq	$0, __gcov7._ZN8Polyfish8Position9put_pieceENS_5PieceENS_6SquareE.lto_priv.0(%rip)
	jne	.L32
	movq	.refptr.__gcov_time_profiler_counter(%rip), %rdx
	movq	(%rdx), %rax
	addq	$1, %rax
	movq	%rax, __gcov7._ZN8Polyfish8Position9put_pieceENS_5PieceENS_6SquareE.lto_priv.0(%rip)
	movq	%rax, (%rdx)
.L32:
	movq	.refptr._ZN8Polyfish8SquareBBE(%rip), %rdx
	movl	%esi, %ecx
	movslq	%edi, %r8
	andl	$7, %ecx
	movl	%esi, (%rbx,%r8,4)
	movq	(%rdx,%r8,8), %rax
	orq	256(%rbx,%rcx,8), %rax
	movq	%rax, 256(%rbx,%rcx,8)
	movq	(%rdx,%r8,8), %rdx
	orq	%rax, 256(%rbx)
	movl	%esi, %eax
	sarl	$3, %eax
	cltq
	orq	%rdx, 320(%rbx,%rax,8)
	movslq	%esi, %rax
	andl	$-8, %esi
	addl	$1, 336(%rbx,%rax,4)
	salq	$6, %rax
	movslq	%esi, %rsi
	leaq	_ZN8Polyfish4PSQT3psqE(%rip), %rdx
	addq	%r8, %rax
	addl	$1, 336(%rbx,%rsi,4)
	movl	(%rdx,%rax,4), %eax
	addl	%eax, 872(%rbx)
	addq	$32, %rsp
	popq	%rbx
	popq	%rsi
	popq	%rdi
	ret
	.seh_endproc
	.align 2
	.p2align 4
	.globl	_ZN8Polyfish8Position12remove_pieceENS_6SquareE
	.def	_ZN8Polyfish8Position12remove_pieceENS_6SquareE;	.scl	2;	.type	32;	.endef
	.seh_proc	_ZN8Polyfish8Position12remove_pieceENS_6SquareE
_ZN8Polyfish8Position12remove_pieceENS_6SquareE:
	pushq	%rsi
	.seh_pushreg	%rsi
	pushq	%rbx
	.seh_pushreg	%rbx
	subq	$40, %rsp
	.seh_stackalloc	40
	.seh_endprologue
	movq	.refptr.__gcov_indirect_call(%rip), %rax
	cmpq	$0, (%rax)
	movq	%rcx, %rbx
	movl	%edx, %esi
	je	.L34
	leaq	_ZN8Polyfish8Position12remove_pieceENS_6SquareE(%rip), %rdx
	movl	$1627328305, %ecx
	call	__gcov_indirect_call_profiler_v4
.L34:
	addq	$1, __gcov0._ZN8Polyfish8Position12remove_pieceENS_6SquareE.lto_priv.0(%rip)
	cmpq	$0, __gcov7._ZN8Polyfish8Position12remove_pieceENS_6SquareE.lto_priv.0(%rip)
	jne	.L35
	movq	.refptr.__gcov_time_profiler_counter(%rip), %rdx
	movq	(%rdx), %rax
	addq	$1, %rax
	movq	%rax, __gcov7._ZN8Polyfish8Position12remove_pieceENS_6SquareE.lto_priv.0(%rip)
	movq	%rax, (%rdx)
.L35:
	movslq	%esi, %rdx
	movq	.refptr._ZN8Polyfish8SquareBBE(%rip), %r8
	movl	(%rbx,%rdx,4), %eax
	movq	(%r8,%rdx,8), %rcx
	xorq	%rcx, 256(%rbx)
	movl	%eax, %ecx
	movq	(%r8,%rdx,8), %r9
	andl	$7, %ecx
	xorq	%r9, 256(%rbx,%rcx,8)
	movl	%eax, %ecx
	movq	(%r8,%rdx,8), %r8
	sarl	$3, %ecx
	movslq	%ecx, %rcx
	xorq	%r8, 320(%rbx,%rcx,8)
	movslq	%eax, %rcx
	andl	$-8, %eax
	movl	$0, (%rbx,%rdx,4)
	cltq
	subl	$1, 336(%rbx,%rcx,4)
	salq	$6, %rcx
	subl	$1, 336(%rbx,%rax,4)
	addq	%rdx, %rcx
	leaq	_ZN8Polyfish4PSQT3psqE(%rip), %rax
	movl	(%rax,%rcx,4), %eax
	subl	%eax, 872(%rbx)
	addq	$40, %rsp
	popq	%rbx
	popq	%rsi
	ret
	.seh_endproc
	.align 2
	.p2align 4
	.def	_ZN8Polyfish8Position10move_pieceENS_6SquareES1_;	.scl	3;	.type	32;	.endef
	.seh_proc	_ZN8Polyfish8Position10move_pieceENS_6SquareES1_
_ZN8Polyfish8Position10move_pieceENS_6SquareES1_:
	pushq	%rdi
	.seh_pushreg	%rdi
	pushq	%rsi
	.seh_pushreg	%rsi
	pushq	%rbx
	.seh_pushreg	%rbx
	subq	$32, %rsp
	.seh_stackalloc	32
	.seh_endprologue
	movq	.refptr.__gcov_indirect_call(%rip), %rax
	cmpq	$0, (%rax)
	movq	%rcx, %rbx
	movl	%edx, %esi
	movl	%r8d, %edi
	je	.L37
	leaq	_ZN8Polyfish8Position10move_pieceENS_6SquareES1_(%rip), %rdx
	movl	$1792915657, %ecx
	call	__gcov_indirect_call_profiler_v4
.L37:
	addq	$1, __gcov0._ZN8Polyfish8Position10move_pieceENS_6SquareES1_(%rip)
	cmpq	$0, __gcov7._ZN8Polyfish8Position10move_pieceENS_6SquareES1_(%rip)
	jne	.L38
	movq	.refptr.__gcov_time_profiler_counter(%rip), %rdx
	movq	(%rdx), %rax
	addq	$1, %rax
	movq	%rax, __gcov7._ZN8Polyfish8Position10move_pieceENS_6SquareES1_(%rip)
	movq	%rax, (%rdx)
.L38:
	movslq	%esi, %rdx
	movq	.refptr._ZN8Polyfish8SquareBBE(%rip), %r9
	movslq	%edi, %r8
	movslq	(%rbx,%rdx,4), %rax
	movq	(%r9,%rdx,8), %rcx
	orq	(%r9,%r8,8), %rcx
	movl	%eax, %r9d
	xorq	%rcx, 256(%rbx)
	andl	$7, %r9d
	xorq	%rcx, 256(%rbx,%r9,8)
	movl	%eax, %r9d
	sarl	$3, %r9d
	movslq	%r9d, %r9
	xorq	%rcx, 320(%rbx,%r9,8)
	leaq	_ZN8Polyfish4PSQT3psqE(%rip), %rcx
	movl	$0, (%rbx,%rdx,4)
	movl	%eax, (%rbx,%r8,4)
	salq	$6, %rax
	addq	%rax, %r8
	addq	%rdx, %rax
	movl	(%rcx,%r8,4), %edx
	subl	(%rcx,%rax,4), %edx
	addl	%edx, 872(%rbx)
	addq	$32, %rsp
	popq	%rbx
	popq	%rsi
	popq	%rdi
	ret
	.seh_endproc
	.align 2
	.p2align 4
	.def	_ZNK8Polyfish8Position12attackers_toENS_6SquareEy;	.scl	3;	.type	32;	.endef
	.seh_proc	_ZNK8Polyfish8Position12attackers_toENS_6SquareEy
_ZNK8Polyfish8Position12attackers_toENS_6SquareEy:
	pushq	%rdi
	.seh_pushreg	%rdi
	pushq	%rsi
	.seh_pushreg	%rsi
	pushq	%rbx
	.seh_pushreg	%rbx
	subq	$32, %rsp
	.seh_stackalloc	32
	.seh_endprologue
	movq	.refptr.__gcov_indirect_call(%rip), %rax
	cmpq	$0, (%rax)
	movq	%rcx, %rsi
	movl	%edx, %edi
	movq	%r8, %rbx
	je	.L40
	leaq	_ZNK8Polyfish8Position12attackers_toENS_6SquareEy(%rip), %rdx
	movl	$264132061, %ecx
	call	__gcov_indirect_call_profiler_v4
.L40:
	addq	$1, __gcov0._ZNK8Polyfish8Position12attackers_toENS_6SquareEy(%rip)
	cmpq	$0, __gcov7._ZNK8Polyfish8Position12attackers_toENS_6SquareEy(%rip)
	jne	.L41
	movq	.refptr.__gcov_time_profiler_counter(%rip), %rdx
	movq	(%rdx), %rax
	addq	$1, %rax
	movq	%rax, __gcov7._ZNK8Polyfish8Position12attackers_toENS_6SquareEy(%rip)
	movq	%rax, (%rdx)
.L41:
	movq	.refptr._ZN8Polyfish11PawnAttacksE(%rip), %r9
	movq	264(%rsi), %rcx
	movslq	%edi, %rdx
	movq	320(%rsi), %rax
	movq	.refptr._ZN8Polyfish10RookMagicsE(%rip), %r10
	movq	296(%rsi), %r8
	andq	%rcx, %rax
	andq	328(%rsi), %rcx
	andq	(%r9,%rdx,8), %rcx
	andq	512(%r9,%rdx,8), %rax
	movq	.refptr._ZN8Polyfish13PseudoAttacksE(%rip), %r9
	orq	%rcx, %rax
	movq	272(%rsi), %rcx
	andq	1024(%r9,%rdx,8), %rcx
	orq	%rcx, %rax
	movq	3072(%r9,%rdx,8), %rcx
	salq	$5, %rdx
	andq	304(%rsi), %rcx
	addq	%rdx, %r10
	orq	%rcx, %rax
	addq	.refptr._ZN8Polyfish12BishopMagicsE(%rip), %rdx
	movq	(%r10), %r9
	movl	24(%r10), %ecx
	andq	%rbx, %r9
	imulq	8(%r10), %r9
	movq	16(%r10), %r10
	andq	(%rdx), %rbx
	imulq	8(%rdx), %rbx
	shrq	%cl, %r9
	movq	288(%rsi), %rcx
	movl	%r9d, %r9d
	orq	%r8, %rcx
	andq	(%r10,%r9,8), %rcx
	orq	280(%rsi), %r8
	orq	%rcx, %rax
	movl	24(%rdx), %ecx
	movq	16(%rdx), %rdx
	shrq	%cl, %rbx
	movl	%ebx, %ebx
	andq	(%rdx,%rbx,8), %r8
	orq	%r8, %rax
	addq	$32, %rsp
	popq	%rbx
	popq	%rsi
	popq	%rdi
	ret
	.seh_endproc
	.align 2
	.p2align 4
	.globl	_ZN8Polyfish8Position14undo_null_moveEv
	.def	_ZN8Polyfish8Position14undo_null_moveEv;	.scl	2;	.type	32;	.endef
	.seh_proc	_ZN8Polyfish8Position14undo_null_moveEv
_ZN8Polyfish8Position14undo_null_moveEv:
	pushq	%rbx
	.seh_pushreg	%rbx
	subq	$32, %rsp
	.seh_stackalloc	32
	.seh_endprologue
	movq	.refptr.__gcov_indirect_call(%rip), %rax
	cmpq	$0, (%rax)
	movq	%rcx, %rbx
	je	.L43
	leaq	_ZN8Polyfish8Position14undo_null_moveEv(%rip), %rdx
	movl	$1390319097, %ecx
	call	__gcov_indirect_call_profiler_v4
.L43:
	addq	$1, __gcov0._ZN8Polyfish8Position14undo_null_moveEv(%rip)
	cmpq	$0, __gcov7._ZN8Polyfish8Position14undo_null_moveEv(%rip)
	jne	.L44
	movq	.refptr.__gcov_time_profiler_counter(%rip), %rdx
	movq	(%rdx), %rax
	addq	$1, %rax
	movq	%rax, __gcov7._ZN8Polyfish8Position14undo_null_moveEv(%rip)
	movq	%rax, (%rdx)
.L44:
	movq	856(%rbx), %rax
	movq	56(%rax), %rax
	xorl	$1, 868(%rbx)
	movq	%rax, 856(%rbx)
	addq	$32, %rsp
	popq	%rbx
	ret
	.seh_endproc
	.align 2
	.p2align 4
	.globl	_ZNK8Polyfish8Position9key_afterENS_4MoveE
	.def	_ZNK8Polyfish8Position9key_afterENS_4MoveE;	.scl	2;	.type	32;	.endef
	.seh_proc	_ZNK8Polyfish8Position9key_afterENS_4MoveE
_ZNK8Polyfish8Position9key_afterENS_4MoveE:
	pushq	%rsi
	.seh_pushreg	%rsi
	pushq	%rbx
	.seh_pushreg	%rbx
	subq	$40, %rsp
	.seh_stackalloc	40
	.seh_endprologue
	movq	.refptr.__gcov_indirect_call(%rip), %rax
	cmpq	$0, (%rax)
	movq	%rcx, %rsi
	movl	%edx, %ebx
	je	.L46
	leaq	_ZNK8Polyfish8Position9key_afterENS_4MoveE(%rip), %rdx
	movl	$471460144, %ecx
	call	__gcov_indirect_call_profiler_v4
.L46:
	addq	$1, __gcov0._ZNK8Polyfish8Position9key_afterENS_4MoveE(%rip)
	cmpq	$0, __gcov7._ZNK8Polyfish8Position9key_afterENS_4MoveE(%rip)
	jne	.L47
	movq	.refptr.__gcov_time_profiler_counter(%rip), %rdx
	movq	(%rdx), %rax
	addq	$1, %rax
	movq	%rax, __gcov7._ZNK8Polyfish8Position9key_afterENS_4MoveE(%rip)
	movq	%rax, (%rdx)
.L47:
	movl	%ebx, %edx
	movl	%ebx, %r9d
	movq	856(%rsi), %r8
	leaq	_ZN8Polyfish7Zobrist3psqE(%rip), %r10
	andl	$63, %edx
	sarl	$6, %r9d
	movslq	(%rsi,%rdx,4), %rcx
	andl	$63, %r9d
	movq	40(%r8), %r8
	movslq	(%rsi,%r9,4), %rax
	xorq	_ZN8Polyfish7Zobrist4sideE(%rip), %r8
	testl	%ecx, %ecx
	je	.L48
	addq	$1, 8+__gcov0._ZNK8Polyfish8Position9key_afterENS_4MoveE(%rip)
	salq	$6, %rcx
	addq	%rdx, %rcx
	xorq	(%r10,%rcx,8), %r8
.L48:
	salq	$6, %rax
	addq	%rax, %rdx
	addq	%r9, %rax
	movq	(%r10,%rdx,8), %rdx
	xorq	(%r10,%rax,8), %rdx
	movq	%rdx, %rax
	xorq	%r8, %rax
	addq	$40, %rsp
	popq	%rbx
	popq	%rsi
	ret
	.seh_endproc
	.align 2
	.p2align 4
	.globl	_ZNK8Polyfish8Position6see_geENS_4MoveENS_5ValueE
	.def	_ZNK8Polyfish8Position6see_geENS_4MoveENS_5ValueE;	.scl	2;	.type	32;	.endef
	.seh_proc	_ZNK8Polyfish8Position6see_geENS_4MoveENS_5ValueE
_ZNK8Polyfish8Position6see_geENS_4MoveENS_5ValueE:
	pushq	%r15
	.seh_pushreg	%r15
	pushq	%r14
	.seh_pushreg	%r14
	pushq	%r13
	.seh_pushreg	%r13
	pushq	%r12
	.seh_pushreg	%r12
	pushq	%rbp
	.seh_pushreg	%rbp
	pushq	%rdi
	.seh_pushreg	%rdi
	pushq	%rsi
	.seh_pushreg	%rsi
	pushq	%rbx
	.seh_pushreg	%rbx
	subq	$104, %rsp
	.seh_stackalloc	104
	.seh_endprologue
	movq	.refptr.__gcov_indirect_call(%rip), %rax
	cmpq	$0, (%rax)
	movq	%rcx, %rbx
	movl	%edx, %esi
	movl	%r8d, %edi
	je	.L53
	leaq	_ZNK8Polyfish8Position6see_geENS_4MoveENS_5ValueE(%rip), %rdx
	movl	$639218411, %ecx
	call	__gcov_indirect_call_profiler_v4
.L53:
	cmpq	$0, __gcov7._ZNK8Polyfish8Position6see_geENS_4MoveENS_5ValueE(%rip)
	jne	.L54
	movq	.refptr.__gcov_time_profiler_counter(%rip), %rdx
	movq	(%rdx), %rax
	addq	$1, %rax
	movq	%rax, __gcov7._ZNK8Polyfish8Position6see_geENS_4MoveENS_5ValueE(%rip)
	movq	%rax, (%rdx)
.L54:
	testl	$49152, %esi
	jne	.L269
	movl	%esi, %r12d
	movq	.refptr._ZN8PolyfishL10PieceValueE.lto_priv.1.lto_priv.0(%rip), %rcx
	movl	%esi, %r9d
	andl	$63, %r12d
	andl	$63, %r9d
	movslq	(%rbx,%r12,4), %rax
	movl	(%rcx,%rax,4), %eax
	subl	%edi, %eax
	movl	%eax, %edx
	js	.L270
	sarl	$6, %esi
	movl	%esi, %eax
	andl	$63, %eax
	movslq	(%rbx,%rax,4), %r8
	movl	(%rcx,%r8,4), %edi
	subl	%edx, %edi
	testl	%edi, %edi
	jle	.L271
	movq	.refptr._ZN8Polyfish8SquareBBE(%rip), %rdx
	movl	868(%rbx), %ebp
	movq	%rbx, %rcx
	movq	(%rdx,%r12,8), %rsi
	xorq	256(%rbx), %rsi
	xorq	(%rdx,%rax,8), %rsi
	movl	%r9d, %edx
	movq	%rsi, %r8
	call	_ZNK8Polyfish8Position12attackers_toENS_6SquareEy
	movslq	%ebp, %r10
	movl	%r10d, %r8d
	andq	%rsi, %rax
	xorl	$1, %r8d
	movq	%rax, %rdx
	movq	%rax, %r9
	movslq	%r8d, %r14
	movq	320(%rbx,%r14,8), %rcx
	andq	%rcx, %rdx
	je	.L123
	movq	128+__gcov0._ZNK8Polyfish8Position6see_geENS_4MoveENS_5ValueE(%rip), %rax
	salq	$5, %r12
	movb	$0, 78(%rsp)
	movl	$1, %r15d
	movq	.refptr._ZN8Polyfish12BishopMagicsE(%rip), %r13
	movb	$0, 79(%rsp)
	movq	%rax, 80(%rsp)
	movq	104+__gcov0._ZNK8Polyfish8Position6see_geENS_4MoveENS_5ValueE(%rip), %rax
	movb	$0, 77(%rsp)
	movq	856(%rbx), %r11
	addq	%r12, %r13
	movq	%rax, 88(%rsp)
	movq	88+__gcov0._ZNK8Polyfish8Position6see_geENS_4MoveENS_5ValueE(%rip), %rax
	movb	$0, 76(%rsp)
	movq	32+__gcov0._ZNK8Polyfish8Position6see_geENS_4MoveENS_5ValueE(%rip), %rbp
	movq	%rax, 56(%rsp)
	movq	72+__gcov0._ZNK8Polyfish8Position6see_geENS_4MoveENS_5ValueE(%rip), %rax
	movb	$0, 74(%rsp)
	movq	%rax, 48(%rsp)
	movq	56+__gcov0._ZNK8Polyfish8Position6see_geENS_4MoveENS_5ValueE(%rip), %rax
	movb	$0, 75(%rsp)
	movq	%rax, 32(%rsp)
	movq	%r12, %rax
	addq	.refptr._ZN8Polyfish10RookMagicsE(%rip), %rax
	movq	%r12, 40(%rsp)
	movq	%rax, 64(%rsp)
	jmp	.L60
	.p2align 4,,10
	.p2align 3
.L274:
	movl	$126, %edx
	subl	%edi, %edx
	movl	%edx, %edi
	cmpl	%eax, %edx
	jl	.L272
	movq	%r10, %rdx
	addq	$1, 32(%rsp)
	negq	%rdx
	movb	$1, 74(%rsp)
	andq	%r10, %rdx
	movq	40(%rsp), %r10
	addq	.refptr._ZN8Polyfish12BishopMagicsE(%rip), %r10
	xorq	%rdx, %rsi
	movq	(%r10), %rdx
	movl	24(%r10), %ecx
	andq	%rsi, %rdx
	imulq	8(%r10), %rdx
	movq	16(%r10), %r10
	shrq	%cl, %rdx
	movl	%edx, %ecx
	movq	296(%rbx), %rdx
	orq	280(%rbx), %rdx
	andq	(%r10,%rcx,8), %rdx
	orq	%rdx, %r9
.L77:
	movslq	%r8d, %r10
	xorl	$1, %r8d
	andq	%rsi, %r9
	movslq	%r8d, %r14
	movq	%r9, %rdx
	movq	320(%rbx,%r14,8), %rcx
	andq	%rcx, %rdx
	je	.L61
	movl	%eax, %r15d
.L60:
	movq	%rsi, %rax
	andq	80(%r11,%r10,8), %rax
	je	.L62
	movq	64(%r11,%r14,8), %rax
	addq	$1, %rbp
	notq	%rax
	andq	%rax, %rdx
	je	.L273
	movb	$1, 75(%rsp)
.L62:
	movl	%r15d, %eax
	movq	%rdx, %r10
	xorl	$1, %eax
	andq	264(%rbx), %r10
	jne	.L274
	movq	%rdx, %r10
	andq	272(%rbx), %r10
	je	.L78
	movl	$781, %edx
	subl	%edi, %edx
	movl	%edx, %edi
	cmpl	%edx, %eax
	jg	.L275
	movq	%r10, %rdx
	addq	$1, 48(%rsp)
	negq	%rdx
	movb	$1, 76(%rsp)
	andq	%r10, %rdx
	xorq	%rdx, %rsi
	jmp	.L77
	.p2align 4,,10
	.p2align 3
.L78:
	movq	280(%rbx), %r10
	movq	%r10, %r12
	andq	%rdx, %r12
	je	.L86
	movl	$825, %edx
	subl	%edi, %edx
	movl	%edx, %edi
	cmpl	%edx, %eax
	jg	.L276
	movq	%r12, %rdx
	movl	24(%r13), %ecx
	movb	$1, 77(%rsp)
	negq	%rdx
	orq	296(%rbx), %r10
	addq	$1, 56(%rsp)
	andq	%r12, %rdx
	xorq	%rdx, %rsi
	movq	0(%r13), %rdx
	andq	%rsi, %rdx
	imulq	8(%r13), %rdx
	shrq	%cl, %rdx
	movq	16(%r13), %rcx
	movl	%edx, %edx
	andq	(%rcx,%rdx,8), %r10
	orq	%r10, %r9
	jmp	.L77
	.p2align 4,,10
	.p2align 3
.L86:
	movq	288(%rbx), %r12
	movq	%r12, %r14
	andq	%rdx, %r14
	je	.L94
	movl	$1276, %edx
	subl	%edi, %edx
	movl	%edx, %edi
	cmpl	%edx, %eax
	jg	.L277
	movq	%r14, %rdx
	movq	64(%rsp), %r15
	movb	$1, 79(%rsp)
	negq	%rdx
	orq	296(%rbx), %r12
	addq	$1, 88(%rsp)
	andq	%r14, %rdx
	movl	24(%r15), %ecx
	xorq	%rdx, %rsi
	movq	(%r15), %rdx
	andq	%rsi, %rdx
	imulq	8(%r15), %rdx
	shrq	%cl, %rdx
	movq	16(%r15), %rcx
	movl	%edx, %edx
	andq	(%rcx,%rdx,8), %r12
	orq	%r12, %r9
	jmp	.L77
	.p2align 4,,10
	.p2align 3
.L94:
	movq	296(%rbx), %r14
	andq	%r14, %rdx
	je	.L102
	movl	$2538, %ecx
	subl	%edi, %ecx
	movl	%ecx, %edi
	cmpl	%ecx, %eax
	jg	.L278
	movq	%rdx, %rcx
	movq	64(%rsp), %r15
	orq	%r14, %r10
	orq	%r14, %r12
	negq	%rcx
	addq	$1, 80(%rsp)
	andq	%rdx, %rcx
	movq	0(%r13), %rdx
	movb	$1, 78(%rsp)
	xorq	%rcx, %rsi
	movl	24(%r13), %ecx
	andq	%rsi, %rdx
	imulq	8(%r13), %rdx
	shrq	%cl, %rdx
	movq	16(%r13), %rcx
	movl	%edx, %edx
	andq	(%rcx,%rdx,8), %r10
	movq	(%r15), %rdx
	movl	24(%r15), %ecx
	andq	%rsi, %rdx
	imulq	8(%r15), %rdx
	shrq	%cl, %rdx
	movq	16(%r15), %rcx
	movl	%edx, %edx
	andq	(%rcx,%rdx,8), %r12
	orq	%r12, %r10
	orq	%r10, %r9
	jmp	.L77
	.p2align 4,,10
	.p2align 3
.L269:
	addq	$1, __gcov0._ZNK8Polyfish8Position6see_geENS_4MoveENS_5ValueE(%rip)
	testl	%edi, %edi
	setle	%al
.L52:
	addq	$104, %rsp
	popq	%rbx
	popq	%rsi
	popq	%rdi
	popq	%rbp
	popq	%r12
	popq	%r13
	popq	%r14
	popq	%r15
	ret
	.p2align 4,,10
	.p2align 3
.L270:
	addq	$1, 8+__gcov0._ZNK8Polyfish8Position6see_geENS_4MoveENS_5ValueE(%rip)
	xorl	%eax, %eax
	jmp	.L52
	.p2align 4,,10
	.p2align 3
.L271:
	addq	$1, 16+__gcov0._ZNK8Polyfish8Position6see_geENS_4MoveENS_5ValueE(%rip)
	movl	$1, %eax
	jmp	.L52
	.p2align 4,,10
	.p2align 3
.L273:
	cmpb	$0, 78(%rsp)
	je	.L63
	movq	80(%rsp), %rax
	movq	%rax, 128+__gcov0._ZNK8Polyfish8Position6see_geENS_4MoveENS_5ValueE(%rip)
.L63:
	cmpb	$0, 79(%rsp)
	je	.L64
	movq	88(%rsp), %rax
	movq	%rax, 104+__gcov0._ZNK8Polyfish8Position6see_geENS_4MoveENS_5ValueE(%rip)
.L64:
	cmpb	$0, 77(%rsp)
	je	.L65
	movq	56(%rsp), %rax
	movq	%rax, 88+__gcov0._ZNK8Polyfish8Position6see_geENS_4MoveENS_5ValueE(%rip)
.L65:
	cmpb	$0, 76(%rsp)
	je	.L66
	movq	48(%rsp), %rax
	movq	%rax, 72+__gcov0._ZNK8Polyfish8Position6see_geENS_4MoveENS_5ValueE(%rip)
.L66:
	cmpb	$0, 74(%rsp)
	je	.L67
	movq	32(%rsp), %rax
	movq	%rax, 56+__gcov0._ZNK8Polyfish8Position6see_geENS_4MoveENS_5ValueE(%rip)
.L67:
	movl	%r15d, %eax
	addq	$1, 40+__gcov0._ZNK8Polyfish8Position6see_geENS_4MoveENS_5ValueE(%rip)
	movq	%rbp, 32+__gcov0._ZNK8Polyfish8Position6see_geENS_4MoveENS_5ValueE(%rip)
	andl	$1, %eax
	jmp	.L52
	.p2align 4,,10
	.p2align 3
.L61:
	cmpb	$0, 78(%rsp)
	je	.L117
	movq	80(%rsp), %rdi
	movq	%rdi, 128+__gcov0._ZNK8Polyfish8Position6see_geENS_4MoveENS_5ValueE(%rip)
.L117:
	cmpb	$0, 79(%rsp)
	je	.L118
	movq	88(%rsp), %rdi
	movq	%rdi, 104+__gcov0._ZNK8Polyfish8Position6see_geENS_4MoveENS_5ValueE(%rip)
.L118:
	cmpb	$0, 77(%rsp)
	je	.L119
	movq	56(%rsp), %rdi
	movq	%rdi, 88+__gcov0._ZNK8Polyfish8Position6see_geENS_4MoveENS_5ValueE(%rip)
.L119:
	cmpb	$0, 76(%rsp)
	je	.L120
	movq	48(%rsp), %rdi
	movq	%rdi, 72+__gcov0._ZNK8Polyfish8Position6see_geENS_4MoveENS_5ValueE(%rip)
.L120:
	cmpb	$0, 74(%rsp)
	je	.L121
	movq	32(%rsp), %rdi
	movq	%rdi, 56+__gcov0._ZNK8Polyfish8Position6see_geENS_4MoveENS_5ValueE(%rip)
.L121:
	cmpb	$0, 75(%rsp)
	je	.L122
	movq	%rbp, 32+__gcov0._ZNK8Polyfish8Position6see_geENS_4MoveENS_5ValueE(%rip)
.L122:
	andl	$1, %eax
.L59:
	addq	$1, 24+__gcov0._ZNK8Polyfish8Position6see_geENS_4MoveENS_5ValueE(%rip)
	jmp	.L52
.L272:
	cmpb	$0, 78(%rsp)
	je	.L71
	movq	80(%rsp), %rdi
	movq	%rdi, 128+__gcov0._ZNK8Polyfish8Position6see_geENS_4MoveENS_5ValueE(%rip)
.L71:
	cmpb	$0, 79(%rsp)
	je	.L72
	movq	88(%rsp), %rdi
	movq	%rdi, 104+__gcov0._ZNK8Polyfish8Position6see_geENS_4MoveENS_5ValueE(%rip)
.L72:
	cmpb	$0, 77(%rsp)
	je	.L73
	movq	56(%rsp), %rdi
	movq	%rdi, 88+__gcov0._ZNK8Polyfish8Position6see_geENS_4MoveENS_5ValueE(%rip)
.L73:
	cmpb	$0, 76(%rsp)
	je	.L74
	movq	48(%rsp), %rdi
	movq	%rdi, 72+__gcov0._ZNK8Polyfish8Position6see_geENS_4MoveENS_5ValueE(%rip)
.L74:
	cmpb	$0, 74(%rsp)
	je	.L75
	movq	32(%rsp), %rdi
	movq	%rdi, 56+__gcov0._ZNK8Polyfish8Position6see_geENS_4MoveENS_5ValueE(%rip)
.L75:
	cmpb	$0, 75(%rsp)
	je	.L76
	movq	%rbp, 32+__gcov0._ZNK8Polyfish8Position6see_geENS_4MoveENS_5ValueE(%rip)
.L76:
	addq	$1, 48+__gcov0._ZNK8Polyfish8Position6see_geENS_4MoveENS_5ValueE(%rip)
	andl	$1, %eax
	jmp	.L52
.L275:
	cmpb	$0, 78(%rsp)
	je	.L80
	movq	80(%rsp), %rdi
	movq	%rdi, 128+__gcov0._ZNK8Polyfish8Position6see_geENS_4MoveENS_5ValueE(%rip)
.L80:
	cmpb	$0, 79(%rsp)
	je	.L81
	movq	88(%rsp), %rdi
	movq	%rdi, 104+__gcov0._ZNK8Polyfish8Position6see_geENS_4MoveENS_5ValueE(%rip)
.L81:
	cmpb	$0, 77(%rsp)
	je	.L82
	movq	56(%rsp), %rdi
	movq	%rdi, 88+__gcov0._ZNK8Polyfish8Position6see_geENS_4MoveENS_5ValueE(%rip)
.L82:
	cmpb	$0, 76(%rsp)
	je	.L83
	movq	48(%rsp), %rdi
	movq	%rdi, 72+__gcov0._ZNK8Polyfish8Position6see_geENS_4MoveENS_5ValueE(%rip)
.L83:
	cmpb	$0, 74(%rsp)
	je	.L84
	movq	32(%rsp), %rdi
	movq	%rdi, 56+__gcov0._ZNK8Polyfish8Position6see_geENS_4MoveENS_5ValueE(%rip)
.L84:
	cmpb	$0, 75(%rsp)
	je	.L85
	movq	%rbp, 32+__gcov0._ZNK8Polyfish8Position6see_geENS_4MoveENS_5ValueE(%rip)
.L85:
	addq	$1, 64+__gcov0._ZNK8Polyfish8Position6see_geENS_4MoveENS_5ValueE(%rip)
	andl	$1, %eax
	jmp	.L52
.L276:
	cmpb	$0, 78(%rsp)
	je	.L88
	movq	80(%rsp), %rdi
	movq	%rdi, 128+__gcov0._ZNK8Polyfish8Position6see_geENS_4MoveENS_5ValueE(%rip)
.L88:
	cmpb	$0, 79(%rsp)
	je	.L89
	movq	88(%rsp), %rdi
	movq	%rdi, 104+__gcov0._ZNK8Polyfish8Position6see_geENS_4MoveENS_5ValueE(%rip)
.L89:
	cmpb	$0, 77(%rsp)
	je	.L90
	movq	56(%rsp), %rdi
	movq	%rdi, 88+__gcov0._ZNK8Polyfish8Position6see_geENS_4MoveENS_5ValueE(%rip)
.L90:
	cmpb	$0, 76(%rsp)
	je	.L91
	movq	48(%rsp), %rdi
	movq	%rdi, 72+__gcov0._ZNK8Polyfish8Position6see_geENS_4MoveENS_5ValueE(%rip)
.L91:
	cmpb	$0, 74(%rsp)
	je	.L92
	movq	32(%rsp), %rdi
	movq	%rdi, 56+__gcov0._ZNK8Polyfish8Position6see_geENS_4MoveENS_5ValueE(%rip)
.L92:
	cmpb	$0, 75(%rsp)
	je	.L93
	movq	%rbp, 32+__gcov0._ZNK8Polyfish8Position6see_geENS_4MoveENS_5ValueE(%rip)
.L93:
	addq	$1, 80+__gcov0._ZNK8Polyfish8Position6see_geENS_4MoveENS_5ValueE(%rip)
	andl	$1, %eax
	jmp	.L52
.L102:
	cmpb	$0, 78(%rsp)
	je	.L110
	movq	80(%rsp), %rdi
	movq	%rdi, 128+__gcov0._ZNK8Polyfish8Position6see_geENS_4MoveENS_5ValueE(%rip)
.L110:
	cmpb	$0, 79(%rsp)
	je	.L111
	movq	88(%rsp), %rdi
	movq	%rdi, 104+__gcov0._ZNK8Polyfish8Position6see_geENS_4MoveENS_5ValueE(%rip)
.L111:
	cmpb	$0, 77(%rsp)
	je	.L112
	movq	56(%rsp), %rdi
	movq	%rdi, 88+__gcov0._ZNK8Polyfish8Position6see_geENS_4MoveENS_5ValueE(%rip)
.L112:
	cmpb	$0, 76(%rsp)
	je	.L113
	movq	48(%rsp), %rdi
	movq	%rdi, 72+__gcov0._ZNK8Polyfish8Position6see_geENS_4MoveENS_5ValueE(%rip)
.L113:
	cmpb	$0, 74(%rsp)
	je	.L114
	movq	32(%rsp), %rdi
	movq	%rdi, 56+__gcov0._ZNK8Polyfish8Position6see_geENS_4MoveENS_5ValueE(%rip)
.L114:
	cmpb	$0, 75(%rsp)
	je	.L115
	movq	%rbp, 32+__gcov0._ZNK8Polyfish8Position6see_geENS_4MoveENS_5ValueE(%rip)
.L115:
	notq	%rcx
	addq	$1, 112+__gcov0._ZNK8Polyfish8Position6see_geENS_4MoveENS_5ValueE(%rip)
	testq	%r9, %rcx
	jne	.L116
	addq	$1, 136+__gcov0._ZNK8Polyfish8Position6see_geENS_4MoveENS_5ValueE(%rip)
	movl	%eax, %r15d
.L116:
	movl	%r15d, %eax
	andl	$1, %eax
	jmp	.L52
.L278:
	cmpb	$0, 78(%rsp)
	je	.L104
	movq	80(%rsp), %rdi
	movq	%rdi, 128+__gcov0._ZNK8Polyfish8Position6see_geENS_4MoveENS_5ValueE(%rip)
.L104:
	cmpb	$0, 79(%rsp)
	je	.L105
	movq	88(%rsp), %rdi
	movq	%rdi, 104+__gcov0._ZNK8Polyfish8Position6see_geENS_4MoveENS_5ValueE(%rip)
.L105:
	cmpb	$0, 77(%rsp)
	je	.L106
	movq	56(%rsp), %rdi
	movq	%rdi, 88+__gcov0._ZNK8Polyfish8Position6see_geENS_4MoveENS_5ValueE(%rip)
.L106:
	cmpb	$0, 76(%rsp)
	je	.L107
	movq	48(%rsp), %rdi
	movq	%rdi, 72+__gcov0._ZNK8Polyfish8Position6see_geENS_4MoveENS_5ValueE(%rip)
.L107:
	cmpb	$0, 74(%rsp)
	je	.L108
	movq	32(%rsp), %rdi
	movq	%rdi, 56+__gcov0._ZNK8Polyfish8Position6see_geENS_4MoveENS_5ValueE(%rip)
.L108:
	cmpb	$0, 75(%rsp)
	je	.L109
	movq	%rbp, 32+__gcov0._ZNK8Polyfish8Position6see_geENS_4MoveENS_5ValueE(%rip)
.L109:
	addq	$1, 120+__gcov0._ZNK8Polyfish8Position6see_geENS_4MoveENS_5ValueE(%rip)
	andl	$1, %eax
	jmp	.L52
.L277:
	cmpb	$0, 78(%rsp)
	je	.L96
	movq	80(%rsp), %rdi
	movq	%rdi, 128+__gcov0._ZNK8Polyfish8Position6see_geENS_4MoveENS_5ValueE(%rip)
.L96:
	cmpb	$0, 79(%rsp)
	je	.L97
	movq	88(%rsp), %rdi
	movq	%rdi, 104+__gcov0._ZNK8Polyfish8Position6see_geENS_4MoveENS_5ValueE(%rip)
.L97:
	cmpb	$0, 77(%rsp)
	je	.L98
	movq	56(%rsp), %rdi
	movq	%rdi, 88+__gcov0._ZNK8Polyfish8Position6see_geENS_4MoveENS_5ValueE(%rip)
.L98:
	cmpb	$0, 76(%rsp)
	je	.L99
	movq	48(%rsp), %rdi
	movq	%rdi, 72+__gcov0._ZNK8Polyfish8Position6see_geENS_4MoveENS_5ValueE(%rip)
.L99:
	cmpb	$0, 74(%rsp)
	je	.L100
	movq	32(%rsp), %rdi
	movq	%rdi, 56+__gcov0._ZNK8Polyfish8Position6see_geENS_4MoveENS_5ValueE(%rip)
.L100:
	cmpb	$0, 75(%rsp)
	je	.L101
	movq	%rbp, 32+__gcov0._ZNK8Polyfish8Position6see_geENS_4MoveENS_5ValueE(%rip)
.L101:
	addq	$1, 96+__gcov0._ZNK8Polyfish8Position6see_geENS_4MoveENS_5ValueE(%rip)
	andl	$1, %eax
	jmp	.L52
.L123:
	movl	$1, %eax
	jmp	.L59
	.seh_endproc
	.align 2
	.p2align 4
	.globl	_ZNK8Polyfish8Position12has_repeatedEv
	.def	_ZNK8Polyfish8Position12has_repeatedEv;	.scl	2;	.type	32;	.endef
	.seh_proc	_ZNK8Polyfish8Position12has_repeatedEv
_ZNK8Polyfish8Position12has_repeatedEv:
	pushq	%rbx
	.seh_pushreg	%rbx
	subq	$32, %rsp
	.seh_stackalloc	32
	.seh_endprologue
	movq	.refptr.__gcov_indirect_call(%rip), %rax
	cmpq	$0, (%rax)
	movq	%rcx, %rbx
	je	.L280
	leaq	_ZNK8Polyfish8Position12has_repeatedEv(%rip), %rdx
	movl	$1942559952, %ecx
	call	__gcov_indirect_call_profiler_v4
.L280:
	addq	$1, __gcov0._ZNK8Polyfish8Position12has_repeatedEv(%rip)
	cmpq	$0, __gcov7._ZNK8Polyfish8Position12has_repeatedEv(%rip)
	jne	.L281
	movq	.refptr.__gcov_time_profiler_counter(%rip), %rdx
	movq	(%rdx), %rax
	addq	$1, %rax
	movq	%rax, __gcov7._ZNK8Polyfish8Position12has_repeatedEv(%rip)
	movq	%rax, (%rdx)
.L281:
	movq	856(%rbx), %rax
	movl	32(%rax), %edx
	movl	28(%rax), %ecx
	cmpl	%ecx, %edx
	jge	.L282
	addq	$1, 8+__gcov0._ZNK8Polyfish8Position12has_repeatedEv(%rip)
	movl	%edx, %ecx
.L282:
	cmpl	$3, %ecx
	jle	.L287
	movq	24+__gcov0._ZNK8Polyfish8Position12has_repeatedEv(%rip), %rdx
	subl	$4, %ecx
	leaq	1(%rdx,%rcx), %r8
	xorl	%ecx, %ecx
	jmp	.L286
	.p2align 4,,10
	.p2align 3
.L284:
	addq	$1, %rdx
	movq	56(%rax), %rax
	movl	$1, %ecx
	cmpq	%r8, %rdx
	je	.L292
.L286:
	movl	164(%rax), %r9d
	testl	%r9d, %r9d
	je	.L284
	testb	%cl, %cl
	je	.L285
	movq	%rdx, 24+__gcov0._ZNK8Polyfish8Position12has_repeatedEv(%rip)
.L285:
	addq	$1, 16+__gcov0._ZNK8Polyfish8Position12has_repeatedEv(%rip)
	movl	$1, %eax
.L279:
	addq	$32, %rsp
	popq	%rbx
	ret
	.p2align 4,,10
	.p2align 3
.L292:
	xorl	%eax, %eax
	movq	%rdx, 24+__gcov0._ZNK8Polyfish8Position12has_repeatedEv(%rip)
	addq	$32, %rsp
	popq	%rbx
	ret
.L287:
	xorl	%eax, %eax
	jmp	.L279
	.seh_endproc
	.align 2
	.p2align 4
	.globl	_ZNK8Polyfish8Position14has_game_cycleEi
	.def	_ZNK8Polyfish8Position14has_game_cycleEi;	.scl	2;	.type	32;	.endef
	.seh_proc	_ZNK8Polyfish8Position14has_game_cycleEi
_ZNK8Polyfish8Position14has_game_cycleEi:
	pushq	%r15
	.seh_pushreg	%r15
	pushq	%r14
	.seh_pushreg	%r14
	pushq	%r13
	.seh_pushreg	%r13
	pushq	%r12
	.seh_pushreg	%r12
	pushq	%rbp
	.seh_pushreg	%rbp
	pushq	%rdi
	.seh_pushreg	%rdi
	pushq	%rsi
	.seh_pushreg	%rsi
	pushq	%rbx
	.seh_pushreg	%rbx
	subq	$88, %rsp
	.seh_stackalloc	88
	.seh_endprologue
	movq	.refptr.__gcov_indirect_call(%rip), %rax
	cmpq	$0, (%rax)
	movl	%edx, 168(%rsp)
	movq	%rcx, %rbx
	je	.L294
	leaq	_ZNK8Polyfish8Position14has_game_cycleEi(%rip), %rdx
	movl	$1970588907, %ecx
	call	__gcov_indirect_call_profiler_v4
.L294:
	cmpq	$0, __gcov7._ZNK8Polyfish8Position14has_game_cycleEi(%rip)
	jne	.L295
	movq	.refptr.__gcov_time_profiler_counter(%rip), %rdx
	movq	(%rdx), %rax
	addq	$1, %rax
	movq	%rax, __gcov7._ZNK8Polyfish8Position14has_game_cycleEi(%rip)
	movq	%rax, (%rdx)
.L295:
	movq	856(%rbx), %rax
	movl	32(%rax), %edx
	movl	28(%rax), %esi
	cmpl	%edx, %esi
	jle	.L296
	addq	$1, __gcov0._ZNK8Polyfish8Position14has_game_cycleEi(%rip)
	movl	%edx, %esi
.L296:
	cmpl	$2, %esi
	jle	.L378
	movq	40(%rax), %rdi
	movq	56(%rax), %r8
	movb	$0, 61(%rsp)
	xorl	%ebp, %ebp
	movq	32+__gcov0._ZNK8Polyfish8Position14has_game_cycleEi(%rip), %rax
	movb	$0, 62(%rsp)
	movl	$3, %ecx
	leaq	_ZN8Polyfish6cuckooE(%rip), %r10
	movq	40+__gcov0._ZNK8Polyfish8Position14has_game_cycleEi(%rip), %r12
	addq	$1, 16+__gcov0._ZNK8Polyfish8Position14has_game_cycleEi(%rip)
	leaq	_ZN8Polyfish10cuckooMoveE(%rip), %r15
	movq	%rax, 40(%rsp)
	movq	56+__gcov0._ZNK8Polyfish8Position14has_game_cycleEi(%rip), %rax
	movb	$0, 63(%rsp)
	movq	24+__gcov0._ZNK8Polyfish8Position14has_game_cycleEi(%rip), %r11
	movq	%rax, 72(%rsp)
	movq	72+__gcov0._ZNK8Polyfish8Position14has_game_cycleEi(%rip), %rax
	movb	$0, 59(%rsp)
	movq	.refptr._ZN8Polyfish8SquareBBE(%rip), %r14
	movq	%rax, 48(%rsp)
	movq	64+__gcov0._ZNK8Polyfish8Position14has_game_cycleEi(%rip), %rax
	movb	$0, 60(%rsp)
	movq	.refptr._ZN8Polyfish9BetweenBBE(%rip), %r13
	movq	%rax, 64(%rsp)
	movq	%r12, 32(%rsp)
	jmp	.L317
	.p2align 4,,10
	.p2align 3
.L381:
	movq	%rdx, %rax
	addq	$1, %r11
	movl	$1, %ebp
	shrq	$16, %rax
	andl	$8191, %eax
	cmpq	%rdx, (%r10,%rax,8)
	je	.L379
.L300:
	addl	$2, %ecx
	cmpl	%esi, %ecx
	jg	.L380
.L317:
	movq	56(%r8), %rax
	movq	56(%rax), %r8
	movq	40(%r8), %rdx
	xorq	%rdi, %rdx
	movq	%rdx, %rax
	andl	$8191, %eax
	cmpq	%rdx, (%r10,%rax,8)
	jne	.L381
.L299:
	movl	(%r15,%rax,4), %eax
	movl	%eax, %r9d
	andl	$63, %eax
	sarl	$6, %r9d
	movq	(%r14,%rax,8), %r12
	andl	$63, %r9d
	movq	%r9, %rdx
	salq	$6, %rdx
	addq	%rax, %rdx
	xorq	0(%r13,%rdx,8), %r12
	movq	%r12, %rdx
	andq	256(%rbx), %rdx
	je	.L301
	addl	$2, %ecx
	addq	$1, 32(%rsp)
	movb	$1, 59(%rsp)
	cmpl	%esi, %ecx
	jle	.L317
.L380:
	cmpb	$0, 61(%rsp)
	movq	32(%rsp), %r12
	je	.L318
	movq	48(%rsp), %rax
	movq	%rax, 72+__gcov0._ZNK8Polyfish8Position14has_game_cycleEi(%rip)
.L318:
	cmpb	$0, 62(%rsp)
	je	.L319
	movq	64(%rsp), %rax
	movq	%rax, 64+__gcov0._ZNK8Polyfish8Position14has_game_cycleEi(%rip)
.L319:
	cmpb	$0, 63(%rsp)
	je	.L320
	movq	72(%rsp), %rax
	movq	%rax, 56+__gcov0._ZNK8Polyfish8Position14has_game_cycleEi(%rip)
.L320:
	cmpb	$0, 59(%rsp)
	je	.L321
	movq	%r12, 40+__gcov0._ZNK8Polyfish8Position14has_game_cycleEi(%rip)
.L321:
	cmpb	$0, 60(%rsp)
	je	.L322
	movq	40(%rsp), %rax
	movq	%rax, 32+__gcov0._ZNK8Polyfish8Position14has_game_cycleEi(%rip)
.L322:
	testb	%bpl, %bpl
	je	.L323
	movq	%r11, 24+__gcov0._ZNK8Polyfish8Position14has_game_cycleEi(%rip)
.L323:
	xorl	%eax, %eax
	jmp	.L293
	.p2align 4,,10
	.p2align 3
.L301:
	cmpl	%ecx, 168(%rsp)
	jg	.L382
	movl	(%rbx,%r9,4), %edx
	testl	%edx, %edx
	jne	.L309
	movl	(%rbx,%rax,4), %edx
.L310:
	sarl	$3, %edx
	cmpl	%edx, 868(%rbx)
	je	.L311
	addq	$1, 64(%rsp)
	movb	$1, 62(%rsp)
	jmp	.L300
	.p2align 4,,10
	.p2align 3
.L379:
	addq	$1, 40(%rsp)
	movb	$1, 60(%rsp)
	jmp	.L299
	.p2align 4,,10
	.p2align 3
.L311:
	movl	164(%r8), %eax
	addq	$1, 48(%rsp)
	testl	%eax, %eax
	jne	.L383
	movb	$1, 61(%rsp)
	jmp	.L300
	.p2align 4,,10
	.p2align 3
.L309:
	addq	$1, 72(%rsp)
	movb	$1, 63(%rsp)
	jmp	.L310
	.p2align 4,,10
	.p2align 3
.L378:
	addq	$1, 8+__gcov0._ZNK8Polyfish8Position14has_game_cycleEi(%rip)
	xorl	%eax, %eax
.L293:
	addq	$88, %rsp
	popq	%rbx
	popq	%rsi
	popq	%rdi
	popq	%rbp
	popq	%r12
	popq	%r13
	popq	%r14
	popq	%r15
	ret
.L382:
	cmpb	$0, 61(%rsp)
	movq	32(%rsp), %r12
	je	.L303
	movq	48(%rsp), %rax
	movq	%rax, 72+__gcov0._ZNK8Polyfish8Position14has_game_cycleEi(%rip)
.L303:
	cmpb	$0, 62(%rsp)
	je	.L304
	movq	64(%rsp), %rax
	movq	%rax, 64+__gcov0._ZNK8Polyfish8Position14has_game_cycleEi(%rip)
.L304:
	cmpb	$0, 63(%rsp)
	je	.L305
	movq	72(%rsp), %rax
	movq	%rax, 56+__gcov0._ZNK8Polyfish8Position14has_game_cycleEi(%rip)
.L305:
	cmpb	$0, 59(%rsp)
	je	.L306
	movq	%r12, 40+__gcov0._ZNK8Polyfish8Position14has_game_cycleEi(%rip)
.L306:
	cmpb	$0, 60(%rsp)
	je	.L307
	movq	40(%rsp), %rax
	movq	%rax, 32+__gcov0._ZNK8Polyfish8Position14has_game_cycleEi(%rip)
.L307:
	testb	%bpl, %bpl
	je	.L308
	movq	%r11, 24+__gcov0._ZNK8Polyfish8Position14has_game_cycleEi(%rip)
.L308:
	addq	$1, 48+__gcov0._ZNK8Polyfish8Position14has_game_cycleEi(%rip)
	movl	$1, %eax
	jmp	.L293
.L383:
	movq	48(%rsp), %rax
	cmpb	$0, 62(%rsp)
	movq	32(%rsp), %r12
	movq	%rax, 72+__gcov0._ZNK8Polyfish8Position14has_game_cycleEi(%rip)
	je	.L312
	movq	64(%rsp), %rax
	movq	%rax, 64+__gcov0._ZNK8Polyfish8Position14has_game_cycleEi(%rip)
.L312:
	cmpb	$0, 63(%rsp)
	je	.L313
	movq	72(%rsp), %rax
	movq	%rax, 56+__gcov0._ZNK8Polyfish8Position14has_game_cycleEi(%rip)
.L313:
	cmpb	$0, 59(%rsp)
	je	.L314
	movq	%r12, 40+__gcov0._ZNK8Polyfish8Position14has_game_cycleEi(%rip)
.L314:
	cmpb	$0, 60(%rsp)
	je	.L315
	movq	40(%rsp), %rax
	movq	%rax, 32+__gcov0._ZNK8Polyfish8Position14has_game_cycleEi(%rip)
.L315:
	testb	%bpl, %bpl
	je	.L316
	movq	%r11, 24+__gcov0._ZNK8Polyfish8Position14has_game_cycleEi(%rip)
.L316:
	addq	$1, 80+__gcov0._ZNK8Polyfish8Position14has_game_cycleEi(%rip)
	movl	$1, %eax
	jmp	.L293
	.seh_endproc
	.align 2
	.p2align 4
	.def	_ZN8Polyfish8Position11do_castlingILb1EEEvNS_5ColorENS_6SquareERS3_S4_S4_;	.scl	3;	.type	32;	.endef
	.seh_proc	_ZN8Polyfish8Position11do_castlingILb1EEEvNS_5ColorENS_6SquareERS3_S4_S4_
_ZN8Polyfish8Position11do_castlingILb1EEEvNS_5ColorENS_6SquareERS3_S4_S4_:
	pushq	%r15
	.seh_pushreg	%r15
	pushq	%r14
	.seh_pushreg	%r14
	pushq	%r13
	.seh_pushreg	%r13
	pushq	%r12
	.seh_pushreg	%r12
	pushq	%rbp
	.seh_pushreg	%rbp
	pushq	%rdi
	.seh_pushreg	%rdi
	pushq	%rsi
	.seh_pushreg	%rsi
	pushq	%rbx
	.seh_pushreg	%rbx
	subq	$56, %rsp
	.seh_stackalloc	56
	.seh_endprologue
	movq	.refptr.__gcov_indirect_call(%rip), %rax
	movq	168(%rsp), %r10
	movq	%rcx, %rbx
	movq	(%rax), %rcx
	movl	%edx, %ebp
	movl	%r8d, %r12d
	movq	%r9, %r14
	testq	%rcx, %rcx
	jne	.L415
.L385:
	addq	$1, __gcov0._ZN8Polyfish8Position11do_castlingILb1EEEvNS_5ColorENS_6SquareERS3_S4_S4_(%rip)
	cmpq	$0, __gcov7._ZN8Polyfish8Position11do_castlingILb1EEEvNS_5ColorENS_6SquareERS3_S4_S4_(%rip)
	je	.L416
.L386:
	movl	(%r14), %eax
	movq	160(%rsp), %rsi
	imull	$56, %ebp, %edx
	movl	%eax, (%rsi)
	cmpl	%r12d, %eax
	jg	.L387
	addq	$1, 8+__gcov0._ZN8Polyfish8Position11do_castlingILb1EEEvNS_5ColorENS_6SquareERS3_S4_S4_(%rip)
	movl	%edx, %r8d
	movl	$2, %eax
	addq	$1, 16+__gcov0._ZN8Polyfish8Position11do_castlingILb1EEEvNS_5ColorENS_6SquareERS3_S4_S4_(%rip)
	xorl	$3, %r8d
.L397:
	xorl	%edx, %eax
	movl	%r8d, (%r10)
	sall	$3, %ebp
	movl	%eax, (%r14)
	movq	.refptr._ZN8Polyfish4Eval7useNNUEE(%rip), %rax
	leal	4(%rbp), %esi
	leal	6(%rbp), %edi
	cmpb	$0, (%rax)
	je	.L388
	movq	856(%rbx), %rax
	addq	$1, 24+__gcov0._ZN8Polyfish8Position11do_castlingILb1EEEvNS_5ColorENS_6SquareERS3_S4_S4_(%rip)
	movl	%edi, 4420(%rax)
	movl	%r12d, 4432(%rax)
	movl	(%r14), %edx
	movl	%esi, 4424(%rax)
	movl	%edx, 4444(%rax)
	movq	160(%rsp), %rdx
	movl	(%rdx), %edx
	movl	%edx, 4436(%rax)
	movl	(%r10), %edx
	movl	$2, 4416(%rax)
	movl	%edx, 4448(%rax)
.L388:
	testq	%rcx, %rcx
	jne	.L417
.L389:
	movq	__gcov0._ZN8Polyfish8Position12remove_pieceENS_6SquareE.lto_priv.0(%rip), %rax
	movq	__gcov7._ZN8Polyfish8Position12remove_pieceENS_6SquareE.lto_priv.0(%rip), %r11
	leaq	1(%rax), %rdx
	movq	%rdx, __gcov0._ZN8Polyfish8Position12remove_pieceENS_6SquareE.lto_priv.0(%rip)
	testq	%r11, %r11
	je	.L418
.L390:
	movslq	%r12d, %r8
	movq	.refptr._ZN8Polyfish8SquareBBE(%rip), %r12
	addq	$1, 32+__gcov0._ZN8Polyfish8Position11do_castlingILb1EEEvNS_5ColorENS_6SquareERS3_S4_S4_(%rip)
	leaq	(%rbx,%r8,4), %r9
	movl	(%r9), %r15d
	movq	(%r12,%r8,8), %rax
	xorq	%rax, 256(%rbx)
	movq	(%r12,%r8,8), %r13
	movl	%r15d, %eax
	andl	$7, %eax
	xorq	%r13, 256(%rbx,%rax,8)
	movl	%r15d, %eax
	movq	(%r12,%r8,8), %r13
	sarl	$3, %eax
	cltq
	xorq	%r13, 320(%rbx,%rax,8)
	movslq	%r15d, %rax
	andl	$-8, %r15d
	movl	$0, (%r9)
	movslq	%r15d, %r15
	subl	$1, 336(%rbx,%rax,4)
	salq	$6, %rax
	subl	$1, 336(%rbx,%r15,4)
	addq	%r8, %rax
	leaq	_ZN8Polyfish4PSQT3psqE(%rip), %r15
	movl	872(%rbx), %r8d
	subl	(%r15,%rax,4), %r8d
	movl	%r8d, 872(%rbx)
	movl	%r8d, %eax
	movq	160(%rsp), %r8
	movslq	(%r8), %r13
	testq	%rcx, %rcx
	jne	.L419
	addq	$1, %rdx
	movq	%rdx, __gcov0._ZN8Polyfish8Position12remove_pieceENS_6SquareE.lto_priv.0(%rip)
	testq	%r11, %r11
	je	.L420
.L392:
	movl	(%rbx,%r13,4), %edx
	movq	(%r12,%r13,8), %r8
	xorq	%r8, 256(%rbx)
	movq	(%r12,%r13,8), %r11
	movl	%edx, %r8d
	addq	$1, 40+__gcov0._ZN8Polyfish8Position11do_castlingILb1EEEvNS_5ColorENS_6SquareERS3_S4_S4_(%rip)
	andl	$7, %r8d
	xorq	%r11, 256(%rbx,%r8,8)
	movl	%edx, %r8d
	movq	(%r12,%r13,8), %r11
	sarl	$3, %r8d
	movslq	%r8d, %r8
	xorq	%r11, 320(%rbx,%r8,8)
	movslq	%edx, %r8
	andl	$-8, %edx
	movl	$0, (%rbx,%r13,4)
	movslq	%edx, %rdx
	subl	$1, 336(%rbx,%r8,4)
	salq	$6, %r8
	addq	%r13, %r8
	subl	$1, 336(%rbx,%rdx,4)
	subl	(%r15,%r8,4), %eax
	movl	%eax, 872(%rbx)
	movl	$0, (%r9)
	movl	(%r14), %r13d
	testq	%rcx, %rcx
	jne	.L421
.L393:
	movq	__gcov0._ZN8Polyfish8Position9put_pieceENS_5PieceENS_6SquareE.lto_priv.0(%rip), %rdx
	movq	__gcov7._ZN8Polyfish8Position9put_pieceENS_5PieceENS_6SquareE.lto_priv.0(%rip), %r9
	leaq	1(%rdx), %r8
	movq	%r8, __gcov0._ZN8Polyfish8Position9put_pieceENS_5PieceENS_6SquareE.lto_priv.0(%rip)
	testq	%r9, %r9
	je	.L422
.L394:
	movslq	%r13d, %r11
	movl	%edi, %r13d
	movslq	%ebp, %rbp
	addq	$1, 48+__gcov0._ZN8Polyfish8Position11do_castlingILb1EEEvNS_5ColorENS_6SquareERS3_S4_S4_(%rip)
	movq	(%r12,%r11,8), %rdx
	sarl	$3, %r13d
	movl	%edi, (%rbx,%r11,4)
	leaq	(%rbx,%rbp,4), %rbp
	orq	304(%rbx), %rdx
	movslq	%r13d, %r13
	movq	%rdx, 304(%rbx)
	orq	256(%rbx), %rdx
	movq	(%r12,%r11,8), %r14
	movq	%rdx, 256(%rbx)
	orq	%r14, 320(%rbx,%r13,8)
	movl	%edi, %r13d
	movslq	%edi, %rdi
	andl	$-8, %r13d
	salq	$6, %rdi
	addl	$1, 360(%rbp)
	addq	%r11, %rdi
	movslq	%r13d, %r13
	addl	$1, 336(%rbx,%r13,4)
	addl	(%r15,%rdi,4), %eax
	movl	%eax, 872(%rbx)
	movl	(%r10), %edi
	testq	%rcx, %rcx
	jne	.L423
	addq	$1, %r8
	movq	%r8, __gcov0._ZN8Polyfish8Position9put_pieceENS_5PieceENS_6SquareE.lto_priv.0(%rip)
	testq	%r9, %r9
	je	.L424
.L396:
	movslq	%edi, %rcx
	addq	$1, 56+__gcov0._ZN8Polyfish8Position11do_castlingILb1EEEvNS_5ColorENS_6SquareERS3_S4_S4_(%rip)
	movq	(%r12,%rcx,8), %r8
	orq	288(%rbx), %r8
	movl	%esi, (%rbx,%rcx,4)
	movq	%r8, 288(%rbx)
	orq	%rdx, %r8
	movl	%esi, %edx
	sarl	$3, %edx
	movq	%r8, 256(%rbx)
	movq	(%r12,%rcx,8), %r8
	movslq	%edx, %rdx
	orq	%r8, 320(%rbx,%rdx,8)
	movl	%esi, %edx
	movslq	%esi, %rsi
	andl	$-8, %edx
	addl	$1, 352(%rbp)
	salq	$6, %rsi
	movslq	%edx, %rdx
	addq	%rcx, %rsi
	addl	$1, 336(%rbx,%rdx,4)
	addl	(%r15,%rsi,4), %eax
	movl	%eax, 872(%rbx)
	addq	$56, %rsp
	popq	%rbx
	popq	%rsi
	popq	%rdi
	popq	%rbp
	popq	%r12
	popq	%r13
	popq	%r14
	popq	%r15
	ret
	.p2align 4,,10
	.p2align 3
.L387:
	movl	%edx, %r8d
	movl	$6, %eax
	xorl	$5, %r8d
	jmp	.L397
	.p2align 4,,10
	.p2align 3
.L415:
	movl	$1809112579, %ecx
	leaq	_ZN8Polyfish8Position11do_castlingILb1EEEvNS_5ColorENS_6SquareERS3_S4_S4_(%rip), %rdx
	call	__gcov_indirect_call_profiler_v4
	movq	.refptr.__gcov_indirect_call(%rip), %rax
	movq	168(%rsp), %r10
	movq	(%rax), %rcx
	jmp	.L385
	.p2align 4,,10
	.p2align 3
.L416:
	movq	.refptr.__gcov_time_profiler_counter(%rip), %rdx
	movq	(%rdx), %rax
	addq	$1, %rax
	movq	%rax, __gcov7._ZN8Polyfish8Position11do_castlingILb1EEEvNS_5ColorENS_6SquareERS3_S4_S4_(%rip)
	movq	%rax, (%rdx)
	jmp	.L386
	.p2align 4,,10
	.p2align 3
.L417:
	movl	$1627328305, %ecx
	leaq	_ZN8Polyfish8Position12remove_pieceENS_6SquareE(%rip), %rdx
	movq	%r10, 168(%rsp)
	call	__gcov_indirect_call_profiler_v4
	movq	.refptr.__gcov_indirect_call(%rip), %rax
	movq	168(%rsp), %r10
	movq	(%rax), %rcx
	jmp	.L389
	.p2align 4,,10
	.p2align 3
.L418:
	movq	.refptr.__gcov_time_profiler_counter(%rip), %rax
	movq	(%rax), %r9
	leaq	1(%r9), %r11
	movq	%r11, __gcov7._ZN8Polyfish8Position12remove_pieceENS_6SquareE.lto_priv.0(%rip)
	movq	%r11, (%rax)
	jmp	.L390
	.p2align 4,,10
	.p2align 3
.L419:
	leaq	_ZN8Polyfish8Position12remove_pieceENS_6SquareE(%rip), %rdx
	movl	$1627328305, %ecx
	movq	%r9, 40(%rsp)
	movq	%r10, 168(%rsp)
	call	__gcov_indirect_call_profiler_v4
	movq	__gcov0._ZN8Polyfish8Position12remove_pieceENS_6SquareE.lto_priv.0(%rip), %rdx
	movq	.refptr.__gcov_indirect_call(%rip), %rax
	movq	__gcov7._ZN8Polyfish8Position12remove_pieceENS_6SquareE.lto_priv.0(%rip), %r11
	movq	168(%rsp), %r10
	addq	$1, %rdx
	movq	(%rax), %rcx
	movq	40(%rsp), %r9
	movq	%rdx, __gcov0._ZN8Polyfish8Position12remove_pieceENS_6SquareE.lto_priv.0(%rip)
	movl	872(%rbx), %eax
	testq	%r11, %r11
	jne	.L392
	.p2align 4,,10
	.p2align 3
.L420:
	movq	.refptr.__gcov_time_profiler_counter(%rip), %r8
	movq	(%r8), %rdx
	addq	$1, %rdx
	movq	%rdx, __gcov7._ZN8Polyfish8Position12remove_pieceENS_6SquareE.lto_priv.0(%rip)
	movq	%rdx, (%r8)
	jmp	.L392
	.p2align 4,,10
	.p2align 3
.L421:
	movl	$879297383, %ecx
	leaq	_ZN8Polyfish8Position9put_pieceENS_5PieceENS_6SquareE(%rip), %rdx
	movq	%r10, 168(%rsp)
	call	__gcov_indirect_call_profiler_v4
	movq	.refptr.__gcov_indirect_call(%rip), %rax
	movq	168(%rsp), %r10
	movq	(%rax), %rcx
	movl	872(%rbx), %eax
	jmp	.L393
	.p2align 4,,10
	.p2align 3
.L422:
	movq	.refptr.__gcov_time_profiler_counter(%rip), %rdx
	movq	(%rdx), %r14
	leaq	1(%r14), %r9
	movq	%r9, __gcov7._ZN8Polyfish8Position9put_pieceENS_5PieceENS_6SquareE.lto_priv.0(%rip)
	movq	%r9, (%rdx)
	jmp	.L394
	.p2align 4,,10
	.p2align 3
.L423:
	leaq	_ZN8Polyfish8Position9put_pieceENS_5PieceENS_6SquareE(%rip), %rdx
	movl	$879297383, %ecx
	call	__gcov_indirect_call_profiler_v4
	movq	__gcov0._ZN8Polyfish8Position9put_pieceENS_5PieceENS_6SquareE.lto_priv.0(%rip), %r8
	movq	__gcov7._ZN8Polyfish8Position9put_pieceENS_5PieceENS_6SquareE.lto_priv.0(%rip), %r9
	movq	256(%rbx), %rdx
	movl	872(%rbx), %eax
	addq	$1, %r8
	movq	%r8, __gcov0._ZN8Polyfish8Position9put_pieceENS_5PieceENS_6SquareE.lto_priv.0(%rip)
	testq	%r9, %r9
	jne	.L396
	.p2align 4,,10
	.p2align 3
.L424:
	movq	.refptr.__gcov_time_profiler_counter(%rip), %r8
	movq	(%r8), %rcx
	addq	$1, %rcx
	movq	%rcx, __gcov7._ZN8Polyfish8Position9put_pieceENS_5PieceENS_6SquareE.lto_priv.0(%rip)
	movq	%rcx, (%r8)
	jmp	.L396
	.seh_endproc
	.align 2
	.p2align 4
	.def	_ZN8Polyfish8Position11do_castlingILb0EEEvNS_5ColorENS_6SquareERS3_S4_S4_;	.scl	3;	.type	32;	.endef
	.seh_proc	_ZN8Polyfish8Position11do_castlingILb0EEEvNS_5ColorENS_6SquareERS3_S4_S4_
_ZN8Polyfish8Position11do_castlingILb0EEEvNS_5ColorENS_6SquareERS3_S4_S4_:
	pushq	%r15
	.seh_pushreg	%r15
	pushq	%r14
	.seh_pushreg	%r14
	pushq	%r13
	.seh_pushreg	%r13
	pushq	%r12
	.seh_pushreg	%r12
	pushq	%rbp
	.seh_pushreg	%rbp
	pushq	%rdi
	.seh_pushreg	%rdi
	pushq	%rsi
	.seh_pushreg	%rsi
	pushq	%rbx
	.seh_pushreg	%rbx
	subq	$56, %rsp
	.seh_stackalloc	56
	.seh_endprologue
	movq	.refptr.__gcov_indirect_call(%rip), %r14
	movq	(%r14), %r10
	movq	160(%rsp), %r12
	movslq	%r8d, %r15
	movq	%rcx, %rbx
	movq	168(%rsp), %r8
	movl	%edx, %esi
	movq	%r9, %rbp
	testq	%r10, %r10
	jne	.L455
.L426:
	addq	$1, __gcov0._ZN8Polyfish8Position11do_castlingILb0EEEvNS_5ColorENS_6SquareERS3_S4_S4_(%rip)
	cmpq	$0, __gcov7._ZN8Polyfish8Position11do_castlingILb0EEEvNS_5ColorENS_6SquareERS3_S4_S4_(%rip)
	je	.L456
.L427:
	movl	0(%rbp), %eax
	imull	$56, %esi, %edx
	movl	%eax, (%r12)
	cmpl	%r15d, %eax
	jg	.L428
	movl	%edx, %ecx
	movl	$2, %eax
	addq	$1, 8+__gcov0._ZN8Polyfish8Position11do_castlingILb0EEEvNS_5ColorENS_6SquareERS3_S4_S4_(%rip)
	xorl	%edx, %eax
	xorl	$3, %ecx
	addq	$1, 16+__gcov0._ZN8Polyfish8Position11do_castlingILb0EEEvNS_5ColorENS_6SquareERS3_S4_S4_(%rip)
	movl	%ecx, (%r8)
	movl	%eax, %edi
	movl	%eax, 0(%rbp)
	testq	%r10, %r10
	jne	.L457
.L429:
	movq	__gcov0._ZN8Polyfish8Position12remove_pieceENS_6SquareE.lto_priv.0(%rip), %rax
	movq	__gcov7._ZN8Polyfish8Position12remove_pieceENS_6SquareE.lto_priv.0(%rip), %r9
	leaq	1(%rax), %rcx
	movq	%rcx, __gcov0._ZN8Polyfish8Position12remove_pieceENS_6SquareE.lto_priv.0(%rip)
	testq	%r9, %r9
	je	.L458
.L430:
	movslq	%edi, %rax
	movq	.refptr._ZN8Polyfish8SquareBBE(%rip), %rdi
	addq	$1, 24+__gcov0._ZN8Polyfish8Position11do_castlingILb0EEEvNS_5ColorENS_6SquareERS3_S4_S4_(%rip)
	leaq	(%rbx,%rax,4), %rbp
	movl	0(%rbp), %edx
	movq	(%rdi,%rax,8), %r11
	xorq	%r11, 256(%rbx)
	movq	(%rdi,%rax,8), %r13
	movl	%edx, %r11d
	andl	$7, %r11d
	xorq	%r13, 256(%rbx,%r11,8)
	movl	%edx, %r11d
	movq	(%rdi,%rax,8), %r13
	sarl	$3, %r11d
	movslq	%r11d, %r11
	xorq	%r13, 320(%rbx,%r11,8)
	movslq	%edx, %r11
	andl	$-8, %edx
	movl	$0, 0(%rbp)
	movslq	%edx, %rdx
	leaq	_ZN8Polyfish4PSQT3psqE(%rip), %r13
	subl	$1, 336(%rbx,%r11,4)
	salq	$6, %r11
	addq	%rax, %r11
	subl	$1, 336(%rbx,%rdx,4)
	movl	872(%rbx), %eax
	subl	0(%r13,%r11,4), %eax
	movl	%eax, 872(%rbx)
	movl	(%r8), %r8d
	testq	%r10, %r10
	jne	.L459
	addq	$1, %rcx
	movq	%rcx, __gcov0._ZN8Polyfish8Position12remove_pieceENS_6SquareE.lto_priv.0(%rip)
	testq	%r9, %r9
	je	.L460
.L432:
	movslq	%r8d, %rcx
	sall	$3, %esi
	addq	$1, 32+__gcov0._ZN8Polyfish8Position11do_castlingILb0EEEvNS_5ColorENS_6SquareERS3_S4_S4_(%rip)
	movl	(%rbx,%rcx,4), %edx
	movq	(%rdi,%rcx,8), %r8
	xorq	%r8, 256(%rbx)
	movq	(%rdi,%rcx,8), %r9
	movl	%edx, %r8d
	andl	$7, %r8d
	xorq	%r9, 256(%rbx,%r8,8)
	movl	%edx, %r8d
	movq	(%rdi,%rcx,8), %r9
	sarl	$3, %r8d
	movslq	%r8d, %r8
	xorq	%r9, 320(%rbx,%r8,8)
	movslq	%edx, %r8
	andl	$-8, %edx
	movl	$0, (%rbx,%rcx,4)
	movslq	%edx, %rdx
	subl	$1, 336(%rbx,%r8,4)
	salq	$6, %r8
	addq	%rcx, %r8
	subl	$1, 336(%rbx,%rdx,4)
	subl	0(%r13,%r8,4), %eax
	movl	%eax, 872(%rbx)
	movl	$0, 0(%rbp)
	leal	6(%rsi), %ebp
	testq	%r10, %r10
	jne	.L461
.L433:
	movq	__gcov0._ZN8Polyfish8Position9put_pieceENS_5PieceENS_6SquareE.lto_priv.0(%rip), %rcx
	movq	__gcov7._ZN8Polyfish8Position9put_pieceENS_5PieceENS_6SquareE.lto_priv.0(%rip), %r9
	addq	$1, %rcx
	movq	%rcx, __gcov0._ZN8Polyfish8Position9put_pieceENS_5PieceENS_6SquareE.lto_priv.0(%rip)
	testq	%r9, %r9
	je	.L462
.L434:
	movl	%ebp, %r8d
	movq	(%rdi,%r15,8), %rdx
	orq	304(%rbx), %rdx
	movl	%ebp, (%rbx,%r15,4)
	sarl	$3, %r8d
	movq	%rdx, 304(%rbx)
	orq	256(%rbx), %rdx
	movslq	%r8d, %r8
	movq	(%rdi,%r15,8), %r11
	movq	%rdx, 256(%rbx)
	orq	%r11, 320(%rbx,%r8,8)
	movslq	%esi, %r8
	addl	$4, %esi
	leaq	(%rbx,%r8,4), %r14
	movl	%ebp, %r8d
	movslq	%ebp, %rbp
	addq	$1, 40+__gcov0._ZN8Polyfish8Position11do_castlingILb0EEEvNS_5ColorENS_6SquareERS3_S4_S4_(%rip)
	andl	$-8, %r8d
	salq	$6, %rbp
	addl	$1, 360(%r14)
	addq	%r15, %rbp
	movslq	%r8d, %r8
	addl	$1, 336(%rbx,%r8,4)
	addl	0(%r13,%rbp,4), %eax
	movl	%eax, 872(%rbx)
	movl	(%r12), %ebp
	testq	%r10, %r10
	jne	.L463
	addq	$1, %rcx
	movq	%rcx, __gcov0._ZN8Polyfish8Position9put_pieceENS_5PieceENS_6SquareE.lto_priv.0(%rip)
	testq	%r9, %r9
	je	.L464
.L436:
	movslq	%ebp, %rcx
	addq	$1, 48+__gcov0._ZN8Polyfish8Position11do_castlingILb0EEEvNS_5ColorENS_6SquareERS3_S4_S4_(%rip)
	movq	(%rdi,%rcx,8), %r8
	orq	288(%rbx), %r8
	movl	%esi, (%rbx,%rcx,4)
	movq	%r8, 288(%rbx)
	orq	%rdx, %r8
	movl	%esi, %edx
	sarl	$3, %edx
	movq	%r8, 256(%rbx)
	movq	(%rdi,%rcx,8), %r8
	movslq	%edx, %rdx
	orq	%r8, 320(%rbx,%rdx,8)
	movl	%esi, %edx
	movslq	%esi, %rsi
	andl	$-8, %edx
	addl	$1, 352(%r14)
	salq	$6, %rsi
	movslq	%edx, %rdx
	addq	%rcx, %rsi
	addl	$1, 336(%rbx,%rdx,4)
	addl	0(%r13,%rsi,4), %eax
	movl	%eax, 872(%rbx)
	addq	$56, %rsp
	popq	%rbx
	popq	%rsi
	popq	%rdi
	popq	%rbp
	popq	%r12
	popq	%r13
	popq	%r14
	popq	%r15
	ret
	.p2align 4,,10
	.p2align 3
.L428:
	movl	%edx, %ecx
	movl	$6, %eax
	xorl	%edx, %eax
	xorl	$5, %ecx
	movl	%ecx, (%r8)
	movl	%eax, %edi
	movl	%eax, 0(%rbp)
	testq	%r10, %r10
	je	.L429
.L457:
	leaq	_ZN8Polyfish8Position12remove_pieceENS_6SquareE(%rip), %rdx
	movl	$1627328305, %ecx
	movq	%r8, 168(%rsp)
	call	__gcov_indirect_call_profiler_v4
	movq	(%r14), %r10
	movq	168(%rsp), %r8
	jmp	.L429
	.p2align 4,,10
	.p2align 3
.L455:
	leaq	_ZN8Polyfish8Position11do_castlingILb0EEEvNS_5ColorENS_6SquareERS3_S4_S4_(%rip), %rdx
	movl	$1027858150, %ecx
	call	__gcov_indirect_call_profiler_v4
	movq	(%r14), %r10
	movq	168(%rsp), %r8
	jmp	.L426
	.p2align 4,,10
	.p2align 3
.L456:
	movq	.refptr.__gcov_time_profiler_counter(%rip), %rdx
	movq	(%rdx), %rax
	addq	$1, %rax
	movq	%rax, __gcov7._ZN8Polyfish8Position11do_castlingILb0EEEvNS_5ColorENS_6SquareERS3_S4_S4_(%rip)
	movq	%rax, (%rdx)
	jmp	.L427
	.p2align 4,,10
	.p2align 3
.L458:
	movq	.refptr.__gcov_time_profiler_counter(%rip), %rax
	movq	(%rax), %rdx
	leaq	1(%rdx), %r9
	movq	%r9, __gcov7._ZN8Polyfish8Position12remove_pieceENS_6SquareE.lto_priv.0(%rip)
	movq	%r9, (%rax)
	jmp	.L430
	.p2align 4,,10
	.p2align 3
.L459:
	movl	$1627328305, %ecx
	leaq	_ZN8Polyfish8Position12remove_pieceENS_6SquareE(%rip), %rdx
	movl	%r8d, 44(%rsp)
	call	__gcov_indirect_call_profiler_v4
	movq	__gcov0._ZN8Polyfish8Position12remove_pieceENS_6SquareE.lto_priv.0(%rip), %rcx
	movq	(%r14), %r10
	movq	__gcov7._ZN8Polyfish8Position12remove_pieceENS_6SquareE.lto_priv.0(%rip), %r9
	movl	872(%rbx), %eax
	addq	$1, %rcx
	movl	44(%rsp), %r8d
	movq	%rcx, __gcov0._ZN8Polyfish8Position12remove_pieceENS_6SquareE.lto_priv.0(%rip)
	testq	%r9, %r9
	jne	.L432
	.p2align 4,,10
	.p2align 3
.L460:
	movq	.refptr.__gcov_time_profiler_counter(%rip), %rcx
	movq	(%rcx), %rdx
	addq	$1, %rdx
	movq	%rdx, __gcov7._ZN8Polyfish8Position12remove_pieceENS_6SquareE.lto_priv.0(%rip)
	movq	%rdx, (%rcx)
	jmp	.L432
	.p2align 4,,10
	.p2align 3
.L461:
	leaq	_ZN8Polyfish8Position9put_pieceENS_5PieceENS_6SquareE(%rip), %rdx
	movl	$879297383, %ecx
	call	__gcov_indirect_call_profiler_v4
	movq	(%r14), %r10
	movl	872(%rbx), %eax
	jmp	.L433
	.p2align 4,,10
	.p2align 3
.L462:
	movq	.refptr.__gcov_time_profiler_counter(%rip), %rdx
	movq	(%rdx), %r14
	leaq	1(%r14), %r9
	movq	%r9, __gcov7._ZN8Polyfish8Position9put_pieceENS_5PieceENS_6SquareE.lto_priv.0(%rip)
	movq	%r9, (%rdx)
	jmp	.L434
	.p2align 4,,10
	.p2align 3
.L463:
	leaq	_ZN8Polyfish8Position9put_pieceENS_5PieceENS_6SquareE(%rip), %rdx
	movl	$879297383, %ecx
	call	__gcov_indirect_call_profiler_v4
	movq	__gcov0._ZN8Polyfish8Position9put_pieceENS_5PieceENS_6SquareE.lto_priv.0(%rip), %rcx
	movq	__gcov7._ZN8Polyfish8Position9put_pieceENS_5PieceENS_6SquareE.lto_priv.0(%rip), %r9
	movq	256(%rbx), %rdx
	movl	872(%rbx), %eax
	addq	$1, %rcx
	movq	%rcx, __gcov0._ZN8Polyfish8Position9put_pieceENS_5PieceENS_6SquareE.lto_priv.0(%rip)
	testq	%r9, %r9
	jne	.L436
	.p2align 4,,10
	.p2align 3
.L464:
	movq	.refptr.__gcov_time_profiler_counter(%rip), %r8
	movq	(%r8), %rcx
	addq	$1, %rcx
	movq	%rcx, __gcov7._ZN8Polyfish8Position9put_pieceENS_5PieceENS_6SquareE.lto_priv.0(%rip)
	movq	%rcx, (%r8)
	jmp	.L436
	.seh_endproc
	.align 2
	.p2align 4
	.globl	_ZN8Polyfish8Position9undo_moveENS_4MoveE
	.def	_ZN8Polyfish8Position9undo_moveENS_4MoveE;	.scl	2;	.type	32;	.endef
	.seh_proc	_ZN8Polyfish8Position9undo_moveENS_4MoveE
_ZN8Polyfish8Position9undo_moveENS_4MoveE:
	pushq	%r15
	.seh_pushreg	%r15
	pushq	%r14
	.seh_pushreg	%r14
	pushq	%r13
	.seh_pushreg	%r13
	pushq	%r12
	.seh_pushreg	%r12
	pushq	%rbp
	.seh_pushreg	%rbp
	pushq	%rdi
	.seh_pushreg	%rdi
	pushq	%rsi
	.seh_pushreg	%rsi
	pushq	%rbx
	.seh_pushreg	%rbx
	subq	$88, %rsp
	.seh_stackalloc	88
	.seh_endprologue
	movq	.refptr.__gcov_indirect_call(%rip), %r12
	cmpq	$0, (%r12)
	movq	%rcx, %rbx
	movl	%edx, %edi
	jne	.L496
	cmpq	$0, __gcov7._ZN8Polyfish8Position9undo_moveENS_4MoveE(%rip)
	je	.L497
.L467:
	movl	868(%rbx), %r14d
	movl	%edi, %r8d
	movl	%edi, %r13d
	andl	$49152, %edi
	sarl	$6, %r8d
	andl	$63, %r13d
	movl	%r14d, %r10d
	movl	%r13d, 68(%rsp)
	andl	$63, %r8d
	xorl	$1, %r10d
	movl	%r10d, 868(%rbx)
	cmpl	$16384, %edi
	je	.L498
	cmpl	$49152, %edi
	je	.L499
	movq	(%r12), %rdx
	addq	$1, 32+__gcov0._ZN8Polyfish8Position9undo_moveENS_4MoveE(%rip)
	movslq	%r13d, %rsi
	leaq	_ZN8Polyfish4PSQT3psqE(%rip), %r15
	movq	.refptr._ZN8Polyfish8SquareBBE(%rip), %rbp
	testq	%rdx, %rdx
	jne	.L500
.L476:
	addq	$1, __gcov0._ZN8Polyfish8Position10move_pieceENS_6SquareES1_(%rip)
	cmpq	$0, __gcov7._ZN8Polyfish8Position10move_pieceENS_6SquareES1_(%rip)
	je	.L501
.L477:
	movslq	(%rbx,%rsi,4), %rax
	movslq	%r8d, %r8
	movq	0(%rbp,%rsi,8), %rdx
	orq	0(%rbp,%r8,8), %rdx
	xorq	%rdx, 256(%rbx)
	movl	%eax, %ecx
	addq	$1, 48+__gcov0._ZN8Polyfish8Position9undo_moveENS_4MoveE(%rip)
	andl	$7, %ecx
	xorq	%rdx, 256(%rbx,%rcx,8)
	movl	%eax, %ecx
	sarl	$3, %ecx
	movslq	%ecx, %rcx
	xorq	%rdx, 320(%rbx,%rcx,8)
	movl	$0, (%rbx,%rsi,4)
	movl	%eax, (%rbx,%r8,4)
	salq	$6, %rax
	addq	%rax, %r8
	addq	%rsi, %rax
	movl	(%r15,%r8,4), %edx
	subl	(%r15,%rax,4), %edx
	movl	872(%rbx), %eax
	addl	%edx, %eax
	movq	856(%rbx), %rdx
	movl	%eax, 872(%rbx)
	movl	160(%rdx), %r8d
	testl	%r8d, %r8d
	je	.L475
	addq	$1, 56+__gcov0._ZN8Polyfish8Position9undo_moveENS_4MoveE(%rip)
	cmpl	$32768, %edi
	je	.L502
.L478:
	cmpq	$0, (%r12)
	jne	.L503
.L480:
	addq	$1, __gcov0._ZN8Polyfish8Position9put_pieceENS_5PieceENS_6SquareE.lto_priv.0(%rip)
	cmpq	$0, __gcov7._ZN8Polyfish8Position9put_pieceENS_5PieceENS_6SquareE.lto_priv.0(%rip)
	je	.L504
.L481:
	movl	%r8d, %r9d
	movq	0(%rbp,%rsi,8), %rcx
	movl	%r8d, (%rbx,%rsi,4)
	andl	$7, %r9d
	addq	$1, 80+__gcov0._ZN8Polyfish8Position9undo_moveENS_4MoveE(%rip)
	orq	256(%rbx,%r9,8), %rcx
	movq	%rcx, 256(%rbx,%r9,8)
	movq	0(%rbp,%rsi,8), %r9
	orq	%rcx, 256(%rbx)
	movl	%r8d, %ecx
	sarl	$3, %ecx
	movslq	%ecx, %rcx
	orq	%r9, 320(%rbx,%rcx,8)
	movslq	%r8d, %rcx
	andl	$-8, %r8d
	addl	$1, 336(%rbx,%rcx,4)
	salq	$6, %rcx
	movslq	%r8d, %r8
	addl	$1, 336(%rbx,%r8,4)
	addq	%rsi, %rcx
	addl	(%r15,%rcx,4), %eax
	movl	%eax, 872(%rbx)
.L475:
	movq	56(%rdx), %rax
	subl	$1, 864(%rbx)
	movq	%rax, 856(%rbx)
	addq	$88, %rsp
	popq	%rbx
	popq	%rsi
	popq	%rdi
	popq	%rbp
	popq	%r12
	popq	%r13
	popq	%r14
	popq	%r15
	ret
	.p2align 4,,10
	.p2align 3
.L499:
	leaq	72(%rsp), %rax
	movl	%r10d, %edx
	leaq	68(%rsp), %r9
	movq	%rbx, %rcx
	movq	%rax, 40(%rsp)
	leaq	76(%rsp), %rax
	movq	%rax, 32(%rsp)
	addq	$1, 24+__gcov0._ZN8Polyfish8Position9undo_moveENS_4MoveE(%rip)
	call	_ZN8Polyfish8Position11do_castlingILb0EEEvNS_5ColorENS_6SquareERS3_S4_S4_
	addq	$1, 40+__gcov0._ZN8Polyfish8Position9undo_moveENS_4MoveE(%rip)
	movq	856(%rbx), %rdx
	jmp	.L475
	.p2align 4,,10
	.p2align 3
.L498:
	movq	(%r12), %rdx
	addq	$1, __gcov0._ZN8Polyfish8Position9undo_moveENS_4MoveE(%rip)
	testq	%rdx, %rdx
	jne	.L505
.L469:
	addq	$1, __gcov0._ZN8Polyfish8Position12remove_pieceENS_6SquareE.lto_priv.0(%rip)
	cmpq	$0, __gcov7._ZN8Polyfish8Position12remove_pieceENS_6SquareE.lto_priv.0(%rip)
	je	.L506
.L470:
	movslq	%r13d, %rsi
	movq	.refptr._ZN8Polyfish8SquareBBE(%rip), %rbp
	leaq	_ZN8Polyfish4PSQT3psqE(%rip), %r15
	addq	$1, 8+__gcov0._ZN8Polyfish8Position9undo_moveENS_4MoveE(%rip)
	leaq	(%rbx,%rsi,4), %r9
	movl	(%r9), %eax
	movq	0(%rbp,%rsi,8), %rcx
	xorq	%rcx, 256(%rbx)
	movq	0(%rbp,%rsi,8), %r11
	movl	%eax, %ecx
	andl	$7, %ecx
	xorq	%r11, 256(%rbx,%rcx,8)
	movl	%eax, %ecx
	movq	0(%rbp,%rsi,8), %r11
	sarl	$3, %ecx
	movslq	%ecx, %rcx
	xorq	%r11, 320(%rbx,%rcx,8)
	movslq	%eax, %rcx
	andl	$-8, %eax
	movl	$0, (%r9)
	cltq
	subl	$1, 336(%rbx,%rcx,4)
	salq	$6, %rcx
	subl	$1, 336(%rbx,%rax,4)
	leaq	(%rcx,%rsi), %rax
	movl	872(%rbx), %ecx
	subl	(%r15,%rax,4), %ecx
	leal	1(,%r10,8), %eax
	movl	%ecx, 872(%rbx)
	testq	%rdx, %rdx
	jne	.L507
.L471:
	addq	$1, __gcov0._ZN8Polyfish8Position9put_pieceENS_5PieceENS_6SquareE.lto_priv.0(%rip)
	cmpq	$0, __gcov7._ZN8Polyfish8Position9put_pieceENS_5PieceENS_6SquareE.lto_priv.0(%rip)
	je	.L508
.L472:
	movl	%eax, (%r9)
	movq	256(%rbx), %r11
	movq	0(%rbp,%rsi,8), %r9
	orq	264(%rbx), %r9
	orq	%r9, %r11
	addq	$1, 16+__gcov0._ZN8Polyfish8Position9undo_moveENS_4MoveE(%rip)
	vmovq	%r11, %xmm0
	addq	$1, 32+__gcov0._ZN8Polyfish8Position9undo_moveENS_4MoveE(%rip)
	vpinsrq	$1, %r9, %xmm0, %xmm0
	movl	%eax, %r9d
	sarl	$3, %r9d
	vmovdqu	%xmm0, 256(%rbx)
	movq	0(%rbp,%rsi,8), %r10
	movslq	%r9d, %r9
	orq	%r10, 320(%rbx,%r9,8)
	movslq	%eax, %r9
	andl	$-8, %eax
	addl	$1, 336(%rbx,%r9,4)
	salq	$6, %r9
	cltq
	addq	%rsi, %r9
	addl	$1, 336(%rbx,%rax,4)
	addl	(%r15,%r9,4), %ecx
	movl	%ecx, 872(%rbx)
	testq	%rdx, %rdx
	je	.L476
.L500:
	leaq	_ZN8Polyfish8Position10move_pieceENS_6SquareES1_(%rip), %rdx
	movl	$1792915657, %ecx
	movl	%r8d, 48(%rsp)
	call	__gcov_indirect_call_profiler_v4
	movl	48(%rsp), %r8d
	jmp	.L476
	.p2align 4,,10
	.p2align 3
.L496:
	leaq	_ZN8Polyfish8Position9undo_moveENS_4MoveE(%rip), %rdx
	movl	$84971754, %ecx
	call	__gcov_indirect_call_profiler_v4
	cmpq	$0, __gcov7._ZN8Polyfish8Position9undo_moveENS_4MoveE(%rip)
	jne	.L467
	.p2align 4,,10
	.p2align 3
.L497:
	movq	.refptr.__gcov_time_profiler_counter(%rip), %rdx
	movq	(%rdx), %rax
	addq	$1, %rax
	movq	%rax, __gcov7._ZN8Polyfish8Position9undo_moveENS_4MoveE(%rip)
	movq	%rax, (%rdx)
	jmp	.L467
	.p2align 4,,10
	.p2align 3
.L501:
	movq	.refptr.__gcov_time_profiler_counter(%rip), %rdx
	movq	(%rdx), %rax
	addq	$1, %rax
	movq	%rax, __gcov7._ZN8Polyfish8Position10move_pieceENS_6SquareES1_(%rip)
	movq	%rax, (%rdx)
	jmp	.L477
	.p2align 4,,10
	.p2align 3
.L502:
	addq	$1, 64+__gcov0._ZN8Polyfish8Position9undo_moveENS_4MoveE(%rip)
	movl	$8, %ecx
	cmpl	$1, %r14d
	jne	.L509
.L479:
	subl	%ecx, %r13d
	movslq	%r13d, %rsi
	jmp	.L478
	.p2align 4,,10
	.p2align 3
.L504:
	movq	.refptr.__gcov_time_profiler_counter(%rip), %r9
	movq	(%r9), %rdi
	leaq	1(%rdi), %rcx
	movq	%rcx, __gcov7._ZN8Polyfish8Position9put_pieceENS_5PieceENS_6SquareE.lto_priv.0(%rip)
	movq	%rcx, (%r9)
	jmp	.L481
	.p2align 4,,10
	.p2align 3
.L503:
	leaq	_ZN8Polyfish8Position9put_pieceENS_5PieceENS_6SquareE(%rip), %rdx
	movl	$879297383, %ecx
	movl	%r8d, 48(%rsp)
	call	__gcov_indirect_call_profiler_v4
	movl	872(%rbx), %eax
	movl	48(%rsp), %r8d
	movq	856(%rbx), %rdx
	jmp	.L480
	.p2align 4,,10
	.p2align 3
.L508:
	movq	.refptr.__gcov_time_profiler_counter(%rip), %r11
	movq	(%r11), %r10
	addq	$1, %r10
	movq	%r10, __gcov7._ZN8Polyfish8Position9put_pieceENS_5PieceENS_6SquareE.lto_priv.0(%rip)
	movq	%r10, (%r11)
	jmp	.L472
	.p2align 4,,10
	.p2align 3
.L505:
	leaq	_ZN8Polyfish8Position12remove_pieceENS_6SquareE(%rip), %rdx
	movl	$1627328305, %ecx
	movl	%r8d, 52(%rsp)
	movl	%r10d, 48(%rsp)
	call	__gcov_indirect_call_profiler_v4
	movq	(%r12), %rdx
	movl	52(%rsp), %r8d
	movl	48(%rsp), %r10d
	jmp	.L469
	.p2align 4,,10
	.p2align 3
.L506:
	movq	.refptr.__gcov_time_profiler_counter(%rip), %rcx
	movq	(%rcx), %rax
	addq	$1, %rax
	movq	%rax, __gcov7._ZN8Polyfish8Position12remove_pieceENS_6SquareE.lto_priv.0(%rip)
	movq	%rax, (%rcx)
	jmp	.L470
	.p2align 4,,10
	.p2align 3
.L507:
	leaq	_ZN8Polyfish8Position9put_pieceENS_5PieceENS_6SquareE(%rip), %rdx
	movl	$879297383, %ecx
	movq	%r9, 56(%rsp)
	movl	%eax, 52(%rsp)
	movl	%r8d, 48(%rsp)
	call	__gcov_indirect_call_profiler_v4
	movl	872(%rbx), %ecx
	movq	(%r12), %rdx
	movq	56(%rsp), %r9
	movl	52(%rsp), %eax
	movl	48(%rsp), %r8d
	jmp	.L471
.L509:
	addq	$1, 72+__gcov0._ZN8Polyfish8Position9undo_moveENS_4MoveE(%rip)
	movl	$-8, %ecx
	jmp	.L479
	.seh_endproc
	.p2align 4
	.globl	_ZSt9__find_ifIPKN8Polyfish7ExtMoveEN9__gnu_cxx5__ops16_Iter_equals_valIKNS0_4MoveEEEET_SA_SA_T0_St26random_access_iterator_tag
	.def	_ZSt9__find_ifIPKN8Polyfish7ExtMoveEN9__gnu_cxx5__ops16_Iter_equals_valIKNS0_4MoveEEEET_SA_SA_T0_St26random_access_iterator_tag;	.scl	2;	.type	32;	.endef
	.seh_proc	_ZSt9__find_ifIPKN8Polyfish7ExtMoveEN9__gnu_cxx5__ops16_Iter_equals_valIKNS0_4MoveEEEET_SA_SA_T0_St26random_access_iterator_tag
_ZSt9__find_ifIPKN8Polyfish7ExtMoveEN9__gnu_cxx5__ops16_Iter_equals_valIKNS0_4MoveEEEET_SA_SA_T0_St26random_access_iterator_tag:
	pushq	%rdi
	.seh_pushreg	%rdi
	pushq	%rsi
	.seh_pushreg	%rsi
	pushq	%rbx
	.seh_pushreg	%rbx
	subq	$32, %rsp
	.seh_stackalloc	32
	.seh_endprologue
	movq	.refptr.__gcov_indirect_call(%rip), %rax
	cmpq	$0, (%rax)
	movq	%rcx, %rbx
	movq	%rdx, %rsi
	movq	%r8, %rdi
	je	.L511
	leaq	_ZSt9__find_ifIPKN8Polyfish7ExtMoveEN9__gnu_cxx5__ops16_Iter_equals_valIKNS0_4MoveEEEET_SA_SA_T0_St26random_access_iterator_tag(%rip), %rdx
	movl	$1391176961, %ecx
	call	__gcov_indirect_call_profiler_v4
.L511:
	cmpq	$0, __gcov7._ZSt9__find_ifIPKN8Polyfish7ExtMoveEN9__gnu_cxx5__ops16_Iter_equals_valIKNS0_4MoveEEEET_SA_SA_T0_St26random_access_iterator_tag(%rip)
	jne	.L512
	movq	.refptr.__gcov_time_profiler_counter(%rip), %rdx
	movq	(%rdx), %rax
	addq	$1, %rax
	movq	%rax, __gcov7._ZSt9__find_ifIPKN8Polyfish7ExtMoveEN9__gnu_cxx5__ops16_Iter_equals_valIKNS0_4MoveEEEET_SA_SA_T0_St26random_access_iterator_tag(%rip)
	movq	%rax, (%rdx)
.L512:
	movq	%rsi, %r9
	subq	%rbx, %r9
	movq	%r9, %rax
	sarq	$5, %r9
	sarq	$3, %rax
	testq	%r9, %r9
	jle	.L513
	salq	$5, %r9
	movl	(%rdi), %edx
	movq	32+__gcov0._ZSt9__find_ifIPKN8Polyfish7ExtMoveEN9__gnu_cxx5__ops16_Iter_equals_valIKNS0_4MoveEEEET_SA_SA_T0_St26random_access_iterator_tag(%rip), %rcx
	xorl	%r10d, %r10d
	addq	%rbx, %r9
	jmp	.L523
	.p2align 4,,10
	.p2align 3
.L514:
	cmpl	8(%rbx), %edx
	je	.L547
	cmpl	16(%rbx), %edx
	je	.L548
	cmpl	24(%rbx), %edx
	je	.L549
	addq	$32, %rbx
	addq	$1, %rcx
	movl	$1, %r10d
	cmpq	%rbx, %r9
	je	.L550
.L523:
	cmpl	(%rbx), %edx
	jne	.L514
	testb	%r10b, %r10b
	je	.L515
	movq	%rcx, 32+__gcov0._ZSt9__find_ifIPKN8Polyfish7ExtMoveEN9__gnu_cxx5__ops16_Iter_equals_valIKNS0_4MoveEEEET_SA_SA_T0_St26random_access_iterator_tag(%rip)
.L515:
	addq	$1, __gcov0._ZSt9__find_ifIPKN8Polyfish7ExtMoveEN9__gnu_cxx5__ops16_Iter_equals_valIKNS0_4MoveEEEET_SA_SA_T0_St26random_access_iterator_tag(%rip)
	movq	%rbx, %rax
.L510:
	addq	$32, %rsp
	popq	%rbx
	popq	%rsi
	popq	%rdi
	ret
	.p2align 4,,10
	.p2align 3
.L550:
	movq	%rsi, %rax
	movq	%rcx, 32+__gcov0._ZSt9__find_ifIPKN8Polyfish7ExtMoveEN9__gnu_cxx5__ops16_Iter_equals_valIKNS0_4MoveEEEET_SA_SA_T0_St26random_access_iterator_tag(%rip)
	subq	%rbx, %rax
	sarq	$3, %rax
.L513:
	cmpq	$2, %rax
	je	.L524
	cmpq	$3, %rax
	je	.L525
	cmpq	$1, %rax
	je	.L551
	addq	$1, 40+__gcov0._ZSt9__find_ifIPKN8Polyfish7ExtMoveEN9__gnu_cxx5__ops16_Iter_equals_valIKNS0_4MoveEEEET_SA_SA_T0_St26random_access_iterator_tag(%rip)
	movq	%rsi, %rax
	jmp	.L510
.L525:
	movl	(%rdi), %edx
	cmpl	%edx, (%rbx)
	je	.L552
	addq	$1, 64+__gcov0._ZSt9__find_ifIPKN8Polyfish7ExtMoveEN9__gnu_cxx5__ops16_Iter_equals_valIKNS0_4MoveEEEET_SA_SA_T0_St26random_access_iterator_tag(%rip)
	addq	$8, %rbx
	jmp	.L528
.L551:
	addq	$1, 48+__gcov0._ZSt9__find_ifIPKN8Polyfish7ExtMoveEN9__gnu_cxx5__ops16_Iter_equals_valIKNS0_4MoveEEEET_SA_SA_T0_St26random_access_iterator_tag(%rip)
	movl	(%rdi), %edx
.L529:
	movq	%rsi, %rax
	cmpl	%edx, (%rbx)
	jne	.L510
	addq	$1, 88+__gcov0._ZSt9__find_ifIPKN8Polyfish7ExtMoveEN9__gnu_cxx5__ops16_Iter_equals_valIKNS0_4MoveEEEET_SA_SA_T0_St26random_access_iterator_tag(%rip)
	movq	%rbx, %rax
	jmp	.L510
.L524:
	movl	(%rdi), %edx
.L528:
	cmpl	%edx, (%rbx)
	je	.L553
	addq	$1, 80+__gcov0._ZSt9__find_ifIPKN8Polyfish7ExtMoveEN9__gnu_cxx5__ops16_Iter_equals_valIKNS0_4MoveEEEET_SA_SA_T0_St26random_access_iterator_tag(%rip)
	addq	$8, %rbx
	jmp	.L529
	.p2align 4,,10
	.p2align 3
.L547:
	testb	%r10b, %r10b
	je	.L518
	movq	%rcx, 32+__gcov0._ZSt9__find_ifIPKN8Polyfish7ExtMoveEN9__gnu_cxx5__ops16_Iter_equals_valIKNS0_4MoveEEEET_SA_SA_T0_St26random_access_iterator_tag(%rip)
.L518:
	addq	$1, 8+__gcov0._ZSt9__find_ifIPKN8Polyfish7ExtMoveEN9__gnu_cxx5__ops16_Iter_equals_valIKNS0_4MoveEEEET_SA_SA_T0_St26random_access_iterator_tag(%rip)
	leaq	8(%rbx), %rax
	addq	$32, %rsp
	popq	%rbx
	popq	%rsi
	popq	%rdi
	ret
	.p2align 4,,10
	.p2align 3
.L548:
	testb	%r10b, %r10b
	je	.L520
	movq	%rcx, 32+__gcov0._ZSt9__find_ifIPKN8Polyfish7ExtMoveEN9__gnu_cxx5__ops16_Iter_equals_valIKNS0_4MoveEEEET_SA_SA_T0_St26random_access_iterator_tag(%rip)
.L520:
	addq	$1, 16+__gcov0._ZSt9__find_ifIPKN8Polyfish7ExtMoveEN9__gnu_cxx5__ops16_Iter_equals_valIKNS0_4MoveEEEET_SA_SA_T0_St26random_access_iterator_tag(%rip)
	leaq	16(%rbx), %rax
	addq	$32, %rsp
	popq	%rbx
	popq	%rsi
	popq	%rdi
	ret
	.p2align 4,,10
	.p2align 3
.L549:
	testb	%r10b, %r10b
	je	.L522
	movq	%rcx, 32+__gcov0._ZSt9__find_ifIPKN8Polyfish7ExtMoveEN9__gnu_cxx5__ops16_Iter_equals_valIKNS0_4MoveEEEET_SA_SA_T0_St26random_access_iterator_tag(%rip)
.L522:
	addq	$1, 24+__gcov0._ZSt9__find_ifIPKN8Polyfish7ExtMoveEN9__gnu_cxx5__ops16_Iter_equals_valIKNS0_4MoveEEEET_SA_SA_T0_St26random_access_iterator_tag(%rip)
	leaq	24(%rbx), %rax
	addq	$32, %rsp
	popq	%rbx
	popq	%rsi
	popq	%rdi
	ret
.L552:
	addq	$1, 56+__gcov0._ZSt9__find_ifIPKN8Polyfish7ExtMoveEN9__gnu_cxx5__ops16_Iter_equals_valIKNS0_4MoveEEEET_SA_SA_T0_St26random_access_iterator_tag(%rip)
	movq	%rbx, %rax
	jmp	.L510
.L553:
	addq	$1, 72+__gcov0._ZSt9__find_ifIPKN8Polyfish7ExtMoveEN9__gnu_cxx5__ops16_Iter_equals_valIKNS0_4MoveEEEET_SA_SA_T0_St26random_access_iterator_tag(%rip)
	movq	%rbx, %rax
	jmp	.L510
	.seh_endproc
	.p2align 4
	.globl	__tcf_1.lto_priv.8
	.def	__tcf_1.lto_priv.8;	.scl	2;	.type	32;	.endef
	.seh_proc	__tcf_1.lto_priv.8
__tcf_1.lto_priv.8:
	subq	$40, %rsp
	.seh_stackalloc	40
	.seh_endprologue
	movq	.refptr.__gcov_indirect_call(%rip), %rax
	cmpq	$0, (%rax)
	je	.L555
	leaq	__tcf_1.lto_priv.8(%rip), %rdx
	movl	$852312683, %ecx
	call	__gcov_indirect_call_profiler_v4
.L555:
	addq	$1, __gcov0.__tcf_1.lto_priv.8(%rip)
	cmpq	$0, __gcov7.__tcf_1.lto_priv.8(%rip)
	jne	.L556
	movq	.refptr.__gcov_time_profiler_counter(%rip), %rdx
	movq	(%rdx), %rax
	addq	$1, %rax
	movq	%rax, __gcov7.__tcf_1.lto_priv.8(%rip)
	movq	%rax, (%rdx)
.L556:
	leaq	_ZStL8__ioinit.lto_priv.9(%rip), %rcx
	call	_ZNSt8ios_base4InitD1Ev
	addq	$1, 8+__gcov0.__tcf_1.lto_priv.8(%rip)
	addq	$40, %rsp
	ret
	.seh_endproc
	.p2align 4
	.globl	_ZN8Polyfish4PSQT4initEv
	.def	_ZN8Polyfish4PSQT4initEv;	.scl	2;	.type	32;	.endef
	.seh_proc	_ZN8Polyfish4PSQT4initEv
_ZN8Polyfish4PSQT4initEv:
	pushq	%r15
	.seh_pushreg	%r15
	pushq	%r14
	.seh_pushreg	%r14
	pushq	%r13
	.seh_pushreg	%r13
	pushq	%r12
	.seh_pushreg	%r12
	pushq	%rbp
	.seh_pushreg	%rbp
	pushq	%rdi
	.seh_pushreg	%rdi
	pushq	%rsi
	.seh_pushreg	%rsi
	pushq	%rbx
	.seh_pushreg	%rbx
	subq	$104, %rsp
	.seh_stackalloc	104
	.seh_endprologue
	movq	.refptr.__gcov_indirect_call(%rip), %rax
	cmpq	$0, (%rax)
	je	.L558
	leaq	_ZN8Polyfish4PSQT4initEv(%rip), %rdx
	movl	$1715566032, %ecx
	call	__gcov_indirect_call_profiler_v4
.L558:
	addq	$1, __gcov0._ZN8Polyfish4PSQT4initEv(%rip)
	cmpq	$0, __gcov7._ZN8Polyfish4PSQT4initEv(%rip)
	jne	.L559
	movq	.refptr.__gcov_time_profiler_counter(%rip), %rdx
	movq	(%rdx), %rax
	addq	$1, %rax
	movq	%rax, __gcov7._ZN8Polyfish4PSQT4initEv(%rip)
	movq	%rax, (%rdx)
.L559:
	leaq	64(%rsp), %rcx
	movb	$0, 63(%rsp)
	xorl	%r15d, %r15d
	xorl	%r13d, %r13d
	movq	.LC2(%rip), %rax
	movq	%rcx, 32(%rsp)
	leaq	88(%rsp), %rcx
	movl	$208, %r9d
	vmovdqu	.LC1(%rip), %xmm0
	movq	32+__gcov0._ZN8Polyfish4PSQT4initEv(%rip), %rsi
	movq	%rcx, 48(%rsp)
	leaq	_ZN8Polyfish4PSQT3psqE(%rip), %r11
	movq	%rax, 80(%rsp)
	movq	8+__gcov0._ZN8Polyfish4PSQT4initEv(%rip), %rax
	leaq	_ZN8Polyfish12_GLOBAL__N_1L5BonusE(%rip), %r12
	movl	$7, %ebx
	movq	24+__gcov0._ZN8Polyfish4PSQT4initEv(%rip), %rbp
	vmovdqu	%xmm0, 64(%rsp)
	movq	%rsi, %rcx
	movq	16+__gcov0._ZN8Polyfish4PSQT4initEv(%rip), %rdi
	movq	%rax, 40(%rsp)
	leaq	_ZN8Polyfish12_GLOBAL__N_1L6PBonusE(%rip), %r14
	movl	$126, %eax
	.p2align 4,,10
	.p2align 3
.L569:
	movq	32(%rsp), %rsi
	sall	$16, %r9d
	addq	$1, 40(%rsp)
	addl	%eax, %r9d
	movslq	(%rsi), %r8
	movl	%r8d, %eax
	movl	%r8d, %r10d
	andl	$7, %eax
	xorl	$8, %r10d
	cmpl	$1, %eax
	je	.L586
	movq	%r8, %rax
	movslq	%r10d, %r10
	addq	$1, %rcx
	salq	$7, %rax
	movq	%r10, %rdx
	salq	$6, %r10
	movl	(%r12,%rax), %esi
	salq	$8, %rdx
	addl	%r9d, %esi
	movl	%esi, %eax
	movq	%r8, %rsi
	salq	$3, %r8
	salq	$8, %rsi
	addq	%r11, %rsi
	movl	%eax, (%rsi)
	negl	%eax
	movl	%eax, 224(%r11,%rdx)
	movl	$1, %eax
	.p2align 4,,10
	.p2align 3
.L565:
	movl	%eax, %edx
	movl	%ebx, %r15d
	andl	$7, %edx
	subl	%edx, %r15d
	cmpl	%edx, %r15d
	jl	.L587
	movl	%eax, %r15d
	movslq	%edx, %rdx
	addq	$1, %rcx
	sarl	$3, %r15d
	movslq	%r15d, %r15
	addq	%r8, %r15
	leaq	(%rdx,%r15,4), %rdx
	movl	(%r12,%rdx,4), %r15d
	movl	%eax, %edx
	xorl	$56, %edx
	addl	%r9d, %r15d
	movslq	%edx, %rdx
	movl	%r15d, (%rsi,%rax,4)
	addq	%r10, %rdx
	negl	%r15d
	addq	$1, %rax
	movl	%r15d, (%r11,%rdx,4)
	cmpq	$64, %rax
	jne	.L565
	movl	$1, %r15d
.L564:
	addq	$4, 32(%rsp)
	movq	32(%rsp), %rax
	cmpq	48(%rsp), %rax
	je	.L568
	movslq	(%rax), %rax
	movq	.refptr._ZN8PolyfishL10PieceValueE.lto_priv.2.lto_priv.0(%rip), %rsi
	movl	64(%rsi,%rax,4), %r9d
	movl	(%rsi,%rax,4), %eax
	jmp	.L569
	.p2align 4,,10
	.p2align 3
.L587:
	movl	%eax, %edx
	movslq	%r15d, %r15
	addq	$1, %rdi
	addq	$1, %rcx
	sarl	$3, %edx
	movslq	%edx, %rdx
	addq	%r8, %rdx
	leaq	(%r15,%rdx,4), %rdx
	movl	(%r12,%rdx,4), %r13d
	movl	%eax, %edx
	xorl	$56, %edx
	addl	%r9d, %r13d
	movslq	%edx, %rdx
	movl	%r13d, (%rsi,%rax,4)
	addq	%r10, %rdx
	negl	%r13d
	addq	$1, %rax
	movl	%r13d, (%r11,%rdx,4)
	cmpq	$64, %rax
	je	.L588
	movl	$1, %r13d
	jmp	.L565
.L586:
	salq	$8, %r8
	movslq	%r10d, %r10
	movl	%r9d, %edx
	addq	$1, %rbp
	addq	%r11, %r8
	movq	%r10, %rax
	negl	%edx
	salq	$6, %r10
	movl	%r9d, (%r8)
	salq	$8, %rax
	movl	%edx, 224(%r11,%rax)
	movl	$1, %eax
	.p2align 4,,10
	.p2align 3
.L561:
	movl	%eax, %edx
	movl	%ebx, %esi
	andl	$7, %edx
	subl	%edx, %esi
	cmpl	%esi, %edx
	jg	.L589
	movl	%eax, %esi
	movslq	%edx, %rdx
	addq	$1, %rbp
	sarl	$3, %esi
	movslq	%esi, %rsi
	leaq	(%rdx,%rsi,8), %rdx
	movl	(%r14,%rdx,4), %esi
	movl	%eax, %edx
	xorl	$56, %edx
	addl	%r9d, %esi
	movslq	%edx, %rdx
	movl	%esi, (%r8,%rax,4)
	addq	%r10, %rdx
	negl	%esi
	addq	$1, %rax
	movl	%esi, (%r11,%rdx,4)
	cmpq	$64, %rax
	jne	.L561
	movb	$1, 63(%rsp)
	jmp	.L564
	.p2align 4,,10
	.p2align 3
.L589:
	movl	%eax, %esi
	movslq	%edx, %rdx
	addq	$1, %rdi
	addq	$1, %rbp
	sarl	$3, %esi
	movslq	%esi, %rsi
	leaq	(%rdx,%rsi,8), %rdx
	movl	(%r14,%rdx,4), %esi
	movl	%eax, %edx
	xorl	$56, %edx
	addl	%r9d, %esi
	movslq	%edx, %rdx
	movl	%esi, (%r8,%rax,4)
	addq	%r10, %rdx
	negl	%esi
	addq	$1, %rax
	movl	%esi, (%r11,%rdx,4)
	cmpq	$64, %rax
	je	.L590
	movl	$1, %r13d
	jmp	.L561
.L588:
	movl	$1, %r15d
	movl	$1, %r13d
	jmp	.L564
.L568:
	movq	40(%rsp), %rax
	cmpb	$0, 63(%rsp)
	movq	%rcx, %rsi
	movq	%rax, 8+__gcov0._ZN8Polyfish4PSQT4initEv(%rip)
	je	.L570
	movq	%rbp, 24+__gcov0._ZN8Polyfish4PSQT4initEv(%rip)
.L570:
	testb	%r15b, %r15b
	je	.L571
	movq	%rsi, 32+__gcov0._ZN8Polyfish4PSQT4initEv(%rip)
.L571:
	testb	%r13b, %r13b
	je	.L585
	movq	%rdi, 16+__gcov0._ZN8Polyfish4PSQT4initEv(%rip)
.L585:
	addq	$104, %rsp
	popq	%rbx
	popq	%rsi
	popq	%rdi
	popq	%rbp
	popq	%r12
	popq	%r13
	popq	%r14
	popq	%r15
	ret
.L590:
	movb	$1, 63(%rsp)
	movl	$1, %r13d
	jmp	.L564
	.seh_endproc
	.p2align 4
	.globl	_ZN8Polyfish5Pawns5probeERKNS_8PositionE
	.def	_ZN8Polyfish5Pawns5probeERKNS_8PositionE;	.scl	2;	.type	32;	.endef
	.seh_proc	_ZN8Polyfish5Pawns5probeERKNS_8PositionE
_ZN8Polyfish5Pawns5probeERKNS_8PositionE:
	pushq	%r15
	.seh_pushreg	%r15
	pushq	%r14
	.seh_pushreg	%r14
	pushq	%r13
	.seh_pushreg	%r13
	pushq	%r12
	.seh_pushreg	%r12
	pushq	%rbp
	.seh_pushreg	%rbp
	pushq	%rdi
	.seh_pushreg	%rdi
	pushq	%rsi
	.seh_pushreg	%rsi
	pushq	%rbx
	.seh_pushreg	%rbx
	subq	$520, %rsp
	.seh_stackalloc	520
	.seh_endprologue
	movq	.refptr.__gcov_indirect_call(%rip), %rax
	cmpq	$0, (%rax)
	movq	%rcx, 592(%rsp)
	jne	.L902
	cmpq	$0, __gcov7._ZN8Polyfish5Pawns5probeERKNS_8PositionE(%rip)
	je	.L903
.L593:
	movq	592(%rsp), %rax
	movq	856(%rax), %rax
	movq	(%rax), %rdx
	movq	592(%rsp), %rax
	movq	848(%rax), %rcx
	movq	%rdx, %rax
	andl	$131071, %eax
	leaq	(%rax,%rax,2), %rax
	salq	$5, %rax
	addq	48(%rcx), %rax
	movq	%rax, 56(%rsp)
	cmpq	%rdx, (%rax)
	je	.L904
	addq	$1, 8+__gcov0._ZN8Polyfish5Pawns5probeERKNS_8PositionE(%rip)
	addq	$1, __gcov0._ZN8Polyfish12_GLOBAL__N_18evaluateILNS_5ColorE0EEENS_5ScoreERKNS_8PositionEPNS_5Pawns5EntryE(%rip)
	cmpq	$0, __gcov7._ZN8Polyfish12_GLOBAL__N_18evaluateILNS_5ColorE0EEENS_5ScoreERKNS_8PositionEPNS_5Pawns5EntryE(%rip)
	movq	%rdx, (%rax)
	movl	$0, 88(%rax)
	je	.L905
.L596:
	movq	592(%rsp), %rdi
	movq	592(%rsp), %rax
	movabsq	$9187201950435737344, %r8
	movabsq	$-72340172838076928, %r9
	movq	264(%rax), %rax
	movq	320(%rdi), %rbp
	andq	%rax, %rbp
	andq	328(%rdi), %rax
	movq	56(%rsp), %rdi
	movq	%rax, %r15
	movq	%rax, %rdx
	movabsq	$35887507618889599, %rax
	shrq	$9, %rdx
	movq	%r15, %rcx
	movq	$0, 16(%rdi)
	andq	%rax, %rdx
	shrq	$7, %rcx
	movl	$64, 64(%rdi)
	movabsq	$71775015237779198, %rax
	andq	%rax, %rcx
	movq	%rbp, %rax
	salq	$7, %rax
	andq	%r8, %rax
	movq	%rbp, %r8
	salq	$9, %r8
	andq	%r9, %r8
	movq	%rax, %r9
	orq	%r8, %r9
	movq	%r9, 48(%rdi)
	movq	%r9, 32(%rdi)
	movq	%rdx, %r9
	andq	%rcx, %r9
	movq	%r9, %rbx
	movq	%rbp, %r9
	orq	%r15, %rbx
	salq	$8, %r9
	andq	%rbx, %r9
	movq	%rbx, 248(%rsp)
	xorl	%ebx, %ebx
	popcntq	%r9, %rbx
	movq	%rdx, %r9
	movq	%rbx, 400(%rsp)
	movl	%ebx, 88(%rdi)
	orq	%rcx, %r9
	testq	%rbp, %rbp
	je	.L698
	movq	8+__gcov0._ZN8Polyfish12_GLOBAL__N_18evaluateILNS_5ColorE0EEENS_5ScoreERKNS_8PositionEPNS_5Pawns5EntryE(%rip), %rax
	orq	%r15, %r9
	xorl	%r12d, %r12d
	movq	%rbp, %r14
	shrq	$8, %r9
	movl	%r12d, %r13d
	movq	%rax, 160(%rsp)
	movq	16+__gcov0._ZN8Polyfish12_GLOBAL__N_18evaluateILNS_5ColorE0EEENS_5ScoreERKNS_8PositionEPNS_5Pawns5EntryE(%rip), %rax
	andq	%rbp, %r9
	movq	%r9, 224(%rsp)
	movq	%rax, 304(%rsp)
	movq	24+__gcov0._ZN8Polyfish12_GLOBAL__N_18evaluateILNS_5ColorE0EEENS_5ScoreERKNS_8PositionEPNS_5Pawns5EntryE(%rip), %rax
	movq	%rax, 176(%rsp)
	movq	32+__gcov0._ZN8Polyfish12_GLOBAL__N_18evaluateILNS_5ColorE0EEENS_5ScoreERKNS_8PositionEPNS_5Pawns5EntryE(%rip), %rax
	movq	%rax, 320(%rsp)
	movq	40+__gcov0._ZN8Polyfish12_GLOBAL__N_18evaluateILNS_5ColorE0EEENS_5ScoreERKNS_8PositionEPNS_5Pawns5EntryE(%rip), %rax
	movq	%rax, 184(%rsp)
	movq	48+__gcov0._ZN8Polyfish12_GLOBAL__N_18evaluateILNS_5ColorE0EEENS_5ScoreERKNS_8PositionEPNS_5Pawns5EntryE(%rip), %rax
	movq	%rax, 352(%rsp)
	movq	56+__gcov0._ZN8Polyfish12_GLOBAL__N_18evaluateILNS_5ColorE0EEENS_5ScoreERKNS_8PositionEPNS_5Pawns5EntryE(%rip), %rax
	movq	%rax, 440(%rsp)
	movq	72+__gcov0._ZN8Polyfish12_GLOBAL__N_18evaluateILNS_5ColorE0EEENS_5ScoreERKNS_8PositionEPNS_5Pawns5EntryE(%rip), %rax
	movq	%rax, 264(%rsp)
	movq	64+__gcov0._ZN8Polyfish12_GLOBAL__N_18evaluateILNS_5ColorE0EEENS_5ScoreERKNS_8PositionEPNS_5Pawns5EntryE(%rip), %rax
	movq	%rax, 272(%rsp)
	movq	80+__gcov0._ZN8Polyfish12_GLOBAL__N_18evaluateILNS_5ColorE0EEENS_5ScoreERKNS_8PositionEPNS_5Pawns5EntryE(%rip), %rax
	movq	%rax, 408(%rsp)
	movq	88+__gcov0._ZN8Polyfish12_GLOBAL__N_18evaluateILNS_5ColorE0EEENS_5ScoreERKNS_8PositionEPNS_5Pawns5EntryE(%rip), %rax
	movq	%rax, 192(%rsp)
	movq	112+__gcov0._ZN8Polyfish12_GLOBAL__N_18evaluateILNS_5ColorE0EEENS_5ScoreERKNS_8PositionEPNS_5Pawns5EntryE(%rip), %rax
	movq	%rax, 344(%rsp)
	movq	160+__gcov0._ZN8Polyfish12_GLOBAL__N_18evaluateILNS_5ColorE0EEENS_5ScoreERKNS_8PositionEPNS_5Pawns5EntryE(%rip), %rax
	movq	%rax, 432(%rsp)
	movq	168+__gcov0._ZN8Polyfish12_GLOBAL__N_18evaluateILNS_5ColorE0EEENS_5ScoreERKNS_8PositionEPNS_5Pawns5EntryE(%rip), %rax
	movq	%rax, 464(%rsp)
	movq	176+__gcov0._ZN8Polyfish12_GLOBAL__N_18evaluateILNS_5ColorE0EEENS_5ScoreERKNS_8PositionEPNS_5Pawns5EntryE(%rip), %rax
	movq	%rax, 456(%rsp)
	movq	144+__gcov0._ZN8Polyfish12_GLOBAL__N_18evaluateILNS_5ColorE0EEENS_5ScoreERKNS_8PositionEPNS_5Pawns5EntryE(%rip), %rax
	movq	%rax, 384(%rsp)
	movq	120+__gcov0._ZN8Polyfish12_GLOBAL__N_18evaluateILNS_5ColorE0EEENS_5ScoreERKNS_8PositionEPNS_5Pawns5EntryE(%rip), %rax
	movb	$0, 368(%rsp)
	movq	%rax, 424(%rsp)
	movq	128+__gcov0._ZN8Polyfish12_GLOBAL__N_18evaluateILNS_5ColorE0EEENS_5ScoreERKNS_8PositionEPNS_5Pawns5EntryE(%rip), %rax
	movb	$0, 507(%rsp)
	movq	%rax, 472(%rsp)
	movq	152+__gcov0._ZN8Polyfish12_GLOBAL__N_18evaluateILNS_5ColorE0EEENS_5ScoreERKNS_8PositionEPNS_5Pawns5EntryE(%rip), %rax
	movb	$0, 136(%rsp)
	movq	%rax, 376(%rsp)
	movq	136+__gcov0._ZN8Polyfish12_GLOBAL__N_18evaluateILNS_5ColorE0EEENS_5ScoreERKNS_8PositionEPNS_5Pawns5EntryE(%rip), %rax
	movb	$0, 263(%rsp)
	movq	%rax, 488(%rsp)
	movq	96+__gcov0._ZN8Polyfish12_GLOBAL__N_18evaluateILNS_5ColorE0EEENS_5ScoreERKNS_8PositionEPNS_5Pawns5EntryE(%rip), %rax
	movb	$0, 505(%rsp)
	movq	%rax, 208(%rsp)
	movq	104+__gcov0._ZN8Polyfish12_GLOBAL__N_18evaluateILNS_5ColorE0EEENS_5ScoreERKNS_8PositionEPNS_5Pawns5EntryE(%rip), %rax
	movb	$0, 261(%rsp)
	movq	%rax, 328(%rsp)
	movq	184+__gcov0._ZN8Polyfish12_GLOBAL__N_18evaluateILNS_5ColorE0EEENS_5ScoreERKNS_8PositionEPNS_5Pawns5EntryE(%rip), %rax
	movb	$0, 448(%rsp)
	movq	%rax, 152(%rsp)
	movq	192+__gcov0._ZN8Polyfish12_GLOBAL__N_18evaluateILNS_5ColorE0EEENS_5ScoreERKNS_8PositionEPNS_5Pawns5EntryE(%rip), %rax
	movb	$0, 510(%rsp)
	movq	%rax, 296(%rsp)
	movq	200+__gcov0._ZN8Polyfish12_GLOBAL__N_18evaluateILNS_5ColorE0EEENS_5ScoreERKNS_8PositionEPNS_5Pawns5EntryE(%rip), %rax
	movb	$0, 508(%rsp)
	movq	%rax, 288(%rsp)
	movq	208+__gcov0._ZN8Polyfish12_GLOBAL__N_18evaluateILNS_5ColorE0EEENS_5ScoreERKNS_8PositionEPNS_5Pawns5EntryE(%rip), %rax
	movb	$0, 240(%rsp)
	movq	%rax, 144(%rsp)
	movb	$0, 496(%rsp)
	movb	$0, 480(%rsp)
	movb	$0, 392(%rsp)
	movq	.refptr._ZN8Polyfish8SquareBBE(%rip), %rax
	movb	$0, 336(%rsp)
	movq	%rax, 32(%rsp)
	movq	.refptr._ZN8Polyfish11PawnAttacksE(%rip), %rax
	movb	$0, 216(%rsp)
	movb	$0, 200(%rsp)
	movb	$0, 416(%rsp)
	movb	$0, 280(%rsp)
	movb	$0, 504(%rsp)
	movb	$0, 509(%rsp)
	movb	$0, 360(%rsp)
	movb	$0, 262(%rsp)
	movb	$0, 506(%rsp)
	movb	$0, 232(%rsp)
	movb	$0, 312(%rsp)
	movb	$0, 168(%rsp)
	movq	%rax, 88(%rsp)
	movq	%rbp, 64(%rsp)
	jmp	.L620
	.p2align 4,,10
	.p2align 3
.L908:
	movslq	40(%rsp), %rax
	leaq	_ZN8Polyfish12_GLOBAL__N_1L9ConnectedE(%rip), %rbx
	addq	$1, 208(%rsp)
	cmpq	$0, 112(%rsp)
	movl	(%rbx,%rax,4), %edx
	movl	$3, %eax
	jne	.L606
	addq	$1, 328(%rsp)
	movl	$2, %eax
	movb	$1, 336(%rsp)
.L606:
	xorl	%ecx, %ecx
	popcntq	72(%rsp), %rcx
	cmpq	$1, 104(%rsp)
	movl	40(%rsp), %ebx
	adcl	$-1, %eax
	imull	$22, %ecx, %ecx
	movb	$1, 216(%rsp)
	imull	%edx, %eax
	addl	%ecx, %eax
	leal	-2(%rbx), %ecx
	imull	%eax, %ecx
	testl	%ecx, %ecx
	leal	3(%rcx), %edx
	cmovns	%ecx, %edx
	sarl	$2, %edx
	sall	$16, %edx
	addl	%eax, %edx
	addl	%edx, %r13d
.L607:
	cmpq	$0, 72(%rsp)
	je	.L613
.L616:
	cmpq	$0, 48(%rsp)
	setne	%al
	andb	%dil, %al
	je	.L619
	movl	40(%rsp), %edx
	movb	%al, 136(%rsp)
	leaq	_ZN8Polyfish12_GLOBAL__N_1L11BlockedPawnE(%rip), %rdi
	addq	$1, 144(%rsp)
	subl	$4, %edx
	movslq	%edx, %rdx
	addl	(%rdi,%rdx,4), %r13d
.L619:
	testq	%r14, %r14
	je	.L906
.L620:
	xorl	%eax, %eax
	movq	32(%rsp), %rbp
	leaq	-1(%r14), %rdx
	movq	88(%rsp), %r12
	movabsq	$72340172838076673, %r11
	rep bsfq	%r14, %rax
	andq	%rdx, %r14
	movq	%r15, %rdx
	movl	%eax, %esi
	movl	%eax, %ebx
	leal	8(%rax), %r8d
	movabsq	$-72340172838076674, %r10
	andl	$-8, %ebx
	sarl	$3, %esi
	movl	%ebx, %ecx
	movl	%esi, 40(%rsp)
	movq	$-256, %rsi
	salq	%cl, %rsi
	movl	%eax, %ecx
	andl	$7, %ecx
	movq	%rsi, %rdi
	salq	%cl, %r11
	movslq	%r8d, %rcx
	andq	%r11, %rdi
	movq	%r11, %r9
	movq	%rdi, 128(%rsp)
	andq	%r15, %rdi
	shrq	%r9
	movq	%rdi, 104(%rsp)
	movq	0(%rbp,%rcx,8), %rdi
	movq	(%r12,%rcx,8), %rcx
	andq	%rdi, %rdx
	movq	%rdx, 48(%rsp)
	leaq	(%r11,%r11), %rdx
	andq	%r10, %rdx
	movq	%rcx, 96(%rsp)
	movl	%ebx, %ecx
	movabsq	$9187201950435737471, %r10
	andq	%r10, %r9
	movq	%r11, %r10
	orq	%r9, %rdx
	movq	%r15, %r9
	andq	%rsi, %r9
	orq	%rdx, %r10
	andq	%r9, %r10
	movslq	%eax, %r9
	subl	$8, %eax
	movq	(%r12,%r9,8), %rbp
	movq	%r9, 120(%rsp)
	movslq	%eax, %r12
	andl	$-8, %eax
	movq	64(%rsp), %r9
	andq	%r15, %rbp
	andq	%rdx, %r9
	movq	%rbp, 80(%rsp)
	movl	$255, %ebp
	salq	%cl, %rbp
	movq	%r9, %rcx
	andq	%rbp, %rcx
	movq	%rbp, %rbx
	movq	32(%rsp), %rbp
	movq	%rcx, 112(%rsp)
	movl	%eax, %ecx
	movl	$255, %eax
	salq	%cl, %rax
	movq	%r9, %rcx
	andq	%rax, %rcx
	movq	%rcx, 72(%rsp)
	movq	64(%rsp), %rcx
	andq	0(%rbp,%r12,8), %rcx
	movq	%rcx, %r12
	je	.L598
	addq	$1, 160(%rsp)
	cmpq	$0, 224(%rsp)
	movb	$1, 168(%rsp)
	jne	.L598
	addq	$1, 304(%rsp)
	subl	$458769, %r13d
	movb	$1, 312(%rsp)
.L598:
	movl	%r8d, %ecx
	movabsq	$72057594037927935, %r8
	andl	$-8, %ecx
	xorl	$56, %ecx
	shrq	%cl, %r8
	testq	%r9, %r8
	jne	.L599
	addq	$1, 176(%rsp)
	orq	96(%rsp), %rdi
	testq	%r15, %rdi
	jne	.L700
	addq	$1, 320(%rsp)
	movb	$1, 506(%rsp)
	movb	$1, 232(%rsp)
.L599:
	xorl	%ecx, %ecx
	cmpq	$0, 48(%rsp)
	jne	.L600
	movq	56(%rsp), %rdi
	andq	%rdx, %rsi
	addq	$1, 184(%rsp)
	movb	$1, 262(%rsp)
	orq	%rsi, 48(%rdi)
.L600:
	cmpl	$3, 40(%rsp)
	setg	%dil
	cmpq	80(%rsp), %r10
	je	.L601
	movq	96(%rsp), %rbp
	andq	%r15, %rbp
	cmpq	%rbp, %r10
	je	.L907
.L602:
	cmpq	%r10, 48(%rsp)
	sete	%r8b
	andb	%dil, %r8b
	jne	.L603
	addq	$1, 264(%rsp)
	movb	$1, 504(%rsp)
.L604:
	orq	%rax, %rbx
	testq	%r9, %rbx
	jne	.L908
	testq	%r9, %r9
	jne	.L608
	cmpq	$0, 104(%rsp)
	jne	.L909
	addq	$1, 384(%rsp)
	movl	$2490384, %eax
	movb	$1, 507(%rsp)
.L612:
	subl	%eax, %r13d
.L613:
	addq	$1, 152(%rsp)
	movq	80(%rsp), %rsi
	leaq	-1(%rsi), %rax
	testq	%rax, %rsi
	jne	.L708
	addq	$1, 296(%rsp)
	movl	$3342347, %eax
	xorl	%edx, %edx
	movb	$1, 505(%rsp)
.L617:
	testq	%r12, %r12
	jne	.L618
	addq	$1, 288(%rsp)
	movl	%edx, %eax
	movb	$1, 263(%rsp)
.L618:
	movb	$1, 261(%rsp)
	subl	%eax, %r13d
	jmp	.L616
	.p2align 4,,10
	.p2align 3
.L603:
	movq	72(%rsp), %r10
	movq	248(%rsp), %rsi
	movl	%r8d, %ebp
	movb	%r8b, 280(%rsp)
	addq	$1, 272(%rsp)
	salq	$8, %r10
	notq	%rsi
	testq	%rsi, %r10
	je	.L604
	addq	$1, 408(%rsp)
	movb	%bpl, 416(%rsp)
.L601:
	movq	128(%rsp), %r10
	testq	%r10, 64(%rsp)
	jne	.L604
	movq	32(%rsp), %rsi
	movq	120(%rsp), %r10
	movb	$1, 200(%rsp)
	addq	$1, 192(%rsp)
	movq	(%rsi,%r10,8), %r8
	movq	56(%rsp), %rsi
	orq	%r8, 16(%rsi)
	jmp	.L604
	.p2align 4,,10
	.p2align 3
.L700:
	movb	$1, 232(%rsp)
	movl	$1, %ecx
	jmp	.L600
	.p2align 4,,10
	.p2align 3
.L708:
	movl	$7077901, %eax
	movl	$3735554, %edx
	jmp	.L617
	.p2align 4,,10
	.p2align 3
.L608:
	addq	$1, 344(%rsp)
	movb	$1, 240(%rsp)
	testb	%cl, %cl
	je	.L607
	movq	32(%rsp), %rax
	movq	120(%rsp), %rsi
	movabsq	$9114861777597660798, %rdx
	addq	$1, 432(%rsp)
	andq	(%rax,%rsi,8), %rdx
	cmpq	$0, 104(%rsp)
	movl	$2424853, %eax
	jne	.L910
	testq	%rdx, %rdx
	je	.L911
.L615:
	movb	%cl, 508(%rsp)
	subl	%eax, %r13d
	movb	%cl, 240(%rsp)
	jmp	.L607
	.p2align 4,,10
	.p2align 3
.L907:
	addq	$1, 352(%rsp)
	xorl	%r8d, %r8d
	xorl	%esi, %esi
	popcntq	112(%rsp), %rsi
	popcntq	%r10, %r8
	cmpl	%r8d, %esi
	jge	.L702
	addq	$1, 440(%rsp)
	movb	$1, 509(%rsp)
	movb	$1, 360(%rsp)
	jmp	.L602
	.p2align 4,,10
	.p2align 3
.L909:
	movl	40(%rsp), %ecx
	andq	64(%rsp), %r11
	movabsq	$72057594037927935, %rax
	addq	$1, 424(%rsp)
	xorl	$7, %ecx
	sall	$3, %ecx
	shrq	%cl, %rax
	testq	%r11, %rax
	je	.L610
	addq	$1, 472(%rsp)
	testq	%rdx, %r15
	jne	.L705
	addq	$1, 488(%rsp)
	subl	$3342347, %r13d
	movb	$1, 496(%rsp)
	movb	$1, 480(%rsp)
	movb	$1, 392(%rsp)
	jmp	.L613
	.p2align 4,,10
	.p2align 3
.L705:
	movb	$1, 480(%rsp)
.L610:
	addq	$1, 376(%rsp)
	movl	$1310721, %eax
	movb	$1, 368(%rsp)
	movb	$1, 392(%rsp)
	jmp	.L612
	.p2align 4,,10
	.p2align 3
.L702:
	movb	$1, 360(%rsp)
	jmp	.L601
	.p2align 4,,10
	.p2align 3
.L906:
	cmpb	$0, 368(%rsp)
	movl	%r13d, %r12d
	je	.L621
	movq	376(%rsp), %rax
	movq	%rax, 152+__gcov0._ZN8Polyfish12_GLOBAL__N_18evaluateILNS_5ColorE0EEENS_5ScoreERKNS_8PositionEPNS_5Pawns5EntryE(%rip)
.L621:
	cmpb	$0, 507(%rsp)
	je	.L622
	movq	384(%rsp), %rax
	movq	%rax, 144+__gcov0._ZN8Polyfish12_GLOBAL__N_18evaluateILNS_5ColorE0EEENS_5ScoreERKNS_8PositionEPNS_5Pawns5EntryE(%rip)
.L622:
	cmpb	$0, 136(%rsp)
	je	.L623
	movq	144(%rsp), %rax
	movq	%rax, 208+__gcov0._ZN8Polyfish12_GLOBAL__N_18evaluateILNS_5ColorE0EEENS_5ScoreERKNS_8PositionEPNS_5Pawns5EntryE(%rip)
.L623:
	cmpb	$0, 263(%rsp)
	je	.L624
	movq	288(%rsp), %rax
	movq	%rax, 200+__gcov0._ZN8Polyfish12_GLOBAL__N_18evaluateILNS_5ColorE0EEENS_5ScoreERKNS_8PositionEPNS_5Pawns5EntryE(%rip)
.L624:
	cmpb	$0, 505(%rsp)
	je	.L625
	movq	296(%rsp), %rax
	movq	%rax, 192+__gcov0._ZN8Polyfish12_GLOBAL__N_18evaluateILNS_5ColorE0EEENS_5ScoreERKNS_8PositionEPNS_5Pawns5EntryE(%rip)
.L625:
	cmpb	$0, 261(%rsp)
	je	.L626
	movq	152(%rsp), %rax
	movq	%rax, 184+__gcov0._ZN8Polyfish12_GLOBAL__N_18evaluateILNS_5ColorE0EEENS_5ScoreERKNS_8PositionEPNS_5Pawns5EntryE(%rip)
.L626:
	cmpb	$0, 448(%rsp)
	je	.L627
	movq	456(%rsp), %rax
	movq	%rax, 176+__gcov0._ZN8Polyfish12_GLOBAL__N_18evaluateILNS_5ColorE0EEENS_5ScoreERKNS_8PositionEPNS_5Pawns5EntryE(%rip)
.L627:
	cmpb	$0, 510(%rsp)
	je	.L628
	movq	464(%rsp), %rax
	movq	%rax, 168+__gcov0._ZN8Polyfish12_GLOBAL__N_18evaluateILNS_5ColorE0EEENS_5ScoreERKNS_8PositionEPNS_5Pawns5EntryE(%rip)
.L628:
	cmpb	$0, 508(%rsp)
	je	.L629
	movq	432(%rsp), %rax
	movq	%rax, 160+__gcov0._ZN8Polyfish12_GLOBAL__N_18evaluateILNS_5ColorE0EEENS_5ScoreERKNS_8PositionEPNS_5Pawns5EntryE(%rip)
.L629:
	cmpb	$0, 240(%rsp)
	je	.L630
	movq	344(%rsp), %rax
	movq	%rax, 112+__gcov0._ZN8Polyfish12_GLOBAL__N_18evaluateILNS_5ColorE0EEENS_5ScoreERKNS_8PositionEPNS_5Pawns5EntryE(%rip)
.L630:
	cmpb	$0, 496(%rsp)
	jne	.L912
.L631:
	cmpb	$0, 480(%rsp)
	je	.L632
	movq	472(%rsp), %rax
	movq	%rax, 128+__gcov0._ZN8Polyfish12_GLOBAL__N_18evaluateILNS_5ColorE0EEENS_5ScoreERKNS_8PositionEPNS_5Pawns5EntryE(%rip)
.L632:
	cmpb	$0, 392(%rsp)
	je	.L633
	movq	424(%rsp), %rax
	movq	%rax, 120+__gcov0._ZN8Polyfish12_GLOBAL__N_18evaluateILNS_5ColorE0EEENS_5ScoreERKNS_8PositionEPNS_5Pawns5EntryE(%rip)
.L633:
	cmpb	$0, 336(%rsp)
	je	.L634
	movq	328(%rsp), %rax
	movq	%rax, 104+__gcov0._ZN8Polyfish12_GLOBAL__N_18evaluateILNS_5ColorE0EEENS_5ScoreERKNS_8PositionEPNS_5Pawns5EntryE(%rip)
.L634:
	cmpb	$0, 216(%rsp)
	je	.L635
	movq	208(%rsp), %rax
	movq	%rax, 96+__gcov0._ZN8Polyfish12_GLOBAL__N_18evaluateILNS_5ColorE0EEENS_5ScoreERKNS_8PositionEPNS_5Pawns5EntryE(%rip)
.L635:
	cmpb	$0, 200(%rsp)
	je	.L636
	movq	192(%rsp), %rax
	movq	%rax, 88+__gcov0._ZN8Polyfish12_GLOBAL__N_18evaluateILNS_5ColorE0EEENS_5ScoreERKNS_8PositionEPNS_5Pawns5EntryE(%rip)
.L636:
	cmpb	$0, 416(%rsp)
	je	.L637
	movq	408(%rsp), %rax
	movq	%rax, 80+__gcov0._ZN8Polyfish12_GLOBAL__N_18evaluateILNS_5ColorE0EEENS_5ScoreERKNS_8PositionEPNS_5Pawns5EntryE(%rip)
.L637:
	cmpb	$0, 280(%rsp)
	je	.L638
	movq	272(%rsp), %rax
	movq	%rax, 64+__gcov0._ZN8Polyfish12_GLOBAL__N_18evaluateILNS_5ColorE0EEENS_5ScoreERKNS_8PositionEPNS_5Pawns5EntryE(%rip)
.L638:
	cmpb	$0, 504(%rsp)
	je	.L639
	movq	264(%rsp), %rax
	movq	%rax, 72+__gcov0._ZN8Polyfish12_GLOBAL__N_18evaluateILNS_5ColorE0EEENS_5ScoreERKNS_8PositionEPNS_5Pawns5EntryE(%rip)
.L639:
	cmpb	$0, 509(%rsp)
	je	.L640
	movq	440(%rsp), %rax
	movq	%rax, 56+__gcov0._ZN8Polyfish12_GLOBAL__N_18evaluateILNS_5ColorE0EEENS_5ScoreERKNS_8PositionEPNS_5Pawns5EntryE(%rip)
.L640:
	cmpb	$0, 360(%rsp)
	je	.L641
	movq	352(%rsp), %rax
	movq	%rax, 48+__gcov0._ZN8Polyfish12_GLOBAL__N_18evaluateILNS_5ColorE0EEENS_5ScoreERKNS_8PositionEPNS_5Pawns5EntryE(%rip)
.L641:
	cmpb	$0, 262(%rsp)
	je	.L642
	movq	184(%rsp), %rax
	movq	%rax, 40+__gcov0._ZN8Polyfish12_GLOBAL__N_18evaluateILNS_5ColorE0EEENS_5ScoreERKNS_8PositionEPNS_5Pawns5EntryE(%rip)
.L642:
	cmpb	$0, 506(%rsp)
	je	.L643
	movq	320(%rsp), %rax
	movq	%rax, 32+__gcov0._ZN8Polyfish12_GLOBAL__N_18evaluateILNS_5ColorE0EEENS_5ScoreERKNS_8PositionEPNS_5Pawns5EntryE(%rip)
.L643:
	cmpb	$0, 232(%rsp)
	je	.L644
	movq	176(%rsp), %rax
	movq	%rax, 24+__gcov0._ZN8Polyfish12_GLOBAL__N_18evaluateILNS_5ColorE0EEENS_5ScoreERKNS_8PositionEPNS_5Pawns5EntryE(%rip)
.L644:
	cmpb	$0, 312(%rsp)
	je	.L645
	movq	304(%rsp), %rax
	movq	%rax, 16+__gcov0._ZN8Polyfish12_GLOBAL__N_18evaluateILNS_5ColorE0EEENS_5ScoreERKNS_8PositionEPNS_5Pawns5EntryE(%rip)
.L645:
	cmpb	$0, 168(%rsp)
	je	.L646
	movq	160(%rsp), %rax
	movq	%rax, 8+__gcov0._ZN8Polyfish12_GLOBAL__N_18evaluateILNS_5ColorE0EEENS_5ScoreERKNS_8PositionEPNS_5Pawns5EntryE(%rip)
.L646:
	movq	592(%rsp), %rdi
	movq	592(%rsp), %rax
	movabsq	$9187201950435737344, %rdx
	movabsq	$35887507618889599, %rcx
	movabsq	$71775015237779198, %r9
	movq	264(%rax), %rax
	movq	328(%rdi), %r15
	andq	%rax, %r15
	andq	320(%rdi), %rax
	movq	%rax, %rbp
	salq	$7, %rax
	movq	%rbp, %r8
	andq	%rdx, %rax
	movabsq	$-72340172838076928, %rdx
	salq	$9, %r8
	andq	%rdx, %r8
	movq	%r15, %rdx
	shrq	$9, %rdx
	andq	%rcx, %rdx
	movq	%r15, %rcx
	shrq	$7, %rcx
	andq	%r9, %rcx
	jmp	.L597
	.p2align 4,,10
	.p2align 3
.L911:
	addq	$1, 456(%rsp)
	movl	$1245190, %eax
	movb	%cl, 448(%rsp)
	jmp	.L615
	.p2align 4,,10
	.p2align 3
.L910:
	addq	$1, 464(%rsp)
	movl	$1245190, %eax
	movb	%cl, 510(%rsp)
	testq	%rdx, %rdx
	jne	.L615
	jmp	.L911
	.p2align 4,,10
	.p2align 3
.L904:
	addq	$1, __gcov0._ZN8Polyfish5Pawns5probeERKNS_8PositionE(%rip)
.L591:
	addq	$520, %rsp
	popq	%rbx
	popq	%rsi
	popq	%rdi
	popq	%rbp
	popq	%r12
	popq	%r13
	popq	%r14
	popq	%r15
	ret
	.p2align 4,,10
	.p2align 3
.L902:
	leaq	_ZN8Polyfish5Pawns5probeERKNS_8PositionE(%rip), %rdx
	movl	$1896655999, %ecx
	call	__gcov_indirect_call_profiler_v4
	cmpq	$0, __gcov7._ZN8Polyfish5Pawns5probeERKNS_8PositionE(%rip)
	jne	.L593
	.p2align 4,,10
	.p2align 3
.L903:
	movq	.refptr.__gcov_time_profiler_counter(%rip), %rdx
	movq	(%rdx), %rax
	addq	$1, %rax
	movq	%rax, __gcov7._ZN8Polyfish5Pawns5probeERKNS_8PositionE(%rip)
	movq	%rax, (%rdx)
	jmp	.L593
	.p2align 4,,10
	.p2align 3
.L905:
	movq	.refptr.__gcov_time_profiler_counter(%rip), %rdx
	movq	(%rdx), %rax
	addq	$1, %rax
	movq	%rax, __gcov7._ZN8Polyfish12_GLOBAL__N_18evaluateILNS_5ColorE0EEENS_5ScoreERKNS_8PositionEPNS_5Pawns5EntryE(%rip)
	movq	%rax, (%rdx)
	jmp	.L596
	.p2align 4,,10
	.p2align 3
.L698:
	xorl	%r12d, %r12d
	.p2align 4,,10
	.p2align 3
.L597:
	movq	56(%rsp), %rdi
	addq	$1, 16+__gcov0._ZN8Polyfish5Pawns5probeERKNS_8PositionE(%rip)
	addq	$1, __gcov0._ZN8Polyfish12_GLOBAL__N_18evaluateILNS_5ColorE1EEENS_5ScoreERKNS_8PositionEPNS_5Pawns5EntryE(%rip)
	cmpq	$0, __gcov7._ZN8Polyfish12_GLOBAL__N_18evaluateILNS_5ColorE1EEENS_5ScoreERKNS_8PositionEPNS_5Pawns5EntryE(%rip)
	movl	%r12d, 8(%rdi)
	je	.L913
.L647:
	movq	56(%rsp), %rdi
	orq	%rcx, %rdx
	movq	%rdx, 56(%rdi)
	movq	%rdx, 40(%rdi)
	movq	%rax, %rdx
	andq	%r8, %rdx
	movq	$0, 24(%rdi)
	movq	%rdx, %rsi
	movq	%r15, %rdx
	movl	$64, 68(%rdi)
	orq	%rbp, %rsi
	shrq	$8, %rdx
	andq	%rsi, %rdx
	movq	%rsi, 264(%rsp)
	popcntq	%rdx, %rdx
	addl	400(%rsp), %edx
	movl	%edx, 88(%rdi)
	testq	%r15, %r15
	je	.L709
	orq	%rbp, %rax
	movq	8+__gcov0._ZN8Polyfish12_GLOBAL__N_18evaluateILNS_5ColorE1EEENS_5ScoreERKNS_8PositionEPNS_5Pawns5EntryE(%rip), %rdi
	xorl	%r12d, %r12d
	movq	%rbp, %r14
	orq	%r8, %rax
	salq	$8, %rax
	movq	%rdi, 200(%rsp)
	andq	%r15, %rax
	movq	%rax, 240(%rsp)
	movq	16+__gcov0._ZN8Polyfish12_GLOBAL__N_18evaluateILNS_5ColorE1EEENS_5ScoreERKNS_8PositionEPNS_5Pawns5EntryE(%rip), %rax
	movq	%rax, 336(%rsp)
	movq	24+__gcov0._ZN8Polyfish12_GLOBAL__N_18evaluateILNS_5ColorE1EEENS_5ScoreERKNS_8PositionEPNS_5Pawns5EntryE(%rip), %rax
	movq	%rax, 208(%rsp)
	movq	32+__gcov0._ZN8Polyfish12_GLOBAL__N_18evaluateILNS_5ColorE1EEENS_5ScoreERKNS_8PositionEPNS_5Pawns5EntryE(%rip), %rax
	movq	%rax, 344(%rsp)
	movq	40+__gcov0._ZN8Polyfish12_GLOBAL__N_18evaluateILNS_5ColorE1EEENS_5ScoreERKNS_8PositionEPNS_5Pawns5EntryE(%rip), %rax
	movq	%rax, 216(%rsp)
	movq	48+__gcov0._ZN8Polyfish12_GLOBAL__N_18evaluateILNS_5ColorE1EEENS_5ScoreERKNS_8PositionEPNS_5Pawns5EntryE(%rip), %rax
	movq	%rax, 368(%rsp)
	movq	56+__gcov0._ZN8Polyfish12_GLOBAL__N_18evaluateILNS_5ColorE1EEENS_5ScoreERKNS_8PositionEPNS_5Pawns5EntryE(%rip), %rax
	movq	%rax, 448(%rsp)
	movq	72+__gcov0._ZN8Polyfish12_GLOBAL__N_18evaluateILNS_5ColorE1EEENS_5ScoreERKNS_8PositionEPNS_5Pawns5EntryE(%rip), %rax
	movq	%rax, 280(%rsp)
	movq	64+__gcov0._ZN8Polyfish12_GLOBAL__N_18evaluateILNS_5ColorE1EEENS_5ScoreERKNS_8PositionEPNS_5Pawns5EntryE(%rip), %rax
	movq	%rax, 288(%rsp)
	movq	80+__gcov0._ZN8Polyfish12_GLOBAL__N_18evaluateILNS_5ColorE1EEENS_5ScoreERKNS_8PositionEPNS_5Pawns5EntryE(%rip), %rax
	movq	%rax, 416(%rsp)
	movq	88+__gcov0._ZN8Polyfish12_GLOBAL__N_18evaluateILNS_5ColorE1EEENS_5ScoreERKNS_8PositionEPNS_5Pawns5EntryE(%rip), %rax
	movq	%rax, 232(%rsp)
	movq	112+__gcov0._ZN8Polyfish12_GLOBAL__N_18evaluateILNS_5ColorE1EEENS_5ScoreERKNS_8PositionEPNS_5Pawns5EntryE(%rip), %rax
	movq	%rax, 360(%rsp)
	movq	160+__gcov0._ZN8Polyfish12_GLOBAL__N_18evaluateILNS_5ColorE1EEENS_5ScoreERKNS_8PositionEPNS_5Pawns5EntryE(%rip), %rax
	movq	%rax, 440(%rsp)
	movq	168+__gcov0._ZN8Polyfish12_GLOBAL__N_18evaluateILNS_5ColorE1EEENS_5ScoreERKNS_8PositionEPNS_5Pawns5EntryE(%rip), %rax
	movq	%rax, 472(%rsp)
	movq	176+__gcov0._ZN8Polyfish12_GLOBAL__N_18evaluateILNS_5ColorE1EEENS_5ScoreERKNS_8PositionEPNS_5Pawns5EntryE(%rip), %rax
	movq	%rax, 464(%rsp)
	movq	144+__gcov0._ZN8Polyfish12_GLOBAL__N_18evaluateILNS_5ColorE1EEENS_5ScoreERKNS_8PositionEPNS_5Pawns5EntryE(%rip), %rax
	movq	%rax, 400(%rsp)
	movq	120+__gcov0._ZN8Polyfish12_GLOBAL__N_18evaluateILNS_5ColorE1EEENS_5ScoreERKNS_8PositionEPNS_5Pawns5EntryE(%rip), %rax
	movb	$0, 376(%rsp)
	movq	%rax, 432(%rsp)
	movq	128+__gcov0._ZN8Polyfish12_GLOBAL__N_18evaluateILNS_5ColorE1EEENS_5ScoreERKNS_8PositionEPNS_5Pawns5EntryE(%rip), %rax
	movb	$0, 384(%rsp)
	movq	%rax, 480(%rsp)
	movq	152+__gcov0._ZN8Polyfish12_GLOBAL__N_18evaluateILNS_5ColorE1EEENS_5ScoreERKNS_8PositionEPNS_5Pawns5EntryE(%rip), %rax
	movb	$0, 261(%rsp)
	movq	%rax, 392(%rsp)
	movq	136+__gcov0._ZN8Polyfish12_GLOBAL__N_18evaluateILNS_5ColorE1EEENS_5ScoreERKNS_8PositionEPNS_5Pawns5EntryE(%rip), %rax
	movb	$0, 504(%rsp)
	movq	%rax, 496(%rsp)
	movq	96+__gcov0._ZN8Polyfish12_GLOBAL__N_18evaluateILNS_5ColorE1EEENS_5ScoreERKNS_8PositionEPNS_5Pawns5EntryE(%rip), %rax
	movb	$0, 296(%rsp)
	movq	%rax, 176(%rsp)
	movq	104+__gcov0._ZN8Polyfish12_GLOBAL__N_18evaluateILNS_5ColorE1EEENS_5ScoreERKNS_8PositionEPNS_5Pawns5EntryE(%rip), %rax
	movb	$0, 160(%rsp)
	movq	%rax, 320(%rsp)
	movq	184+__gcov0._ZN8Polyfish12_GLOBAL__N_18evaluateILNS_5ColorE1EEENS_5ScoreERKNS_8PositionEPNS_5Pawns5EntryE(%rip), %rax
	movb	$0, 510(%rsp)
	movq	%rax, 168(%rsp)
	movq	192+__gcov0._ZN8Polyfish12_GLOBAL__N_18evaluateILNS_5ColorE1EEENS_5ScoreERKNS_8PositionEPNS_5Pawns5EntryE(%rip), %rax
	movb	$0, 456(%rsp)
	movq	%rax, 312(%rsp)
	movq	200+__gcov0._ZN8Polyfish12_GLOBAL__N_18evaluateILNS_5ColorE1EEENS_5ScoreERKNS_8PositionEPNS_5Pawns5EntryE(%rip), %rax
	movb	$0, 424(%rsp)
	movq	%rax, 304(%rsp)
	movq	208+__gcov0._ZN8Polyfish12_GLOBAL__N_18evaluateILNS_5ColorE1EEENS_5ScoreERKNS_8PositionEPNS_5Pawns5EntryE(%rip), %rax
	movb	$0, 263(%rsp)
	movq	%rax, 152(%rsp)
	movb	$0, 511(%rsp)
	movb	$0, 488(%rsp)
	movb	$0, 408(%rsp)
	movq	.refptr._ZN8Polyfish8SquareBBE(%rip), %rax
	movb	$0, 506(%rsp)
	movq	%rax, 32(%rsp)
	movq	.refptr._ZN8Polyfish11PawnAttacksE(%rip), %rax
	movb	$0, 184(%rsp)
	movb	$0, 262(%rsp)
	movb	$0, 508(%rsp)
	movb	$0, 272(%rsp)
	movb	$0, 505(%rsp)
	movb	$0, 509(%rsp)
	movb	$0, 507(%rsp)
	movb	$0, 224(%rsp)
	movb	$0, 352(%rsp)
	movb	$0, 248(%rsp)
	movb	$0, 328(%rsp)
	movb	$0, 192(%rsp)
	movq	%rax, 88(%rsp)
	movl	%r12d, 80(%rsp)
	movq	%r15, 48(%rsp)
	jmp	.L671
	.p2align 4,,10
	.p2align 3
.L916:
	movslq	%r13d, %rax
	leaq	_ZN8Polyfish12_GLOBAL__N_1L9ConnectedE(%rip), %rbx
	addq	$1, 176(%rsp)
	cmpq	$0, 120(%rsp)
	movl	(%rbx,%rax,4), %edx
	movl	$3, %eax
	jne	.L657
	addq	$1, 320(%rsp)
	movl	$2, %eax
	movb	$1, 506(%rsp)
.L657:
	xorl	%ecx, %ecx
	popcntq	64(%rsp), %rcx
	cmpq	$1, 112(%rsp)
	movb	$1, 184(%rsp)
	adcl	$-1, %eax
	imull	$22, %ecx, %ecx
	imull	%edx, %eax
	addl	%ecx, %eax
	leal	-2(%r13), %ecx
	imull	%eax, %ecx
	testl	%ecx, %ecx
	leal	3(%rcx), %edx
	cmovns	%ecx, %edx
	sarl	$2, %edx
	sall	$16, %edx
	addl	%eax, %edx
	addl	%edx, 80(%rsp)
.L658:
	cmpq	$0, 64(%rsp)
	je	.L664
.L667:
	cmpq	$0, 40(%rsp)
	setne	%al
	andb	%dil, %al
	je	.L670
	leal	-4(%r13), %edx
	leaq	_ZN8Polyfish12_GLOBAL__N_1L11BlockedPawnE(%rip), %rdi
	addq	$1, 152(%rsp)
	movslq	%edx, %rdx
	movb	%al, 261(%rsp)
	movl	(%rdi,%rdx,4), %edi
	addl	%edi, 80(%rsp)
.L670:
	testq	%r15, %r15
	je	.L914
.L671:
	xorl	%eax, %eax
	movq	32(%rsp), %rbp
	leaq	-1(%r15), %rdx
	movabsq	$72057594037927935, %rsi
	movabsq	$72340172838076673, %r10
	rep bsfq	%r15, %rax
	andq	%rdx, %r15
	movabsq	$9187201950435737471, %r8
	movabsq	$-72340172838076674, %r9
	movl	%eax, %r11d
	sarl	$3, %r11d
	movl	%r11d, %r13d
	sall	$3, %r11d
	xorl	$7, %r13d
	movl	%r11d, 144(%rsp)
	leal	0(,%r13,8), %ecx
	shrq	%cl, %rsi
	movl	%eax, %ecx
	andl	$7, %ecx
	salq	%cl, %r10
	movq	%r10, %rbx
	andq	%rsi, %rbx
	movq	%rbx, 136(%rsp)
	andq	%r14, %rbx
	movq	%rbx, 112(%rsp)
	leal	-8(%rax), %ebx
	movslq	%ebx, %rcx
	movq	0(%rbp,%rcx,8), %rdi
	movq	88(%rsp), %rbp
	movq	%rdi, %rdx
	movq	512(%rbp,%rcx,8), %rcx
	andq	%r14, %rdx
	movq	%rdx, 40(%rsp)
	movq	%r10, %rdx
	shrq	%rdx
	movq	%rcx, 96(%rsp)
	movl	%r11d, %ecx
	andq	%r8, %rdx
	leaq	(%r10,%r10), %r8
	andq	%r9, %r8
	movq	%rsi, %r9
	orq	%r8, %rdx
	andq	%r14, %r9
	movq	%rdx, %r8
	orq	%r10, %r8
	andq	%r8, %r9
	movslq	%eax, %r8
	addl	$8, %eax
	movq	512(%rbp,%r8,8), %r12
	movq	%r8, 128(%rsp)
	movq	48(%rsp), %r8
	movq	32(%rsp), %rbp
	andq	%r14, %r12
	movq	%r12, 72(%rsp)
	movslq	%eax, %r12
	andl	$-8, %eax
	andq	%rdx, %r8
	movq	%r12, 104(%rsp)
	movl	$255, %r12d
	salq	%cl, %r12
	movl	%eax, %ecx
	movl	$255, %eax
	salq	%cl, %rax
	movq	%r12, %r11
	andq	%r8, %r12
	movq	48(%rsp), %rcx
	movq	%r12, 120(%rsp)
	movq	%rax, %r12
	andq	%r8, %r12
	movq	%r12, 64(%rsp)
	movq	104(%rsp), %r12
	andq	0(%rbp,%r12,8), %rcx
	movq	%rcx, %r12
	je	.L649
	addq	$1, 200(%rsp)
	cmpq	$0, 240(%rsp)
	movb	$1, 192(%rsp)
	jne	.L649
	addq	$1, 336(%rsp)
	subl	$458769, 80(%rsp)
	movb	$1, 328(%rsp)
.L649:
	andl	$-8, %ebx
	movl	%ebx, %ecx
	movq	$-256, %rbx
	salq	%cl, %rbx
	testq	%r8, %rbx
	jne	.L650
	addq	$1, 208(%rsp)
	orq	96(%rsp), %rdi
	testq	%r14, %rdi
	jne	.L711
	addq	$1, 344(%rsp)
	movb	$1, 352(%rsp)
	movb	$1, 248(%rsp)
.L650:
	xorl	%ecx, %ecx
	cmpq	$0, 40(%rsp)
	jne	.L651
	movq	56(%rsp), %rdi
	andq	%rdx, %rsi
	addq	$1, 216(%rsp)
	movb	$1, 224(%rsp)
	orq	%rsi, 56(%rdi)
.L651:
	cmpl	$3, %r13d
	setg	%dil
	cmpq	%r9, 72(%rsp)
	je	.L652
	movq	96(%rsp), %rbp
	andq	%r14, %rbp
	cmpq	%rbp, %r9
	je	.L915
.L653:
	cmpq	40(%rsp), %r9
	sete	%r9b
	andb	%dil, %r9b
	jne	.L654
	addq	$1, 280(%rsp)
	movb	$1, 505(%rsp)
.L655:
	orq	%r11, %rax
	testq	%r8, %rax
	jne	.L916
	testq	%r8, %r8
	jne	.L659
	cmpq	$0, 112(%rsp)
	jne	.L917
	addq	$1, 400(%rsp)
	movl	$2490384, %eax
	movb	$1, 384(%rsp)
.L663:
	subl	%eax, 80(%rsp)
.L664:
	addq	$1, 168(%rsp)
	movq	72(%rsp), %rsi
	leaq	-1(%rsi), %rax
	testq	%rax, %rsi
	jne	.L719
	addq	$1, 312(%rsp)
	movl	$3342347, %eax
	xorl	%edx, %edx
	movb	$1, 296(%rsp)
.L668:
	testq	%r12, %r12
	jne	.L669
	addq	$1, 304(%rsp)
	movl	%edx, %eax
	movb	$1, 504(%rsp)
.L669:
	subl	%eax, 80(%rsp)
	movb	$1, 160(%rsp)
	jmp	.L667
	.p2align 4,,10
	.p2align 3
.L654:
	movq	64(%rsp), %rbx
	movq	264(%rsp), %rsi
	movl	%r9d, %ebp
	movb	%r9b, 272(%rsp)
	addq	$1, 288(%rsp)
	shrq	$8, %rbx
	notq	%rsi
	testq	%rsi, %rbx
	je	.L655
	addq	$1, 416(%rsp)
	movb	%bpl, 508(%rsp)
.L652:
	movq	48(%rsp), %rsi
	testq	%rsi, 136(%rsp)
	jne	.L655
	movq	32(%rsp), %rbx
	movq	128(%rsp), %rsi
	movb	$1, 262(%rsp)
	addq	$1, 232(%rsp)
	movq	(%rbx,%rsi,8), %r9
	movq	56(%rsp), %rbx
	orq	%r9, 24(%rbx)
	jmp	.L655
	.p2align 4,,10
	.p2align 3
.L711:
	movb	$1, 248(%rsp)
	movl	$1, %ecx
	jmp	.L651
	.p2align 4,,10
	.p2align 3
.L659:
	addq	$1, 360(%rsp)
	movb	$1, 263(%rsp)
	testb	%cl, %cl
	je	.L658
	movq	32(%rsp), %rax
	movq	128(%rsp), %rsi
	movabsq	$9114861777597660798, %rdx
	addq	$1, 440(%rsp)
	andq	(%rax,%rsi,8), %rdx
	cmpq	$0, 112(%rsp)
	movl	$2424853, %eax
	je	.L665
	addq	$1, 472(%rsp)
	movl	$1245190, %eax
	movb	%cl, 456(%rsp)
.L665:
	testq	%rdx, %rdx
	jne	.L666
	addq	$1, 464(%rsp)
	movl	$1245190, %eax
	movb	%cl, 510(%rsp)
.L666:
	subl	%eax, 80(%rsp)
	movb	%cl, 424(%rsp)
	movb	%cl, 263(%rsp)
	jmp	.L658
	.p2align 4,,10
	.p2align 3
.L719:
	movl	$7077901, %eax
	movl	$3735554, %edx
	jmp	.L668
	.p2align 4,,10
	.p2align 3
.L915:
	addq	$1, 368(%rsp)
	xorl	%ebx, %ebx
	xorl	%esi, %esi
	popcntq	120(%rsp), %rsi
	popcntq	%r9, %rbx
	cmpl	%ebx, %esi
	jge	.L713
	addq	$1, 448(%rsp)
	movb	$1, 509(%rsp)
	movb	$1, 507(%rsp)
	jmp	.L653
	.p2align 4,,10
	.p2align 3
.L917:
	movzbl	144(%rsp), %ecx
	movq	$-256, %rax
	andq	48(%rsp), %r10
	addq	$1, 432(%rsp)
	salq	%cl, %rax
	testq	%r10, %rax
	je	.L661
	addq	$1, 480(%rsp)
	testq	%r14, %rdx
	jne	.L716
	addq	$1, 496(%rsp)
	subl	$3342347, 80(%rsp)
	movb	$1, 511(%rsp)
	movb	$1, 488(%rsp)
	movb	$1, 408(%rsp)
	jmp	.L664
	.p2align 4,,10
	.p2align 3
.L713:
	movb	$1, 507(%rsp)
	jmp	.L652
	.p2align 4,,10
	.p2align 3
.L914:
	cmpb	$0, 376(%rsp)
	movl	80(%rsp), %r12d
	je	.L672
	movq	392(%rsp), %rax
	movq	%rax, 152+__gcov0._ZN8Polyfish12_GLOBAL__N_18evaluateILNS_5ColorE1EEENS_5ScoreERKNS_8PositionEPNS_5Pawns5EntryE(%rip)
.L672:
	cmpb	$0, 384(%rsp)
	je	.L673
	movq	400(%rsp), %rax
	movq	%rax, 144+__gcov0._ZN8Polyfish12_GLOBAL__N_18evaluateILNS_5ColorE1EEENS_5ScoreERKNS_8PositionEPNS_5Pawns5EntryE(%rip)
.L673:
	cmpb	$0, 261(%rsp)
	je	.L674
	movq	152(%rsp), %rax
	movq	%rax, 208+__gcov0._ZN8Polyfish12_GLOBAL__N_18evaluateILNS_5ColorE1EEENS_5ScoreERKNS_8PositionEPNS_5Pawns5EntryE(%rip)
.L674:
	cmpb	$0, 504(%rsp)
	je	.L675
	movq	304(%rsp), %rax
	movq	%rax, 200+__gcov0._ZN8Polyfish12_GLOBAL__N_18evaluateILNS_5ColorE1EEENS_5ScoreERKNS_8PositionEPNS_5Pawns5EntryE(%rip)
.L675:
	cmpb	$0, 296(%rsp)
	je	.L676
	movq	312(%rsp), %rax
	movq	%rax, 192+__gcov0._ZN8Polyfish12_GLOBAL__N_18evaluateILNS_5ColorE1EEENS_5ScoreERKNS_8PositionEPNS_5Pawns5EntryE(%rip)
.L676:
	cmpb	$0, 160(%rsp)
	je	.L677
	movq	168(%rsp), %rax
	movq	%rax, 184+__gcov0._ZN8Polyfish12_GLOBAL__N_18evaluateILNS_5ColorE1EEENS_5ScoreERKNS_8PositionEPNS_5Pawns5EntryE(%rip)
.L677:
	cmpb	$0, 510(%rsp)
	je	.L678
	movq	464(%rsp), %rax
	movq	%rax, 176+__gcov0._ZN8Polyfish12_GLOBAL__N_18evaluateILNS_5ColorE1EEENS_5ScoreERKNS_8PositionEPNS_5Pawns5EntryE(%rip)
.L678:
	cmpb	$0, 456(%rsp)
	je	.L679
	movq	472(%rsp), %rax
	movq	%rax, 168+__gcov0._ZN8Polyfish12_GLOBAL__N_18evaluateILNS_5ColorE1EEENS_5ScoreERKNS_8PositionEPNS_5Pawns5EntryE(%rip)
.L679:
	cmpb	$0, 424(%rsp)
	je	.L680
	movq	440(%rsp), %rax
	movq	%rax, 160+__gcov0._ZN8Polyfish12_GLOBAL__N_18evaluateILNS_5ColorE1EEENS_5ScoreERKNS_8PositionEPNS_5Pawns5EntryE(%rip)
.L680:
	cmpb	$0, 263(%rsp)
	je	.L681
	movq	360(%rsp), %rax
	movq	%rax, 112+__gcov0._ZN8Polyfish12_GLOBAL__N_18evaluateILNS_5ColorE1EEENS_5ScoreERKNS_8PositionEPNS_5Pawns5EntryE(%rip)
.L681:
	cmpb	$0, 511(%rsp)
	jne	.L918
.L682:
	cmpb	$0, 488(%rsp)
	je	.L683
	movq	480(%rsp), %rax
	movq	%rax, 128+__gcov0._ZN8Polyfish12_GLOBAL__N_18evaluateILNS_5ColorE1EEENS_5ScoreERKNS_8PositionEPNS_5Pawns5EntryE(%rip)
.L683:
	cmpb	$0, 408(%rsp)
	je	.L684
	movq	432(%rsp), %rax
	movq	%rax, 120+__gcov0._ZN8Polyfish12_GLOBAL__N_18evaluateILNS_5ColorE1EEENS_5ScoreERKNS_8PositionEPNS_5Pawns5EntryE(%rip)
.L684:
	cmpb	$0, 506(%rsp)
	je	.L685
	movq	320(%rsp), %rax
	movq	%rax, 104+__gcov0._ZN8Polyfish12_GLOBAL__N_18evaluateILNS_5ColorE1EEENS_5ScoreERKNS_8PositionEPNS_5Pawns5EntryE(%rip)
.L685:
	cmpb	$0, 184(%rsp)
	je	.L686
	movq	176(%rsp), %rax
	movq	%rax, 96+__gcov0._ZN8Polyfish12_GLOBAL__N_18evaluateILNS_5ColorE1EEENS_5ScoreERKNS_8PositionEPNS_5Pawns5EntryE(%rip)
.L686:
	cmpb	$0, 262(%rsp)
	je	.L687
	movq	232(%rsp), %rax
	movq	%rax, 88+__gcov0._ZN8Polyfish12_GLOBAL__N_18evaluateILNS_5ColorE1EEENS_5ScoreERKNS_8PositionEPNS_5Pawns5EntryE(%rip)
.L687:
	cmpb	$0, 508(%rsp)
	je	.L688
	movq	416(%rsp), %rax
	movq	%rax, 80+__gcov0._ZN8Polyfish12_GLOBAL__N_18evaluateILNS_5ColorE1EEENS_5ScoreERKNS_8PositionEPNS_5Pawns5EntryE(%rip)
.L688:
	cmpb	$0, 272(%rsp)
	je	.L689
	movq	288(%rsp), %rax
	movq	%rax, 64+__gcov0._ZN8Polyfish12_GLOBAL__N_18evaluateILNS_5ColorE1EEENS_5ScoreERKNS_8PositionEPNS_5Pawns5EntryE(%rip)
.L689:
	cmpb	$0, 505(%rsp)
	je	.L690
	movq	280(%rsp), %rax
	movq	%rax, 72+__gcov0._ZN8Polyfish12_GLOBAL__N_18evaluateILNS_5ColorE1EEENS_5ScoreERKNS_8PositionEPNS_5Pawns5EntryE(%rip)
.L690:
	cmpb	$0, 509(%rsp)
	je	.L691
	movq	448(%rsp), %rax
	movq	%rax, 56+__gcov0._ZN8Polyfish12_GLOBAL__N_18evaluateILNS_5ColorE1EEENS_5ScoreERKNS_8PositionEPNS_5Pawns5EntryE(%rip)
.L691:
	cmpb	$0, 507(%rsp)
	je	.L692
	movq	368(%rsp), %rax
	movq	%rax, 48+__gcov0._ZN8Polyfish12_GLOBAL__N_18evaluateILNS_5ColorE1EEENS_5ScoreERKNS_8PositionEPNS_5Pawns5EntryE(%rip)
.L692:
	cmpb	$0, 224(%rsp)
	je	.L693
	movq	216(%rsp), %rax
	movq	%rax, 40+__gcov0._ZN8Polyfish12_GLOBAL__N_18evaluateILNS_5ColorE1EEENS_5ScoreERKNS_8PositionEPNS_5Pawns5EntryE(%rip)
.L693:
	cmpb	$0, 352(%rsp)
	je	.L694
	movq	344(%rsp), %rax
	movq	%rax, 32+__gcov0._ZN8Polyfish12_GLOBAL__N_18evaluateILNS_5ColorE1EEENS_5ScoreERKNS_8PositionEPNS_5Pawns5EntryE(%rip)
.L694:
	cmpb	$0, 248(%rsp)
	je	.L695
	movq	208(%rsp), %rax
	movq	%rax, 24+__gcov0._ZN8Polyfish12_GLOBAL__N_18evaluateILNS_5ColorE1EEENS_5ScoreERKNS_8PositionEPNS_5Pawns5EntryE(%rip)
.L695:
	cmpb	$0, 328(%rsp)
	je	.L696
	movq	336(%rsp), %rax
	movq	%rax, 16+__gcov0._ZN8Polyfish12_GLOBAL__N_18evaluateILNS_5ColorE1EEENS_5ScoreERKNS_8PositionEPNS_5Pawns5EntryE(%rip)
.L696:
	cmpb	$0, 192(%rsp)
	je	.L648
	movq	200(%rsp), %rax
	movq	%rax, 8+__gcov0._ZN8Polyfish12_GLOBAL__N_18evaluateILNS_5ColorE1EEENS_5ScoreERKNS_8PositionEPNS_5Pawns5EntryE(%rip)
	jmp	.L648
	.p2align 4,,10
	.p2align 3
.L716:
	movb	$1, 488(%rsp)
.L661:
	addq	$1, 392(%rsp)
	movl	$1310721, %eax
	movb	$1, 376(%rsp)
	movb	$1, 408(%rsp)
	jmp	.L663
	.p2align 4,,10
	.p2align 3
.L913:
	movq	.refptr.__gcov_time_profiler_counter(%rip), %r10
	movq	(%r10), %rdi
	leaq	1(%rdi), %r9
	movq	%r9, __gcov7._ZN8Polyfish12_GLOBAL__N_18evaluateILNS_5ColorE1EEENS_5ScoreERKNS_8PositionEPNS_5Pawns5EntryE(%rip)
	movq	%r9, (%r10)
	jmp	.L647
	.p2align 4,,10
	.p2align 3
.L709:
	xorl	%r12d, %r12d
.L648:
	movq	56(%rsp), %rax
	addq	$1, 24+__gcov0._ZN8Polyfish5Pawns5probeERKNS_8PositionE(%rip)
	movl	%r12d, 12(%rax)
	jmp	.L591
.L912:
	movq	488(%rsp), %rax
	movq	%rax, 136+__gcov0._ZN8Polyfish12_GLOBAL__N_18evaluateILNS_5ColorE0EEENS_5ScoreERKNS_8PositionEPNS_5Pawns5EntryE(%rip)
	jmp	.L631
.L918:
	movq	496(%rsp), %rax
	movq	%rax, 136+__gcov0._ZN8Polyfish12_GLOBAL__N_18evaluateILNS_5ColorE1EEENS_5ScoreERKNS_8PositionEPNS_5Pawns5EntryE(%rip)
	jmp	.L682
	.seh_endproc
	.align 2
	.p2align 4
	.def	_ZNK8Polyfish5Pawns5Entry16evaluate_shelterILNS_5ColorE0EEENS_5ScoreERKNS_8PositionENS_6SquareE;	.scl	3;	.type	32;	.endef
	.seh_proc	_ZNK8Polyfish5Pawns5Entry16evaluate_shelterILNS_5ColorE0EEENS_5ScoreERKNS_8PositionENS_6SquareE
_ZNK8Polyfish5Pawns5Entry16evaluate_shelterILNS_5ColorE0EEENS_5ScoreERKNS_8PositionENS_6SquareE:
	pushq	%r15
	.seh_pushreg	%r15
	pushq	%r14
	.seh_pushreg	%r14
	pushq	%r13
	.seh_pushreg	%r13
	pushq	%r12
	.seh_pushreg	%r12
	pushq	%rbp
	.seh_pushreg	%rbp
	pushq	%rdi
	.seh_pushreg	%rdi
	pushq	%rsi
	.seh_pushreg	%rsi
	pushq	%rbx
	.seh_pushreg	%rbx
	subq	$40, %rsp
	.seh_stackalloc	40
	.seh_endprologue
	movq	.refptr.__gcov_indirect_call(%rip), %rax
	cmpq	$0, (%rax)
	movq	%rcx, %rbp
	movq	%rdx, %rdi
	movl	%r8d, %esi
	je	.L920
	leaq	_ZNK8Polyfish5Pawns5Entry16evaluate_shelterILNS_5ColorE0EEENS_5ScoreERKNS_8PositionENS_6SquareE(%rip), %rdx
	movl	$261399788, %ecx
	call	__gcov_indirect_call_profiler_v4
.L920:
	addq	$1, __gcov0._ZNK8Polyfish5Pawns5Entry16evaluate_shelterILNS_5ColorE0EEENS_5ScoreERKNS_8PositionENS_6SquareE(%rip)
	cmpq	$0, __gcov7._ZNK8Polyfish5Pawns5Entry16evaluate_shelterILNS_5ColorE0EEENS_5ScoreERKNS_8PositionENS_6SquareE(%rip)
	jne	.L921
	movq	.refptr.__gcov_time_profiler_counter(%rip), %rdx
	movq	(%rdx), %rax
	addq	$1, %rax
	movq	%rax, __gcov7._ZNK8Polyfish5Pawns5Entry16evaluate_shelterILNS_5ColorE0EEENS_5ScoreERKNS_8PositionENS_6SquareE(%rip)
	movq	%rax, (%rdx)
.L921:
	movl	%esi, %ecx
	movq	40(%rbp), %r9
	movq	264(%rdi), %rbx
	movabsq	$-72057594037927936, %rdx
	andl	$-8, %ecx
	movq	320(%rdi), %r10
	movq	328(%rdi), %r11
	xorl	$56, %ecx
	notq	%r9
	sarq	%cl, %rdx
	andq	%r10, %r9
	andq	%rbx, %rdx
	andq	%rdx, %r9
	andq	%r11, %rdx
	andl	$7, %esi
	movl	%esi, %r8d
	je	.L947
	addq	$1, 8+__gcov0._ZNK8Polyfish5Pawns5Entry16evaluate_shelterILNS_5ColorE0EEENS_5ScoreERKNS_8PositionENS_6SquareE(%rip)
	cmpl	$7, %esi
	jne	.L971
	movl	$5, %esi
	movl	$6, %ebp
	jmp	.L922
	.p2align 4,,10
	.p2align 3
.L947:
	xorl	%esi, %esi
	movl	$1, %ebp
.L922:
	movabsq	$72340172838076673, %rax
	movl	%esi, %ecx
	xorl	%r12d, %r12d
	salq	%cl, %rax
	movq	%r9, %rcx
	andq	%rax, %rcx
	je	.L923
	addq	$1, 24+__gcov0._ZNK8Polyfish5Pawns5Entry16evaluate_shelterILNS_5ColorE0EEENS_5ScoreERKNS_8PositionENS_6SquareE(%rip)
	rep bsfq	%rcx, %rcx
	movl	%ecx, %r12d
	sarl	$3, %r12d
.L923:
	xorl	%r13d, %r13d
	andq	%rdx, %rax
	je	.L924
	addq	$1, 32+__gcov0._ZNK8Polyfish5Pawns5Entry16evaluate_shelterILNS_5ColorE0EEENS_5ScoreERKNS_8PositionENS_6SquareE(%rip)
	rep bsfq	%rax, %rax
	movl	%eax, %r13d
	sarl	$3, %r13d
.L924:
	movl	$7, %eax
	subl	%esi, %eax
	cmpl	%esi, %eax
	jl	.L972
	movl	%esi, %eax
.L925:
	movslq	%r12d, %r14
	movslq	%eax, %rcx
	leaq	_ZN8Polyfish12_GLOBAL__N_1L15ShelterStrengthE(%rip), %rdi
	leaq	(%r14,%rcx,8), %rax
	movl	(%rdi,%rax,4), %eax
	addl	$327685, %eax
	testl	%r12d, %r12d
	je	.L928
	leal	-1(%r13), %r14d
	addq	$1, 48+__gcov0._ZNK8Polyfish5Pawns5Entry16evaluate_shelterILNS_5ColorE0EEENS_5ScoreERKNS_8PositionENS_6SquareE(%rip)
	cmpl	%r12d, %r14d
	je	.L973
.L928:
	addq	$1, 64+__gcov0._ZNK8Polyfish5Pawns5Entry16evaluate_shelterILNS_5ColorE0EEENS_5ScoreERKNS_8PositionENS_6SquareE(%rip)
	movslq	%r13d, %r13
	leaq	0(%r13,%rcx,8), %r12
	leaq	_ZN8Polyfish12_GLOBAL__N_1L14UnblockedStormE(%rip), %rcx
	subl	(%rcx,%r12,4), %eax
.L927:
	leal	1(%rsi), %r13d
	cmpl	%esi, %ebp
	jl	.L929
	movabsq	$72340172838076673, %r12
	movl	%r13d, %ecx
	movq	%r9, %r14
	salq	%cl, %r12
	xorl	%ecx, %ecx
	andq	%r12, %r14
	je	.L930
	addq	$1, 24+__gcov0._ZNK8Polyfish5Pawns5Entry16evaluate_shelterILNS_5ColorE0EEENS_5ScoreERKNS_8PositionENS_6SquareE(%rip)
	rep bsfq	%r14, %r14
	movl	%r14d, %ecx
	sarl	$3, %ecx
.L930:
	xorl	%r14d, %r14d
	andq	%rdx, %r12
	je	.L931
	addq	$1, 32+__gcov0._ZNK8Polyfish5Pawns5Entry16evaluate_shelterILNS_5ColorE0EEENS_5ScoreERKNS_8PositionENS_6SquareE(%rip)
	rep bsfq	%r12, %r12
	movl	%r12d, %r14d
	sarl	$3, %r14d
.L931:
	movl	$7, %r12d
	subl	%r13d, %r12d
	cmpl	%r12d, %r13d
	jg	.L974
	movl	%r13d, %r12d
.L932:
	movslq	%ecx, %r15
	movslq	%r12d, %r12
	leaq	(%r15,%r12,8), %r15
	addl	(%rdi,%r15,4), %eax
	testl	%ecx, %ecx
	je	.L935
	leal	-1(%r14), %r15d
	addq	$1, 48+__gcov0._ZNK8Polyfish5Pawns5Entry16evaluate_shelterILNS_5ColorE0EEENS_5ScoreERKNS_8PositionENS_6SquareE(%rip)
	cmpl	%r15d, %ecx
	je	.L975
.L935:
	addq	$1, 64+__gcov0._ZNK8Polyfish5Pawns5Entry16evaluate_shelterILNS_5ColorE0EEENS_5ScoreERKNS_8PositionENS_6SquareE(%rip)
	movslq	%r14d, %r14
	leaq	_ZN8Polyfish12_GLOBAL__N_1L14UnblockedStormE(%rip), %rcx
	leaq	(%r14,%r12,8), %r12
	subl	(%rcx,%r12,4), %eax
.L934:
	leal	2(%rsi), %r14d
	cmpl	%ebp, %r13d
	jg	.L929
	movabsq	$72340172838076673, %r12
	movl	%r14d, %ecx
	movq	%r9, %r13
	salq	%cl, %r12
	xorl	%ecx, %ecx
	andq	%r12, %r13
	je	.L936
	addq	$1, 24+__gcov0._ZNK8Polyfish5Pawns5Entry16evaluate_shelterILNS_5ColorE0EEENS_5ScoreERKNS_8PositionENS_6SquareE(%rip)
	rep bsfq	%r13, %r13
	movl	%r13d, %ecx
	sarl	$3, %ecx
.L936:
	xorl	%r13d, %r13d
	andq	%rdx, %r12
	je	.L937
	addq	$1, 32+__gcov0._ZNK8Polyfish5Pawns5Entry16evaluate_shelterILNS_5ColorE0EEENS_5ScoreERKNS_8PositionENS_6SquareE(%rip)
	rep bsfq	%r12, %r12
	movl	%r12d, %r13d
	sarl	$3, %r13d
.L937:
	movl	$7, %r12d
	subl	%r14d, %r12d
	cmpl	%r12d, %r14d
	jg	.L976
	movl	%r14d, %r12d
.L938:
	movslq	%ecx, %r15
	movslq	%r12d, %r12
	leaq	(%r15,%r12,8), %r15
	addl	(%rdi,%r15,4), %eax
	testl	%ecx, %ecx
	je	.L941
	leal	-1(%r13), %r15d
	addq	$1, 48+__gcov0._ZNK8Polyfish5Pawns5Entry16evaluate_shelterILNS_5ColorE0EEENS_5ScoreERKNS_8PositionENS_6SquareE(%rip)
	cmpl	%r15d, %ecx
	je	.L977
.L941:
	addq	$1, 64+__gcov0._ZNK8Polyfish5Pawns5Entry16evaluate_shelterILNS_5ColorE0EEENS_5ScoreERKNS_8PositionENS_6SquareE(%rip)
	movslq	%r13d, %r13
	leaq	_ZN8Polyfish12_GLOBAL__N_1L14UnblockedStormE(%rip), %rcx
	leaq	0(%r13,%r12,8), %r12
	subl	(%rcx,%r12,4), %eax
.L940:
	leal	3(%rsi), %ecx
	cmpl	%r14d, %ebp
	jl	.L929
	movabsq	$72340172838076673, %rsi
	xorl	%ebp, %ebp
	salq	%cl, %rsi
	andq	%rsi, %r9
	je	.L942
	addq	$1, 24+__gcov0._ZNK8Polyfish5Pawns5Entry16evaluate_shelterILNS_5ColorE0EEENS_5ScoreERKNS_8PositionENS_6SquareE(%rip)
	rep bsfq	%r9, %r9
	movl	%r9d, %ebp
	sarl	$3, %ebp
.L942:
	xorl	%r9d, %r9d
	andq	%rsi, %rdx
	je	.L943
	addq	$1, 32+__gcov0._ZNK8Polyfish5Pawns5Entry16evaluate_shelterILNS_5ColorE0EEENS_5ScoreERKNS_8PositionENS_6SquareE(%rip)
	rep bsfq	%rdx, %rdx
	movl	%edx, %r9d
	sarl	$3, %r9d
.L943:
	movl	$7, %edx
	subl	%ecx, %edx
	cmpl	%ecx, %edx
	jge	.L944
	addq	$1, 40+__gcov0._ZNK8Polyfish5Pawns5Entry16evaluate_shelterILNS_5ColorE0EEENS_5ScoreERKNS_8PositionENS_6SquareE(%rip)
	movl	%edx, %ecx
.L944:
	movslq	%ebp, %rdx
	movslq	%ecx, %rsi
	leaq	(%rdx,%rsi,8), %rdx
	addl	(%rdi,%rdx,4), %eax
	testl	%ebp, %ebp
	je	.L945
	leal	-1(%r9), %edx
	addq	$1, 48+__gcov0._ZNK8Polyfish5Pawns5Entry16evaluate_shelterILNS_5ColorE0EEENS_5ScoreERKNS_8PositionENS_6SquareE(%rip)
	cmpl	%ebp, %edx
	je	.L978
.L945:
	addq	$1, 64+__gcov0._ZNK8Polyfish5Pawns5Entry16evaluate_shelterILNS_5ColorE0EEENS_5ScoreERKNS_8PositionENS_6SquareE(%rip)
	movslq	%r9d, %r9
	leaq	_ZN8Polyfish12_GLOBAL__N_1L14UnblockedStormE(%rip), %rdx
	leaq	(%r9,%rsi,8), %rcx
	subl	(%rdx,%rcx,4), %eax
.L929:
	movabsq	$72340172838076673, %rdx
	movl	%r8d, %ecx
	andq	%rbx, %r11
	salq	%cl, %rdx
	xorl	%ecx, %ecx
	testq	%rdx, %r11
	sete	%cl
	andq	%rbx, %r10
	testq	%rdx, %r10
	sete	%dl
	movzbl	%dl, %edx
	leaq	(%rcx,%rdx,2), %rcx
	leaq	_ZN8Polyfish12_GLOBAL__N_1L10KingOnFileE(%rip), %rdx
	subl	(%rdx,%rcx,4), %eax
	addq	$40, %rsp
	popq	%rbx
	popq	%rsi
	popq	%rdi
	popq	%rbp
	popq	%r12
	popq	%r13
	popq	%r14
	popq	%r15
	ret
	.p2align 4,,10
	.p2align 3
.L974:
	addq	$1, 40+__gcov0._ZNK8Polyfish5Pawns5Entry16evaluate_shelterILNS_5ColorE0EEENS_5ScoreERKNS_8PositionENS_6SquareE(%rip)
	jmp	.L932
	.p2align 4,,10
	.p2align 3
.L971:
	addq	$1, 16+__gcov0._ZNK8Polyfish5Pawns5Entry16evaluate_shelterILNS_5ColorE0EEENS_5ScoreERKNS_8PositionENS_6SquareE(%rip)
	leal	-1(%rsi), %esi
	movl	%r8d, %ebp
	jmp	.L922
	.p2align 4,,10
	.p2align 3
.L972:
	addq	$1, 40+__gcov0._ZNK8Polyfish5Pawns5Entry16evaluate_shelterILNS_5ColorE0EEENS_5ScoreERKNS_8PositionENS_6SquareE(%rip)
	jmp	.L925
	.p2align 4,,10
	.p2align 3
.L973:
	movslq	%r13d, %r13
	leaq	_ZN8Polyfish12_GLOBAL__N_1L12BlockedStormE(%rip), %rcx
	addq	$1, 56+__gcov0._ZNK8Polyfish5Pawns5Entry16evaluate_shelterILNS_5ColorE0EEENS_5ScoreERKNS_8PositionENS_6SquareE(%rip)
	subl	(%rcx,%r13,4), %eax
	jmp	.L927
	.p2align 4,,10
	.p2align 3
.L977:
	movslq	%r13d, %r13
	leaq	_ZN8Polyfish12_GLOBAL__N_1L12BlockedStormE(%rip), %rcx
	addq	$1, 56+__gcov0._ZNK8Polyfish5Pawns5Entry16evaluate_shelterILNS_5ColorE0EEENS_5ScoreERKNS_8PositionENS_6SquareE(%rip)
	subl	(%rcx,%r13,4), %eax
	jmp	.L940
	.p2align 4,,10
	.p2align 3
.L978:
	movslq	%r9d, %r9
	leaq	_ZN8Polyfish12_GLOBAL__N_1L12BlockedStormE(%rip), %rdx
	addq	$1, 56+__gcov0._ZNK8Polyfish5Pawns5Entry16evaluate_shelterILNS_5ColorE0EEENS_5ScoreERKNS_8PositionENS_6SquareE(%rip)
	subl	(%rdx,%r9,4), %eax
	jmp	.L929
	.p2align 4,,10
	.p2align 3
.L976:
	addq	$1, 40+__gcov0._ZNK8Polyfish5Pawns5Entry16evaluate_shelterILNS_5ColorE0EEENS_5ScoreERKNS_8PositionENS_6SquareE(%rip)
	jmp	.L938
	.p2align 4,,10
	.p2align 3
.L975:
	movslq	%r14d, %r14
	leaq	_ZN8Polyfish12_GLOBAL__N_1L12BlockedStormE(%rip), %rcx
	addq	$1, 56+__gcov0._ZNK8Polyfish5Pawns5Entry16evaluate_shelterILNS_5ColorE0EEENS_5ScoreERKNS_8PositionENS_6SquareE(%rip)
	subl	(%rcx,%r14,4), %eax
	jmp	.L934
	.seh_endproc
	.align 2
	.p2align 4
	.globl	_ZN8Polyfish5Pawns5Entry14do_king_safetyILNS_5ColorE0EEENS_5ScoreERKNS_8PositionE
	.def	_ZN8Polyfish5Pawns5Entry14do_king_safetyILNS_5ColorE0EEENS_5ScoreERKNS_8PositionE;	.scl	2;	.type	32;	.endef
	.seh_proc	_ZN8Polyfish5Pawns5Entry14do_king_safetyILNS_5ColorE0EEENS_5ScoreERKNS_8PositionE
_ZN8Polyfish5Pawns5Entry14do_king_safetyILNS_5ColorE0EEENS_5ScoreERKNS_8PositionE:
	pushq	%r14
	.seh_pushreg	%r14
	pushq	%r13
	.seh_pushreg	%r13
	pushq	%r12
	.seh_pushreg	%r12
	pushq	%rbp
	.seh_pushreg	%rbp
	pushq	%rdi
	.seh_pushreg	%rdi
	pushq	%rsi
	.seh_pushreg	%rsi
	pushq	%rbx
	.seh_pushreg	%rbx
	subq	$32, %rsp
	.seh_stackalloc	32
	.seh_endprologue
	movq	.refptr.__gcov_indirect_call(%rip), %rax
	cmpq	$0, (%rax)
	movq	%rcx, %r12
	movq	%rdx, %rbp
	je	.L980
	leaq	_ZN8Polyfish5Pawns5Entry14do_king_safetyILNS_5ColorE0EEENS_5ScoreERKNS_8PositionE(%rip), %rdx
	movl	$1760442836, %ecx
	call	__gcov_indirect_call_profiler_v4
.L980:
	addq	$1, __gcov0._ZN8Polyfish5Pawns5Entry14do_king_safetyILNS_5ColorE0EEENS_5ScoreERKNS_8PositionE(%rip)
	cmpq	$0, __gcov7._ZN8Polyfish5Pawns5Entry14do_king_safetyILNS_5ColorE0EEENS_5ScoreERKNS_8PositionE(%rip)
	jne	.L981
	movq	.refptr.__gcov_time_profiler_counter(%rip), %rdx
	movq	(%rdx), %rax
	addq	$1, %rax
	movq	%rax, __gcov7._ZN8Polyfish5Pawns5Entry14do_king_safetyILNS_5ColorE0EEENS_5ScoreERKNS_8PositionE(%rip)
	movq	%rax, (%rdx)
.L981:
	movq	856(%rbp), %rax
	movq	320(%rbp), %r14
	movq	%rbp, %rdx
	movq	%r12, %rcx
	movq	304(%rbp), %rbx
	movl	24(%rax), %r13d
	andq	%r14, %rbx
	movl	%r13d, %eax
	rep bsfq	%rbx, %rbx
	andl	$3, %eax
	movl	%ebx, 64(%r12)
	movl	%ebx, %r8d
	movl	%ebx, %edi
	movl	%eax, 80(%r12)
	call	_ZNK8Polyfish5Pawns5Entry16evaluate_shelterILNS_5ColorE0EEENS_5ScoreERKNS_8PositionENS_6SquareE
	movl	%eax, %esi
	testb	$1, %r13b
	je	.L982
	movl	$6, %r8d
	movq	%rbp, %rdx
	movq	%r12, %rcx
	addq	$1, 8+__gcov0._ZN8Polyfish5Pawns5Entry14do_king_safetyILNS_5ColorE0EEENS_5ScoreERKNS_8PositionE(%rip)
	call	_ZNK8Polyfish5Pawns5Entry16evaluate_shelterILNS_5ColorE0EEENS_5ScoreERKNS_8PositionENS_6SquareE
	cmpw	%ax, %si
	jl	.L1004
.L982:
	andl	$2, %r13d
	je	.L984
	movl	$2, %r8d
	movq	%rbp, %rdx
	movq	%r12, %rcx
	addq	$1, 24+__gcov0._ZN8Polyfish5Pawns5Entry14do_king_safetyILNS_5ColorE0EEENS_5ScoreERKNS_8PositionE(%rip)
	call	_ZNK8Polyfish5Pawns5Entry16evaluate_shelterILNS_5ColorE0EEENS_5ScoreERKNS_8PositionENS_6SquareE
	cmpw	%ax, %si
	jl	.L1005
.L984:
	movq	264(%rbp), %rdx
	movq	.refptr._ZN8Polyfish13PseudoAttacksE(%rip), %rax
	movslq	%ebx, %rbx
	andq	%r14, %rdx
	movq	%rdx, %rcx
	andq	3072(%rax,%rbx,8), %rcx
	jne	.L986
	movl	$6291456, %r8d
	testq	%rdx, %rdx
	je	.L988
	movq	56+__gcov0._ZN8Polyfish5Pawns5Entry14do_king_safetyILNS_5ColorE0EEENS_5ScoreERKNS_8PositionE(%rip), %rax
	movq	%rdx, %rcx
	leaq	1(%rax), %r8
	.p2align 4,,10
	.p2align 3
.L989:
	leaq	-1(%rcx), %r9
	movq	%r8, %rax
	addq	$1, %r8
	andq	%r9, %rcx
	jne	.L989
	movq	%rax, 56+__gcov0._ZN8Polyfish5Pawns5Entry14do_king_safetyILNS_5ColorE0EEENS_5ScoreERKNS_8PositionE(%rip)
	movslq	%edi, %r9
	movq	48+__gcov0._ZN8Polyfish5Pawns5Entry14do_king_safetyILNS_5ColorE0EEENS_5ScoreERKNS_8PositionE(%rip), %r10
	xorl	%r11d, %r11d
	salq	$6, %r9
	movl	$6, %r8d
	addq	.refptr._ZN8Polyfish14SquareDistanceE(%rip), %r9
	.p2align 4,,10
	.p2align 3
.L991:
	xorl	%ecx, %ecx
	leaq	-1(%rdx), %rax
	rep bsfq	%rdx, %rcx
	andq	%rax, %rdx
	movslq	%ecx, %rcx
	movzbl	(%r9,%rcx), %ecx
	cmpl	%r8d, %ecx
	jge	.L990
	addq	$1, %r10
	movl	%ecx, %r8d
	movl	$1, %r11d
.L990:
	testq	%rdx, %rdx
	jne	.L991
	testb	%r11b, %r11b
	je	.L992
	movq	%r10, 48+__gcov0._ZN8Polyfish5Pawns5Entry14do_king_safetyILNS_5ColorE0EEENS_5ScoreERKNS_8PositionE(%rip)
.L992:
	sall	$20, %r8d
.L988:
	movl	%esi, %eax
	subl	%r8d, %eax
	addq	$32, %rsp
	popq	%rbx
	popq	%rsi
	popq	%rdi
	popq	%rbp
	popq	%r12
	popq	%r13
	popq	%r14
	ret
	.p2align 4,,10
	.p2align 3
.L986:
	addq	$1, 40+__gcov0._ZN8Polyfish5Pawns5Entry14do_king_safetyILNS_5ColorE0EEENS_5ScoreERKNS_8PositionE(%rip)
	movl	$1048576, %r8d
	jmp	.L988
	.p2align 4,,10
	.p2align 3
.L1005:
	addq	$1, 32+__gcov0._ZN8Polyfish5Pawns5Entry14do_king_safetyILNS_5ColorE0EEENS_5ScoreERKNS_8PositionE(%rip)
	movl	%eax, %esi
	jmp	.L984
	.p2align 4,,10
	.p2align 3
.L1004:
	addq	$1, 16+__gcov0._ZN8Polyfish5Pawns5Entry14do_king_safetyILNS_5ColorE0EEENS_5ScoreERKNS_8PositionE(%rip)
	movl	%eax, %esi
	jmp	.L982
	.seh_endproc
	.align 2
	.p2align 4
	.def	_ZN8Polyfish8Position18set_castling_rightENS_5ColorENS_6SquareE;	.scl	3;	.type	32;	.endef
	.seh_proc	_ZN8Polyfish8Position18set_castling_rightENS_5ColorENS_6SquareE
_ZN8Polyfish8Position18set_castling_rightENS_5ColorENS_6SquareE:
	pushq	%rdi
	.seh_pushreg	%rdi
	pushq	%rsi
	.seh_pushreg	%rsi
	pushq	%rbx
	.seh_pushreg	%rbx
	subq	$32, %rsp
	.seh_stackalloc	32
	.seh_endprologue
	movq	.refptr.__gcov_indirect_call(%rip), %rax
	cmpq	$0, (%rax)
	movq	%rcx, %rbx
	movl	%edx, %esi
	movl	%r8d, %edi
	je	.L1007
	leaq	_ZN8Polyfish8Position18set_castling_rightENS_5ColorENS_6SquareE(%rip), %rdx
	movl	$238573131, %ecx
	call	__gcov_indirect_call_profiler_v4
.L1007:
	addq	$1, __gcov0._ZN8Polyfish8Position18set_castling_rightENS_5ColorENS_6SquareE(%rip)
	cmpq	$0, __gcov7._ZN8Polyfish8Position18set_castling_rightENS_5ColorENS_6SquareE(%rip)
	jne	.L1008
	movq	.refptr.__gcov_time_profiler_counter(%rip), %rdx
	movq	(%rdx), %rax
	addq	$1, %rax
	movq	%rax, __gcov7._ZN8Polyfish8Position18set_castling_rightENS_5ColorENS_6SquareE(%rip)
	movq	%rax, (%rdx)
.L1008:
	movslq	%esi, %rdx
	movq	304(%rbx), %rax
	movq	856(%rbx), %r10
	andq	320(%rbx,%rdx,8), %rax
	rep bsfq	%rax, %rax
	movl	24(%r10), %ecx
	movslq	%eax, %r9
	leaq	96(%r9), %r8
	movl	16(%rbx,%r8,4), %edx
	cmpl	%eax, %edi
	jg	.L1009
	addq	$1, 8+__gcov0._ZN8Polyfish8Position18set_castling_rightENS_5ColorENS_6SquareE(%rip)
	testl	%esi, %esi
	je	.L1010
	orl	$8, %ecx
	orl	$8, %edx
	addq	$1, 16+__gcov0._ZN8Polyfish8Position18set_castling_rightENS_5ColorENS_6SquareE(%rip)
	movl	%ecx, 24(%r10)
	movslq	%edi, %rcx
	movl	%edx, 16(%rbx,%r8,4)
	movl	$8, %edx
	orl	$8, 400(%rbx,%rcx,4)
	movl	%edi, 688(%rbx)
.L1013:
	imull	$56, %esi, %esi
	addq	$1, 24+__gcov0._ZN8Polyfish8Position18set_castling_rightENS_5ColorENS_6SquareE(%rip)
	movl	$3, %eax
	addq	$1, 32+__gcov0._ZN8Polyfish8Position18set_castling_rightENS_5ColorENS_6SquareE(%rip)
	movl	%esi, %r10d
	xorl	$2, %r10d
	jmp	.L1012
	.p2align 4,,10
	.p2align 3
.L1009:
	testl	%esi, %esi
	je	.L1015
	orl	$4, %ecx
	orl	$4, %edx
	addq	$1, 16+__gcov0._ZN8Polyfish8Position18set_castling_rightENS_5ColorENS_6SquareE(%rip)
	movl	%ecx, 24(%r10)
	movslq	%edi, %rcx
	movl	%edx, 16(%rbx,%r8,4)
	movl	$4, %edx
	orl	$4, 400(%rbx,%rcx,4)
	movl	%edi, 672(%rbx)
.L1014:
	imull	$56, %esi, %esi
	movl	$5, %eax
	movl	%esi, %r10d
	xorl	$6, %r10d
.L1012:
	movslq	%edx, %r8
	xorl	%esi, %eax
	movq	%rcx, %rdx
	movslq	%r10d, %r10
	salq	$6, %rdx
	cltq
	movq	.refptr._ZN8Polyfish9BetweenBBE(%rip), %r11
	addq	%rdx, %rax
	movq	%r9, %rdx
	salq	$6, %rdx
	movq	(%r11,%rax,8), %rax
	addq	%r10, %rdx
	movq	.refptr._ZN8Polyfish8SquareBBE(%rip), %r10
	orq	(%r11,%rdx,8), %rax
	movq	(%r10,%r9,8), %rdx
	orq	(%r10,%rcx,8), %rdx
	notq	%rdx
	andq	%rdx, %rax
	movq	%rax, 720(%rbx,%r8,8)
	addq	$32, %rsp
	popq	%rbx
	popq	%rsi
	popq	%rdi
	ret
	.p2align 4,,10
	.p2align 3
.L1015:
	orl	$1, %ecx
	orl	$1, %edx
	movl	%ecx, 24(%r10)
	movslq	%edi, %rcx
	movl	%edx, 16(%rbx,%r8,4)
	movl	$1, %edx
	orl	$1, 400(%rbx,%rcx,4)
	movl	%edi, 660(%rbx)
	jmp	.L1014
	.p2align 4,,10
	.p2align 3
.L1010:
	orl	$2, %ecx
	orl	$2, %edx
	movl	%ecx, 24(%r10)
	movslq	%edi, %rcx
	movl	%edx, 16(%rbx,%r8,4)
	movl	$2, %edx
	orl	$2, 400(%rbx,%rcx,4)
	movl	%edi, 664(%rbx)
	jmp	.L1013
	.seh_endproc
	.align 2
	.p2align 4
	.globl	_ZNK8Polyfish8Position15slider_blockersEyNS_6SquareERy
	.def	_ZNK8Polyfish8Position15slider_blockersEyNS_6SquareERy;	.scl	2;	.type	32;	.endef
	.seh_proc	_ZNK8Polyfish8Position15slider_blockersEyNS_6SquareERy
_ZNK8Polyfish8Position15slider_blockersEyNS_6SquareERy:
	pushq	%r15
	.seh_pushreg	%r15
	pushq	%r14
	.seh_pushreg	%r14
	pushq	%r13
	.seh_pushreg	%r13
	pushq	%r12
	.seh_pushreg	%r12
	pushq	%rbp
	.seh_pushreg	%rbp
	pushq	%rdi
	.seh_pushreg	%rdi
	pushq	%rsi
	.seh_pushreg	%rsi
	pushq	%rbx
	.seh_pushreg	%rbx
	subq	$72, %rsp
	.seh_stackalloc	72
	.seh_endprologue
	movq	.refptr.__gcov_indirect_call(%rip), %rax
	cmpq	$0, (%rax)
	movq	%r9, 168(%rsp)
	movq	%rcx, %rsi
	movq	%rdx, %rdi
	movl	%r8d, %ebp
	je	.L1022
	leaq	_ZNK8Polyfish8Position15slider_blockersEyNS_6SquareERy(%rip), %rdx
	movl	$1955462343, %ecx
	call	__gcov_indirect_call_profiler_v4
.L1022:
	addq	$1, __gcov0._ZNK8Polyfish8Position15slider_blockersEyNS_6SquareERy(%rip)
	cmpq	$0, __gcov7._ZNK8Polyfish8Position15slider_blockersEyNS_6SquareERy(%rip)
	jne	.L1023
	movq	.refptr.__gcov_time_profiler_counter(%rip), %rdx
	movq	(%rdx), %rax
	addq	$1, %rax
	movq	%rax, __gcov7._ZNK8Polyfish8Position15slider_blockersEyNS_6SquareERy(%rip)
	movq	%rax, (%rdx)
.L1023:
	movq	168(%rsp), %rax
	movq	.refptr._ZN8Polyfish13PseudoAttacksE(%rip), %rdx
	movslq	%ebp, %r8
	movq	$0, (%rax)
	movq	296(%rsi), %rax
	movq	288(%rsi), %rbx
	movq	256(%rsi), %r10
	orq	%rax, %rbx
	orq	280(%rsi), %rax
	andq	2048(%rdx,%r8,8), %rbx
	andq	1536(%rdx,%r8,8), %rax
	orq	%rax, %rbx
	andq	%rdi, %rbx
	xorq	%rbx, %r10
	testq	%rbx, %rbx
	je	.L1030
	movq	24+__gcov0._ZNK8Polyfish8Position15slider_blockersEyNS_6SquareERy(%rip), %rax
	movq	%r8, %rbp
	xorl	%r15d, %r15d
	xorl	%r9d, %r9d
	movb	$0, 47(%rsp)
	xorl	%r13d, %r13d
	salq	$6, %rbp
	movq	8+__gcov0._ZNK8Polyfish8Position15slider_blockersEyNS_6SquareERy(%rip), %rdi
	movq	%rax, 48(%rsp)
	movq	32+__gcov0._ZNK8Polyfish8Position15slider_blockersEyNS_6SquareERy(%rip), %rax
	movq	16+__gcov0._ZNK8Polyfish8Position15slider_blockersEyNS_6SquareERy(%rip), %r14
	movq	.refptr._ZN8Polyfish9BetweenBBE(%rip), %r11
	movq	%rax, 56(%rsp)
	movq	%rbx, %rax
	.p2align 4,,10
	.p2align 3
.L1026:
	xorl	%edx, %edx
	leaq	-1(%rax), %rcx
	movq	%r10, %r12
	rep bsfq	%rax, %rdx
	andq	%rcx, %rax
	movslq	%edx, %rdx
	leaq	0(%rbp,%rdx), %rcx
	andq	(%r11,%rcx,8), %r12
	movq	%r12, %rcx
	je	.L1025
	leaq	-1(%r12), %r12
	addq	$1, %rdi
	movl	$1, %r9d
	testq	%rcx, %r12
	jne	.L1025
	movl	(%rsi,%r8,4), %r12d
	addq	$1, %r14
	orq	%rcx, %r13
	movl	$1, %r15d
	sarl	$3, %r12d
	movslq	%r12d, %r12
	andq	320(%rsi,%r12,8), %rcx
	je	.L1025
	movq	.refptr._ZN8Polyfish8SquareBBE(%rip), %rcx
	addq	$1, 48(%rsp)
	movb	$1, 47(%rsp)
	movq	(%rcx,%rdx,8), %rdx
	movq	168(%rsp), %rcx
	orq	%rdx, (%rcx)
	.p2align 4,,10
	.p2align 3
.L1025:
	testq	%rax, %rax
	jne	.L1026
	movq	56(%rsp), %rax
	popcntq	%rbx, %rbx
	addq	%rbx, %rax
	cmpb	$0, 47(%rsp)
	movq	%rax, 32+__gcov0._ZNK8Polyfish8Position15slider_blockersEyNS_6SquareERy(%rip)
	je	.L1027
	movq	48(%rsp), %rax
	movq	%rax, 24+__gcov0._ZNK8Polyfish8Position15slider_blockersEyNS_6SquareERy(%rip)
.L1027:
	testb	%r15b, %r15b
	je	.L1028
	movq	%r14, 16+__gcov0._ZNK8Polyfish8Position15slider_blockersEyNS_6SquareERy(%rip)
.L1028:
	testb	%r9b, %r9b
	je	.L1021
	movq	%rdi, 8+__gcov0._ZNK8Polyfish8Position15slider_blockersEyNS_6SquareERy(%rip)
.L1021:
	movq	%r13, %rax
	addq	$72, %rsp
	popq	%rbx
	popq	%rsi
	popq	%rdi
	popq	%rbp
	popq	%r12
	popq	%r13
	popq	%r14
	popq	%r15
	ret
	.p2align 4,,10
	.p2align 3
.L1030:
	xorl	%r13d, %r13d
	jmp	.L1021
	.seh_endproc
	.align 2
	.p2align 4
	.def	_ZNK8Polyfish8Position14set_check_infoEPNS_9StateInfoE;	.scl	3;	.type	32;	.endef
	.seh_proc	_ZNK8Polyfish8Position14set_check_infoEPNS_9StateInfoE
_ZNK8Polyfish8Position14set_check_infoEPNS_9StateInfoE:
	pushq	%rsi
	.seh_pushreg	%rsi
	pushq	%rbx
	.seh_pushreg	%rbx
	subq	$40, %rsp
	.seh_stackalloc	40
	.seh_endprologue
	movq	.refptr.__gcov_indirect_call(%rip), %rax
	cmpq	$0, (%rax)
	movq	%rcx, %rbx
	movq	%rdx, %rsi
	je	.L1047
	leaq	_ZNK8Polyfish8Position14set_check_infoEPNS_9StateInfoE(%rip), %rdx
	movl	$796616254, %ecx
	call	__gcov_indirect_call_profiler_v4
.L1047:
	addq	$1, __gcov0._ZNK8Polyfish8Position14set_check_infoEPNS_9StateInfoE(%rip)
	cmpq	$0, __gcov7._ZNK8Polyfish8Position14set_check_infoEPNS_9StateInfoE(%rip)
	jne	.L1048
	movq	.refptr.__gcov_time_profiler_counter(%rip), %rdx
	movq	(%rdx), %rax
	addq	$1, %rax
	movq	%rax, __gcov7._ZNK8Polyfish8Position14set_check_infoEPNS_9StateInfoE(%rip)
	movq	%rax, (%rdx)
.L1048:
	movq	320(%rbx), %r8
	movq	328(%rbx), %rdx
	leaq	88(%rsi), %r9
	movq	%rbx, %rcx
	andq	304(%rbx), %r8
	rep bsfq	%r8, %r8
	call	_ZNK8Polyfish8Position15slider_blockersEyNS_6SquareERy
	movq	328(%rbx), %r8
	leaq	80(%rsi), %r9
	movq	%rbx, %rcx
	movq	%rax, 64(%rsi)
	movq	320(%rbx), %rdx
	andq	304(%rbx), %r8
	addq	$1, 8+__gcov0._ZNK8Polyfish8Position14set_check_infoEPNS_9StateInfoE(%rip)
	rep bsfq	%r8, %r8
	call	_ZNK8Polyfish8Position15slider_blockersEyNS_6SquareERy
	movl	868(%rbx), %edx
	movq	.refptr._ZN8Polyfish11PawnAttacksE(